2000: ------ drucker.writeStarTty
2000: C920   CMPim 20
2002: 901A   BCC +26>1E
2004: C97F   CMPim 7F
2006: 9004   BCC +4>0C
2008: AA     TAX
2009: BD0020 LDAx 2000 drucker.writeStarTty
200C: 205C20 JSR 205C drucker.outStar
200F: E66D   INCz 6D hexedit.spaTty
2011: A56D   LDAz 6D hexedit.spaTty
2013: C949   CMPim 49
2015: 9006   BCC +6>1D
2017: A901   LDAim 01
2019: 856D   STAz 6D hexedit.spaTty
201B: E66E   INCz 6E hexedit.zeiTty
201D: 60     RTS
201E: C91D   CMPim 1D
2020: F01C   BEQ +28>3E
2022: C90D   CMPim 0D
2024: F010   BEQ +16>36
2026: C90A   CMPim 0A
2028: F01B   BEQ +27>45
202A: C90E   CMPim 0E
202C: F022   BEQ +34>50
202E: C90C   CMPim 0C
2030: F019   BEQ +25>4B
2032: A9A8   LDAim A8
2034: D0D6   BNE -42>0C
2036: 205C20 JSR 205C drucker.outStar
2039: A901   LDAim 01
203B: 856D   STAz 6D hexedit.spaTty
203D: 60     RTS
203E: A90D   LDAim 0D
2040: 203620 JSR 2036
2043: A90A   LDAim 0A
2045: 205C20 JSR 205C drucker.outStar
2048: E66E   INCz 6E hexedit.zeiTty
204A: 60     RTS
204B: A91B   LDAim 1B
204D: 205C20 JSR 205C drucker.outStar
2050: A90C   LDAim 0C
2052: 205C20 JSR 205C drucker.outStar
2055: A901   LDAim 01
2057: 856D   STAz 6D hexedit.spaTty
2059: 856E   STAz 6E hexedit.zeiTty
205B: 60     RTS
205C: ------ drucker.outStar
205C: 48     PHA
205D: A902   LDAim 02
205F: 2C0D14 BIT 140D VIA.IFR
2062: F0FB   BEQ -5>5F
2064: 68     PLA
2065: 8D0114 STA 1401 VIA.ORA/IRA
2068: 60     RTS
2069: ------ drucker.initStar
2069: A9FF   LDAim FF
206B: 8D0314 STA 1403 VIA.DDRA
206E: AD0C14 LDA 140C VIA.PCR
2071: 29F0   ANDim F0
2073: 0908   ORAim 08
2075: 8D0C14 STA 140C VIA.PCR
2078: 60     RTS
2079: FFFFFF 
207C: FF2233 
207F: ------ drucker.UmsetzTabelle
207F: B1A8   LDAiy A8
2081: A8     TAY
2082: A8     TAY
2083: A8     TAY
2084: A8     TAY
2085: A8     TAY
2086: A8     TAY
2087: A8     TAY
2088: A8     TAY
2089: A8     TAY
208A: A8     TAY
208B: A8     TAY
208C: A8     TAY
208D: A8     TAY
208E: A8     TAY
208F: A8     TAY
2090: A8     TAY
2091: A8     TAY
2092: A8     TAY
2093: A8     TAY
2094: C4B3   CPYz B3
2096: A8     TAY
2097: A8     TAY
2098: A8     TAY
2099: A8     TAY
209A: DC     
209B: DF     
209C: DDDEA8 CMPx A8DE
209F: A8     TAY
20A0: A8     TAY
20A1: DB     
20A2: A8     TAY
20A3: A8     TAY
20A4: A8     TAY
20A5: A8     TAY
20A6: A8     TAY
20A7: A8     TAY
20A8: A8     TAY
20A9: A8     TAY
20AA: A8     TAY
20AB: A8     TAY
20AC: A8     TAY
20AD: A8     TAY
20AE: A8     TAY
20AF: A8     TAY
20B0: A8     TAY
20B1: A8     TAY
20B2: A8     TAY
20B3: A8     TAY
20B4: A8     TAY
20B5: A8     TAY
20B6: A8     TAY
20B7: A8     TAY
20B8: A8     TAY
20B9: A8     TAY
20BA: A8     TAY
20BB: B2     
20BC: A8     TAY
20BD: A8     TAY
20BE: A8     TAY
20BF: A8     TAY
20C0: A8     TAY
20C1: A8     TAY
20C2: A8     TAY
20C3: A8     TAY
20C4: A8     TAY
20C5: A8     TAY
20C6: A8     TAY
20C7: A8     TAY
20C8: A8     TAY
20C9: A8     TAY
20CA: A8     TAY
20CB: C0DA   CPYim DA
20CD: BF     
20CE: D9A8A8 CMPy A8A8
20D1: A8     TAY
20D2: A8     TAY
20D3: A8     TAY
20D4: A8     TAY
20D5: A8     TAY
20D6: A8     TAY
20D7: C1C3   CMPix C3
20D9: C2     
20DA: B4C5   LDYz C5
20DC: A8     TAY
20DD: A8     TAY
20DE: A8     TAY
20DF: A8     TAY
20E0: A8     TAY
20E1: A8     TAY
20E2: A8     TAY
20E3: A8     TAY
20E4: A8     TAY
20E5: 03     
20E6: 0506   ORAz 06
20E8: 04     
20E9: A8     TAY
20EA: A8     TAY
20EB: A8     TAY
20EC: A8     TAY
20ED: A8     TAY
20EE: A8     TAY
20EF: A8     TAY
20F0: A8     TAY
20F1: A8     TAY
20F2: A8     TAY
20F3: A8     TAY
20F4: A8     TAY
20F5: A8     TAY
20F6: A8     TAY
20F7: A8     TAY
20F8: A8     TAY
20F9: A8     TAY
20FA: A8     TAY
20FB: A8     TAY
20FC: A8     TAY
20FD: A8     TAY
20FE: A8     TAY
20FF: A8     TAY
2100: ------ drucker.initStarTtyMode
2100: 201821 JSR 2118 drucker.initStarNotTty
2103: A901   LDAim 01
2105: 856D   STAz 6D hexedit.spaTty
2107: 856E   STAz 6E hexedit.zeiTty
2109: 60     RTS
210A: FFFFFF 
210D: FFFFFF 
2110: FFFFFF 
2113: FFFFFF 
2116: 22     
2117: 33     
2118: ------ drucker.initStarNotTty
2118: 206920 JSR 2069 drucker.initStar
211B: A95C   LDAim 5C
211D: A220   LDXim 20
211F: 8D061A STA 1A06 bs.currentOutput
2122: 8E071A STX 1A07
2125: 203821 JSR 2138 drucker.writeplus
2128: 02     
2129: 1B     
212A: 40     RTI
212B: EA     NOP
212C: EA     NOP
212D: 60     RTS
212E: FFFFFF 
2131: FFFFFF 
2134: FFFF22 
2137: 33     
2138: ------ drucker.writeplus
2138: A001   LDYim 01
213A: 20A525 JSR 25A5 bs.KPUe
213D: 68     PLA
213E: 8584   STAz 84
2140: A001   LDYim 01
2142: 20A525 JSR 25A5 bs.KPUe
2145: 68     PLA
2146: 206324 JSR 2463 hexedit.write
2149: C684   DECz 84
214B: D0F3   BNE -13>40
214D: 60     RTS
214E: ------ drucker.delay
214E: F008   BEQ +8>58
2150: CA     DEX
2151: 204E21 JSR 214E drucker.delay
2154: 204E21 JSR 214E drucker.delay
2157: E8     INX
2158: 60     RTS
2159: ------ drucker.pieps
2159: A900   LDAim 00
215B: 8D821A STA 1A82 PBD
215E: A99E   LDAim 9E
2160: 8D831A STA 1A83 PBDD
2163: A204   LDXim 04
2165: 204E21 JSR 214E drucker.delay
2168: A91E   LDAim 1E
216A: 8D831A STA 1A83 PBDD
216D: A204   LDXim 04
216F: 204E21 JSR 214E drucker.delay
2172: 88     DEY
2173: D0E9   BNE -23>5E
2175: 60     RTS
2176: ------ drucker.druckeVideoSchirm
2176: 200021 JSR 2100 drucker.initStarTtyMode
2179: 200325 JSR 2503 hexedit.lwriteVonBis
217C: 00     BRK
217D: 08     PHP
217E: CF     
217F: 0F     
2180: 60     RTS
2181: ------ drucker.manuellDruckeVideoSchirm
2181: 207621 JSR 2176 drucker.druckeVideoSchirm
2184: 4C1D1C JMP 1C1D monitor.RESET
2187: FFFFFF 
218A: FFFFFF 
218D: FFFFFF 
2190: FFFFFF 
2193: FFFFFF 
2196: FFFFFF 
2199: FFFFFF 
219C: FFFFFF 
219F: FFFFFF 
21A2: FFFFFF 
21A5: FFFFFF 
21A8: FFFFFF 
21AB: FFFFFF 
21AE: FFFFFF 
21B1: FFFFFF 
21B4: FFFFFF 
21B7: FFFFFF 
21BA: FFFFFF 
21BD: FFFFFF 
21C0: FFFFFF 
21C3: FFFFFF 
21C6: FFFFFF 
21C9: FFFFFF 
21CC: FFFFFF 
21CF: FFFFFF 
21D2: FFFFFF 
21D5: FFFFFF 
21D8: FFFFFF 
21DB: FFFFFF 
21DE: FFFFFF 
21E1: FFFFFF 
21E4: FFFFFF 
21E7: FFFFFF 
21EA: FFFFFF 
21ED: FFFFFF 
21F0: FFFFFF 
21F3: FFFFFF 
21F6: FFFFFF 
21F9: FFFFFF 
21FC: FFFFFF 
21FF: FFFFFF 
2202: FF2233 
2205: ------ hexedit.writeMoni
2205: EA     NOP
2206: EA     NOP
2207: EA     NOP
2208: C920   CMPim 20
220A: B00E   BCS +14>1A
220C: C900   CMPim 00
220E: F00A   BEQ +10>1A
2210: C909   CMPim 09
2212: F00A   BEQ +10>1E
2214: C907   CMPim 07
2216: D00D   BNE +13>25
2218: A9F1   LDAim F1
221A: A000   LDYim 00
221C: 919A   STAiy 9A hexedit.video3
221E: 208422 JSR 2284 hexedit.cursInc
2221: 201D23 JSR 231D hexedit.setCursSql
2224: 60     RTS
2225: C908   CMPim 08
2227: D007   BNE +7>30
2229: 20CF22 JSR 22CF hexedit.cursDec
222C: 201D23 JSR 231D hexedit.setCursSql
222F: 60     RTS
2230: C90A   CMPim 0A
2232: D007   BNE +7>3B
2234: 209722 JSR 2297 hexedit.cursDown
2237: 201D23 JSR 231D hexedit.setCursSql
223A: 60     RTS
223B: 4CD125 JMP 25D1 hexedit.writeMoni.continued
223E: 22     
223F: 33     
2240: 77     
2241: 505E   BVC +94>A1
2243: 0921   ORAim 21
2245: 0619   ASLz 19
2247: 1D0008 ORAx 0800
224A: 00     BRK
224B: 07     
224C: 00     BRK
224D: 00     BRK
224E: 00     BRK
224F: 00     BRK
2250: ------ hexedit.initVideo
2250: A20F   LDXim 0F
2252: 8E0004 STX 0400
2255: BD4022 LDAx 2240
2258: 8D0104 STA 0401
225B: CA     DEX
225C: 10F4   BPL -12>52
225E: ------ hexedit.blankVideo
225E: A208   LDXim 08
2260: 869B   STXz 9B hexedit.video4
2262: A000   LDYim 00
2264: 8498   STYz 98 hexedit.videoSpa
2266: 8499   STYz 99 hexedit.video2
2268: 849A   STYz 9A hexedit.video3
226A: A920   LDAim 20
226C: 919A   STAiy 9A hexedit.video3
226E: C8     INY
226F: D0FB   BNE -5>6C
2271: E69B   INCz 9B hexedit.video4
2273: A69B   LDXz 9B hexedit.video4
2275: E010   CPXim 10
2277: D0F1   BNE -15>6A
2279: A208   LDXim 08
227B: 869B   STXz 9B hexedit.video4
227D: 60     RTS
227E: FFFFFF 
2281: FF2233 
2284: ------ hexedit.cursInc
2284: E698   INCz 98 hexedit.videoSpa
2286: A598   LDAz 98 hexedit.videoSpa
2288: C950   CMPim 50
228A: D018   BNE +24>A4
228C: A900   LDAim 00
228E: 8598   STAz 98 hexedit.videoSpa
2290: E699   INCz 99 hexedit.video2
2292: D010   BNE +16>A4
2294: FF2233 
2297: ------ hexedit.cursDown
2297: E699   INCz 99 hexedit.video2
2299: 18     CLC
229A: A59A   LDAz 9A hexedit.video3
229C: 6950   ADCim 50
229E: 859A   STAz 9A hexedit.video3
22A0: 9008   BCC +8>AA
22A2: B004   BCS +4>A8
22A4: E69A   INCz 9A hexedit.video3
22A6: D002   BNE +2>AA
22A8: E69B   INCz 9B hexedit.video4
22AA: A599   LDAz 99 hexedit.video2
22AC: C919   CMPim 19
22AE: F001   BEQ +1>B1
22B0: 60     RTS
22B1: A900   LDAim 00
22B3: 8599   STAz 99 hexedit.video2
22B5: A59A   LDAz 9A hexedit.video3
22B7: 38     SEC
22B8: E9D0   SBCim D0
22BA: 859A   STAz 9A hexedit.video3
22BC: A59B   LDAz 9B hexedit.video4
22BE: E907   SBCim 07
22C0: 859B   STAz 9B hexedit.video4
22C2: 60     RTS
22C3: FFFFFF 
22C6: FF2233 
22C9: ------ hexedit.cursUp
22C9: C699   DECz 99 hexedit.video2
22CB: A9B0   LDAim B0
22CD: D00C   BNE +12>DB
22CF: ------ hexedit.cursDec
22CF: C698   DECz 98 hexedit.videoSpa
22D1: 1006   BPL +6>D9
22D3: A94F   LDAim 4F
22D5: 8598   STAz 98 hexedit.videoSpa
22D7: C699   DECz 99 hexedit.video2
22D9: A9FF   LDAim FF
22DB: 18     CLC
22DC: 659A   ADCz 9A hexedit.video3
22DE: 859A   STAz 9A hexedit.video3
22E0: 9001   BCC +1>E3
22E2: 60     RTS
22E3: C69B   DECz 9B hexedit.video4
22E5: A599   LDAz 99 hexedit.video2
22E7: 3001   BMI +1>EA
22E9: 60     RTS
22EA: 18     CLC
22EB: A59A   LDAz 9A hexedit.video3
22ED: 69D0   ADCim D0
22EF: 859A   STAz 9A hexedit.video3
22F1: A59B   LDAz 9B hexedit.video4
22F3: 6907   ADCim 07
22F5: 859B   STAz 9B hexedit.video4
22F7: A918   LDAim 18
22F9: 8599   STAz 99 hexedit.video2
22FB: 60     RTS
22FC: 33     
22FD: ------ hexedit.cursAdrSql
22FD: A901   LDAim 01
22FF: 859B   STAz 9B hexedit.video4
2301: A599   LDAz 99 hexedit.video2
2303: 0A     ASLa
2304: 0A     ASLa
2305: 18     CLC
2306: 6599   ADCz 99 hexedit.video2
2308: 0A     ASLa
2309: 0A     ASLa
230A: 269B   ROLz 9B hexedit.video4
230C: 0A     ASLa
230D: 269B   ROLz 9B hexedit.video4
230F: 0A     ASLa
2310: 269B   ROLz 9B hexedit.video4
2312: 18     CLC
2313: 6598   ADCz 98 hexedit.videoSpa
2315: 859A   STAz 9A hexedit.video3
2317: 9002   BCC +2>1B
2319: E69B   INCz 9B hexedit.video4
231B: EA     NOP
231C: EA     NOP
231D: ------ hexedit.setCursSql
231D: A20F   LDXim 0F
231F: 8E0004 STX 0400
2322: A59A   LDAz 9A hexedit.video3
2324: 8D0104 STA 0401
2327: CA     DEX
2328: 8E0004 STX 0400
232B: A59B   LDAz 9B hexedit.video4
232D: 2907   ANDim 07
232F: 8D0104 STA 0401
2332: 60     RTS
2333: FFFFFF 
2336: FF2233 
2339: ------ hexedit.setCurs
2339: A002   LDYim 02
233B: 20A525 JSR 25A5 bs.KPUe
233E: 68     PLA
233F: 8599   STAz 99 hexedit.video2
2341: 68     PLA
2342: 8598   STAz 98 hexedit.videoSpa
2344: 20FD22 JSR 22FD hexedit.cursAdrSql
2347: 60     RTS
2348: FFFFFF 
234B: FF2233 
234E: ------ hexedit.WRVideo
234E: 38     SEC
234F: A59A   LDAz 9A hexedit.video3
2351: E598   SBCz 98 hexedit.videoSpa
2353: 859A   STAz 9A hexedit.video3
2355: B002   BCS +2>59
2357: C69B   DECz 9B hexedit.video4
2359: A900   LDAim 00
235B: 8598   STAz 98 hexedit.videoSpa
235D: 201D23 JSR 231D hexedit.setCursSql
2360: 60     RTS
2361: FF2233 
2364: ------ hexedit.Home
2364: A900   LDAim 00
2366: 8598   STAz 98 hexedit.videoSpa
2368: 8599   STAz 99 hexedit.video2
236A: 4CFD22 JMP 22FD hexedit.cursAdrSql
236D: FF2233 
2370: ------ hexedit.clear
2370: 205E22 JSR 225E hexedit.blankVideo
2373: 201D23 JSR 231D hexedit.setCursSql
2376: 60     RTS
2377: 22     
2378: 33     
2379: A002   LDYim 02
237B: 20A525 JSR 25A5 bs.KPUe
237E: 68     PLA
237F: 8561   STAz 61
2381: 68     PLA
2382: 8560   STAz 60
2384: A000   LDYim 00
2386: B160   LDAiy 60
2388: 60     RTS
2389: FF2233 
238C: 48     PHA
238D: A002   LDYim 02
238F: 20A525 JSR 25A5 bs.KPUe
2392: 68     PLA
2393: 8567   STAz 67
2395: 68     PLA
2396: 8566   STAz 66
2398: A000   LDYim 00
239A: 68     PLA
239B: 9166   STAiy 66
239D: 60     RTS
239E: FF2233 
23A1: ------ hexedit.block.rangeIn
23A1: A561   LDAz 61
23A3: C565   CMPz 65
23A5: D004   BNE +4>AB
23A7: A560   LDAz 60
23A9: C564   CMPz 64
23AB: 60     RTS
23AC: FF2233 
23AF: ------ hexedit.block.rangeOut
23AF: A567   LDAz 67
23B1: C56B   CMPz 6B
23B3: D004   BNE +4>B9
23B5: A566   LDAz 66
23B7: C56A   CMPz 6A
23B9: 60     RTS
23BA: FF2233 
23BD: ------ hexedit.block.setCursIn
23BD: A002   LDYim 02
23BF: 20A525 JSR 25A5 bs.KPUe
23C2: 68     PLA
23C3: 8561   STAz 61
23C5: 68     PLA
23C6: 8560   STAz 60
23C8: 60     RTS
23C9: FF2233 
23CC: ------ hexedit.block.setCursOut
23CC: A002   LDYim 02
23CE: 20A525 JSR 25A5 bs.KPUe
23D1: 68     PLA
23D2: 8567   STAz 67
23D4: 68     PLA
23D5: 8566   STAz 66
23D7: 60     RTS
23D8: FF2233 
23DB: ------ hexedit.block.incCursIn
23DB: E660   INCz 60
23DD: D002   BNE +2>E1
23DF: E661   INCz 61
23E1: 60     RTS
23E2: ------ hexedit.block.incCursOut
23E2: E666   INCz 66
23E4: D002   BNE +2>E8
23E6: E667   INCz 67
23E8: 60     RTS
23E9: ------ hexedit.block.initInFile
23E9: A562   LDAz 62
23EB: 8560   STAz 60
23ED: A563   LDAz 63
23EF: 8561   STAz 61
23F1: 60     RTS
23F2: ------ hexedit.block.initOutFile
23F2: A568   LDAz 68
23F4: 8566   STAz 66
23F6: A569   LDAz 69
23F8: 8567   STAz 67
23FA: 60     RTS
23FB: FF2233 
23FE: ------ hexedit.block.readFile
23FE: A000   LDYim 00
2400: 209C1F JSR 1F9C bios.readfileSameBank
2403: E660   INCz 60
2405: D00F   BNE +15>16
2407: F00B   BEQ +11>14
2409: ------ hexedit.block.writeFile
2409: A000   LDYim 00
240B: 9166   STAiy 66
240D: E666   INCz 66
240F: D002   BNE +2>13
2411: E667   INCz 67
2413: 60     RTS
2414: E661   INCz 61
2416: 8A     TXAa
2417: 60     RTS
2418: FFFFFF 
241B: 22     
241C: 33     
241D: ------ hexedit.InMoni
241D: A000   LDYim 00
241F: B19A   LDAiy 9A hexedit.video3
2421: 48     PHA
2422: 208422 JSR 2284 hexedit.cursInc
2425: 201D23 JSR 231D hexedit.setCursSql
2428: 68     PLA
2429: 60     RTS
242A: 33     
242B: ------ hexedit.getHex
242B: 203124 JSR 2431 hexedit.TasteMitWdh
242E: 4C611D JMP 1D61 editor.SCANB
2431: ------ hexedit.TasteMitWdh
2431: 20881D JSR 1D88 monitor.SCAND
2434: F00D   BEQ +13>43
2436: A000   LDYim 00
2438: 88     DEY
2439: D0FD   BNE -3>38
243B: C696   DECz 96
243D: D0F2   BNE -14>31
243F: A90A   LDAim 0A
2441: D002   BNE +2>45
2443: A960   LDAim 60
2445: 8596   STAz 96
2447: 60     RTS
2448: 33     
2449: ------ hexedit.readHex
2449: 202B24 JSR 242B hexedit.getHex
244C: EA     NOP
244D: EA     NOP
244E: EA     NOP
244F: 18     CLC
2450: C90A   CMPim 0A
2452: 9002   BCC +2>56
2454: 6906   ADCim 06
2456: 6930   ADCim 30
2458: 60     RTS
2459: FFFFFF 
245C: FFFF22 
245F: 33     
2460: ------ hexedit.read
2460: 6C041A JMPi 1A04 bs.currentInput
2463: ------ hexedit.write
2463: 6C061A JMPi 1A06 bs.currentOutput
2466: ------ hexedit.openOutVideo
2466: 205022 JSR 2250 hexedit.initVideo
2469: ------ hexedit.openOutVideo2
2469: A905   LDAim 05
246B: A222   LDXim 22
246D: D010   BNE +16>7F
246F: ------ hexedit.openOutStarTty
246F: 200021 JSR 2100 drucker.initStarTtyMode
2472: A900   LDAim 00
2474: A220   LDXim 20
2476: D007   BNE +7>7F
2478: ------ hexedit.openOutFile
2478: 20F223 JSR 23F2 hexedit.block.initOutFile
247B: A909   LDAim 09
247D: A224   LDXim 24
247F: 8D061A STA 1A06 bs.currentOutput
2482: 8E071A STX 1A07
2485: 60     RTS
2486: FFFFFF 
2489: 22     
248A: 33     
248B: ------ hexedit.openInHexKb
248B: 20DD35 JSR 35DD keyb2.initTastatur2AndHex
248E: A9A7   LDAim A7
2490: A235   LDXim 35
2492: D017   BNE +23>AB
2494: FFFFFF 
2497: FFFFFF 
249A: FFFFFF 
249D: FFFFFF 
24A0: FFFF22 
24A3: 33     
24A4: ------ hexedit.openInFile
24A4: 20E923 JSR 23E9 hexedit.block.initInFile
24A7: A9FE   LDAim FE
24A9: A223   LDXim 23
24AB: 8D041A STA 1A04 bs.currentInput
24AE: 8E051A STX 1A05
24B1: 60     RTS
24B2: FFFFFF 
24B5: 22     
24B6: 33     
24B7: ------ hexedit.loescheRestZeileUCursDown
24B7: A94F   LDAim 4F
24B9: 38     SEC
24BA: E598   SBCz 98 hexedit.videoSpa
24BC: A8     TAY
24BD: A920   LDAim 20
24BF: 919A   STAiy 9A hexedit.video3
24C1: 88     DEY
24C2: 10FB   BPL -5>BF
24C4: 209722 JSR 2297 hexedit.cursDown
24C7: 60     RTS
24C8: 33     
24C9: ------ hexedit.2Blanks
24C9: A920   LDAim 20
24CB: 206324 JSR 2463 hexedit.write
24CE: ------ hexedit.Blank
24CE: A920   LDAim 20
24D0: 4C6324 JMP 2463 hexedit.write
24D3: 33     
24D4: ------ hexedit.CR
24D4: A91D   LDAim 1D
24D6: 4C6324 JMP 2463 hexedit.write
24D9: FFFFFF 
24DC: FFFFFF 
24DF: FF2233 
24E2: ------ hexedit.Nibble
24E2: 0930   ORAim 30
24E4: C93A   CMPim 3A
24E6: 3003   BMI +3>EB
24E8: 18     CLC
24E9: 6907   ADCim 07
24EB: 206324 JSR 2463 hexedit.write
24EE: 60     RTS
24EF: ------ hexedit.byteDru
24EF: 48     PHA
24F0: 18     CLC
24F1: 4A     LSRa
24F2: 4A     LSRa
24F3: 4A     LSRa
24F4: 4A     LSRa
24F5: 20E224 JSR 24E2 hexedit.Nibble
24F8: 68     PLA
24F9: 290F   ANDim 0F
24FB: 20E224 JSR 24E2 hexedit.Nibble
24FE: 60     RTS
24FF: FFFF22 
2502: 33     
2503: ------ hexedit.lwriteVonBis
2503: 20D424 JSR 24D4 hexedit.CR
2506: ------ hexedit.writeVonBis
2506: A004   LDYim 04
2508: 20A525 JSR 25A5 bs.KPUe
250B: A003   LDYim 03
250D: 68     PLA
250E: 993100 STAy 0031
2511: 88     DEY
2512: 10F9   BPL -7>0D
2514: ------ hexedit.writeBlock
2514: A000   LDYim 00
2516: B131   LDAiy 31
2518: 206324 JSR 2463 hexedit.write
251B: A531   LDAz 31
251D: C533   CMPz 33
251F: D006   BNE +6>27
2521: A532   LDAz 32
2523: C534   CMPz 34
2525: F008   BEQ +8>2F
2527: E631   INCz 31
2529: D002   BNE +2>2D
252B: E632   INCz 32
252D: D0E5   BNE -27>14
252F: 60     RTS
2530: FF2233 
2533: ------ hexedit.readVonBis
2533: A004   LDYim 04
2535: 20A525 JSR 25A5 bs.KPUe
2538: A003   LDYim 03
253A: 68     PLA
253B: 993100 STAy 0031
253E: 88     DEY
253F: 10F9   BPL -7>3A
2541: 206024 JSR 2460 hexedit.read
2544: A000   LDYim 00
2546: 9131   STAiy 31
2548: A531   LDAz 31
254A: C533   CMPz 33
254C: D006   BNE +6>54
254E: A532   LDAz 32
2550: C534   CMPz 34
2552: F008   BEQ +8>5C
2554: E631   INCz 31
2556: D002   BNE +2>5A
2558: E632   INCz 32
255A: D0E5   BNE -27>41
255C: 60     RTS
255D: FF2233 
2560: ------ dump.dump(unused)
2560: 206B3A JSR 3A6B rkv.initUB
2563: 206F24 JSR 246F hexedit.openOutStarTty
2566: A900   LDAim 00
2568: 8595   STAz 95 hexedit.Prosa
256A: A56E   LDAz 6E hexedit.zeiTty
256C: C93D   CMPim 3D
256E: F0FE   BEQ -2>6E
2570: 20051F JSR 1F05
2573: B0FE   BCS -2>73
2575: A5E7   LDAz E7 editor.CURADH
2577: 20EF24 JSR 24EF hexedit.byteDru
257A: A5E6   LDAz E6 editor.CURADL
257C: 20EF24 JSR 24EF hexedit.byteDru
257F: 20C924 JSR 24C9 hexedit.2Blanks
2582: 209035 JSR 3590
2585: 20D424 JSR 24D4 hexedit.CR
2588: 4C6A25 JMP 256A
258B: FFFFFF 
258E: FFFFFF 
2591: FFFFFF 
2594: FFFFFF 
2597: 22     
2598: 33     
2599: ------ hexedit.Grossbuchstaben
2599: C961   CMPim 61
259B: 9006   BCC +6>A3
259D: C97B   CMPim 7B
259F: B002   BCS +2>A3
25A1: 29DF   ANDim DF
25A3: 60     RTS
25A4: 33     
25A5: ------ bs.KPUe
25A5: 847F   STYz 7F bs.KPUe.saveRY
25A7: 68     PLA
25A8: 8580   STAz 80 bs.KPUe.savePCL
25AA: 68     PLA
25AB: 8581   STAz 81 bs.KPUe.savePCH
25AD: 68     PLA
25AE: 8582   STAz 82 bs.KPUe.adrParamsL
25B0: 68     PLA
25B1: 8583   STAz 83 bs.KPUe.adrParamsH
25B3: 48     PHA
25B4: A582   LDAz 82 bs.KPUe.adrParamsL
25B6: 48     PHA
25B7: BA     TSX
25B8: A000   LDYim 00
25BA: C8     INY
25BB: FE0101 INCx 0101 bs.RetAdrL
25BE: D003   BNE +3>C3
25C0: FE0201 INCx 0102 bs.RetAdrH
25C3: B182   LDAiy 82 bs.KPUe.adrParamsL
25C5: 48     PHA
25C6: C47F   CPYz 7F bs.KPUe.saveRY
25C8: D0F0   BNE -16>BA
25CA: A581   LDAz 81 bs.KPUe.savePCH
25CC: 48     PHA
25CD: A580   LDAz 80 bs.KPUe.savePCL
25CF: 48     PHA
25D0: 60     RTS
25D1: ------ hexedit.writeMoni.continued
25D1: C90D   CMPim 0D
25D3: D003   BNE +3>D8
25D5: 4C4E23 JMP 234E hexedit.WRVideo
25D8: C90B   CMPim 0B
25DA: D007   BNE +7>E3
25DC: 20C922 JSR 22C9 hexedit.cursUp
25DF: 201D23 JSR 231D hexedit.setCursSql
25E2: 60     RTS
25E3: C90C   CMPim 0C
25E5: D006   BNE +6>ED
25E7: 203923 JSR 2339 hexedit.setCurs
25EA: 00     BRK
25EB: 00     BRK
25EC: 60     RTS
25ED: C90E   CMPim 0E
25EF: D004   BNE +4>F5
25F1: 207023 JSR 2370 hexedit.clear
25F4: 60     RTS
25F5: C91D   CMPim 1D
25F7: D006   BNE +6>FF
25F9: 20B724 JSR 24B7 hexedit.loescheRestZeileUCursDown
25FC: 204E23 JSR 234E hexedit.WRVideo
25FF: 60     RTS
2600: ------ hexedit.decoder
2600: A001   LDYim 01
2602: B148   LDAiy 48 hexedit.da.adrL
2604: 8542   STAz 42 hexedit.da.laenge
2606: A000   LDYim 00
2608: B148   LDAiy 48 hexedit.da.adrL
260A: 2544   ANDz 44 hexedit.da.opcode
260C: C642   DECz 42 hexedit.da.laenge
260E: 3004   BMI +4>14
2610: 4A     LSRa
2611: 4C0C26 JMP 260C
2614: 8541   STAz 41 hexedit.da.nr
2616: EA     NOP
2617: EA     NOP
2618: EA     NOP
2619: A002   LDYim 02
261B: B148   LDAiy 48 hexedit.da.adrL
261D: 8542   STAz 42 hexedit.da.laenge
261F: A906   LDAim 06
2621: 18     CLC
2622: 6541   ADCz 41 hexedit.da.nr
2624: C642   DECz 42 hexedit.da.laenge
2626: D0F9   BNE -7>21
2628: A8     TAY
2629: B148   LDAiy 48 hexedit.da.adrL
262B: C9FF   CMPim FF
262D: D003   BNE +3>32
262F: 8543   STAz 43 hexedit.da.fehler
2631: 60     RTS
2632: 8545   STAz 45 hexedit.da.erstes
2634: C8     INY
2635: B148   LDAiy 48 hexedit.da.adrL
2637: 8546   STAz 46 hexedit.da.zweites
2639: C8     INY
263A: B148   LDAiy 48 hexedit.da.adrL
263C: 8547   STAz 47 hexedit.da.drittes
263E: 60     RTS
263F: 33     
2640: ------ hexedit.sucheInET
2640: A000   LDYim 00
2642: B148   LDAiy 48 hexedit.da.adrL
2644: 8542   STAz 42 hexedit.da.laenge
2646: C8     INY
2647: B148   LDAiy 48 hexedit.da.adrL
2649: 2544   ANDz 44 hexedit.da.opcode
264B: C8     INY
264C: D148   CMPiy 48 hexedit.da.adrL
264E: F00A   BEQ +10>5A
2650: C8     INY
2651: C442   CPYz 42 hexedit.da.laenge
2653: 30F1   BMI -15>46
2655: A900   LDAim 00
2657: 8541   STAz 41 hexedit.da.nr
2659: 60     RTS
265A: C8     INY
265B: B148   LDAiy 48 hexedit.da.adrL
265D: 8541   STAz 41 hexedit.da.nr
265F: 60     RTS
2660: FFFFFF 
2663: FFFFFF 
2666: 22     
2667: 33     
2668: ------ hexedit.suche
2668: A900   LDAim 00
266A: 8543   STAz 43 hexedit.da.fehler
266C: 204026 JSR 2640 hexedit.sucheInET
266F: A541   LDAz 41 hexedit.da.nr
2671: D005   BNE +5>78
2673: A9FF   LDAim FF
2675: 8543   STAz 43 hexedit.da.fehler
2677: 60     RTS
2678: 0A     ASLa
2679: 18     CLC
267A: 6541   ADCz 41 hexedit.da.nr
267C: AA     TAX
267D: A541   LDAz 41 hexedit.da.nr
267F: C90A   CMPim 0A
2681: 1010   BPL +16>93
2683: BD3030 LDAx 3030
2686: 8545   STAz 45 hexedit.da.erstes
2688: BD3130 LDAx 3031
268B: 8546   STAz 46 hexedit.da.zweites
268D: BD3230 LDAx 3032
2690: 8547   STAz 47 hexedit.da.drittes
2692: 60     RTS
2693: BD3030 LDAx 3030
2696: 8548   STAz 48 hexedit.da.adrL
2698: BD3130 LDAx 3031
269B: 8549   STAz 49 hexedit.da.adrH
269D: 200026 JSR 2600 hexedit.decoder
26A0: 60     RTS
26A1: FFFFFF 
26A4: FFFF22 
26A7: 33     
26A8: ------ hexedit.disAssembler
26A8: 20CE24 JSR 24CE hexedit.Blank
26AB: A598   LDAz 98 hexedit.videoSpa
26AD: C90D   CMPim 0D
26AF: F006   BEQ +6>B7
26B1: A56D   LDAz 6D hexedit.spaTty
26B3: C90E   CMPim 0E
26B5: D0F1   BNE -15>A8
26B7: A9B8   LDAim B8
26B9: 8548   STAz 48 hexedit.da.adrL
26BB: A931   LDAim 31
26BD: 8549   STAz 49 hexedit.da.adrH
26BF: 206826 JSR 2668 hexedit.suche
26C2: A543   LDAz 43 hexedit.da.fehler
26C4: F001   BEQ +1>C7
26C6: 60     RTS
26C7: A545   LDAz 45 hexedit.da.erstes
26C9: 206324 JSR 2463 hexedit.write
26CC: A546   LDAz 46 hexedit.da.zweites
26CE: 206324 JSR 2463 hexedit.write
26D1: A547   LDAz 47 hexedit.da.drittes
26D3: 206324 JSR 2463 hexedit.write
26D6: A9D0   LDAim D0
26D8: 8548   STAz 48 hexedit.da.adrL
26DA: A931   LDAim 31
26DC: 8549   STAz 49 hexedit.da.adrH
26DE: 206826 JSR 2668 hexedit.suche
26E1: A545   LDAz 45 hexedit.da.erstes
26E3: C920   CMPim 20
26E5: F00F   BEQ +15>F6
26E7: 206324 JSR 2463 hexedit.write
26EA: A546   LDAz 46 hexedit.da.zweites
26EC: C920   CMPim 20
26EE: F003   BEQ +3>F3
26F0: 206324 JSR 2463 hexedit.write
26F3: 60     RTS
26F4: 22     
26F5: 33     
26F6: ------ hexedit.testDisAssembler
26F6: A544   LDAz 44 hexedit.da.opcode
26F8: 291F   ANDim 1F
26FA: C910   CMPim 10
26FC: F001   BEQ +1>FF
26FE: 60     RTS
26FF: 20CE24 JSR 24CE hexedit.Blank
2702: C6E7   DECz E7 editor.CURADH
2704: A0FF   LDYim FF
2706: B1E6   LDAiy E6 editor.CURADL
2708: E6E7   INCz E7 editor.CURADH
270A: 18     CLC
270B: 65E6   ADCz E6 editor.CURADL
270D: 20EF24 JSR 24EF hexedit.byteDru
2710: 60     RTS
2711: FFFFFF 
2714: FFFF22 
2717: 33     
2718: FFFF02 ---- text data
271B: 68686868 68686868 68686868 68686868  'hhhhhhhhhhhhhhhh'
272B: 68686868 68686868 68686868 6868 'hhhhhhhhhhhhhh'
2739: 03     
273A: 00     BRK
273B: FFFFFF 
273E: 00     BRK
273F: 00     BRK
2740: 203923 JSR 2339 hexedit.setCurs
2743: 3000   BMI +0>45
2745: A5CB   LDAz CB bs.Transfer3.vonH
2747: 20EF24 JSR 24EF hexedit.byteDru
274A: A5CA   LDAz CA bs.Transfer3.vonL
274C: 20EF24 JSR 24EF hexedit.byteDru
274F: 20CE24 JSR 24CE hexedit.Blank
2752: A5CD   LDAz CD bs.Transfer3.bisH
2754: 20EF24 JSR 24EF hexedit.byteDru
2757: A5CC   LDAz CC bs.Transfer3.bisL
2759: 20EF24 JSR 24EF hexedit.byteDru
275C: 20CE24 JSR 24CE hexedit.Blank
275F: A5CF   LDAz CF bs.Transfer3.nachH
2761: 20EF24 JSR 24EF hexedit.byteDru
2764: A5CE   LDAz CE bs.Transfer3.nachL
2766: 20EF24 JSR 24EF hexedit.byteDru
2769: 60     RTS
276A: 00     BRK
276B: 00     BRK
276C: 00     BRK
276D: 00     BRK
276E: 00     BRK
276F: 00     BRK
2770: ------ hexedit.TestUndTransfer
2770: A5CA   LDAz CA bs.Transfer3.vonL
2772: C5CC   CMPz CC bs.Transfer3.bisL
2774: A5CB   LDAz CB bs.Transfer3.vonH
2776: E5CD   SBCz CD bs.Transfer3.bisH
2778: B003   BCS +3>7D
277A: 20403E JSR 3E40 hexedit.Transfer2
277D: 60     RTS
277E: 33     
277F: 207027 JSR 2770 hexedit.TestUndTransfer
2782: A65B   LDXz 5B bs.neueZeitH
2784: BDB003 LDAx 03B0 hexedit.arrProsa
2787: 9009   BCC +9>92
2789: A048   LDYim 48
278B: A900   LDAim 00
278D: 91CE   STAiy CE bs.Transfer3.nachL
278F: 88     DEY
2790: D0FB   BNE -5>8D
2792: 20452D JSR 2D45 hexedit.BerechneUDisplay
2795: 60     RTS
2796: 22     
2797: 33     
2798: ------ hexedit.LineDel
2798: A557   LDAz 57 bs.topWait
279A: F001   BEQ +1>9D
279C: 60     RTS
279D: 201028 JSR 2810
27A0: A5FA   LDAz FA monitor.POINTL
27A2: 85CE   STAz CE bs.Transfer3.nachL
27A4: 18     CLC
27A5: 6948   ADCim 48
27A7: 85CA   STAz CA bs.Transfer3.vonL
27A9: A5FB   LDAz FB monitor.POINTH
27AB: 85CF   STAz CF bs.Transfer3.nachH
27AD: 6900   ADCim 00
27AF: 85CB   STAz CB bs.Transfer3.vonH
27B1: 4C7F27 JMP 277F
27B4: FFFFFF 
27B7: FFFF22 
27BA: 33     
27BB: ------ hexedit.LineIns
27BB: A557   LDAz 57 bs.topWait
27BD: F001   BEQ +1>C0
27BF: 60     RTS
27C0: 201028 JSR 2810
27C3: A5CC   LDAz CC bs.Transfer3.bisL
27C5: 38     SEC
27C6: E948   SBCim 48
27C8: 85CC   STAz CC bs.Transfer3.bisL
27CA: B002   BCS +2>CE
27CC: C6CD   DECz CD bs.Transfer3.bisH
27CE: A5FA   LDAz FA monitor.POINTL
27D0: 85CA   STAz CA bs.Transfer3.vonL
27D2: 18     CLC
27D3: 6948   ADCim 48
27D5: 85CE   STAz CE bs.Transfer3.nachL
27D7: A5FB   LDAz FB monitor.POINTH
27D9: 85CB   STAz CB bs.Transfer3.vonH
27DB: 6900   ADCim 00
27DD: 85CF   STAz CF bs.Transfer3.nachH
27DF: 207027 JSR 2770 hexedit.TestUndTransfer
27E2: A65B   LDXz 5B bs.neueZeitH
27E4: BDB003 LDAx 03B0 hexedit.arrProsa
27E7: 9009   BCC +9>F2
27E9: A047   LDYim 47
27EB: A900   LDAim 00
27ED: 91CA   STAiy CA bs.Transfer3.vonL
27EF: 88     DEY
27F0: 10FB   BPL -5>ED
27F2: 20452D JSR 2D45 hexedit.BerechneUDisplay
27F5: 60     RTS
27F6: FFFFFF 
27F9: FFFFFF 
27FC: FFFFFF 
27FF: FFFFFF 
2802: FFFFFF 
2805: FFFFFF 
2808: FFFFFF 
280B: FFFFFF 
280E: 22     
280F: 33     
2810: A018   LDYim 18
2812: D002   BNE +2>16
2814: ------ hexedit.berechneBis
2814: A499   LDYz 99 hexedit.video2
2816: C8     INY
2817: A699   LDXz 99 hexedit.video2
2819: BDB003 LDAx 03B0 hexedit.arrProsa
281C: F01C   BEQ +28>3A
281E: A55E   LDAz 5E bs.breakZeitL
2820: D97E03 CMPy 037E hexedit.arrZeiNrL
2823: A55F   LDAz 5F bs.breakZeitH
2825: F99703 SBCy 0397 hexedit.arrZeiNrH
2828: 9010   BCC +16>3A
282A: B97E03 LDAy 037E hexedit.arrZeiNrL
282D: 38     SEC
282E: E901   SBCim 01
2830: 85CC   STAz CC bs.Transfer3.bisL
2832: B99703 LDAy 0397 hexedit.arrZeiNrH
2835: E900   SBCim 00
2837: 85CD   STAz CD bs.Transfer3.bisH
2839: 60     RTS
283A: A55E   LDAz 5E bs.breakZeitL
283C: 85CC   STAz CC bs.Transfer3.bisL
283E: A55F   LDAz 5F bs.breakZeitH
2840: 85CD   STAz CD bs.Transfer3.bisH
2842: 60     RTS
2843: FFFFFF 
2846: FFFFFF 
2849: 22     
284A: 33     
284B: ------ hexedit.INS
284B: A557   LDAz 57 bs.topWait
284D: F001   BEQ +1>50
284F: 60     RTS
2850: 203A28 JSR 283A
2853: A5CC   LDAz CC bs.Transfer3.bisL
2855: D002   BNE +2>59
2857: C6CD   DECz CD bs.Transfer3.bisH
2859: C6CC   DECz CC bs.Transfer3.bisL
285B: A6FA   LDXz FA monitor.POINTL
285D: 86CA   STXz CA bs.Transfer3.vonL
285F: A4FB   LDYz FB monitor.POINTH
2861: 84CB   STYz CB bs.Transfer3.vonH
2863: E8     INX
2864: D001   BNE +1>67
2866: C8     INY
2867: 86CE   STXz CE bs.Transfer3.nachL
2869: 84CF   STYz CF bs.Transfer3.nachH
286B: 207027 JSR 2770 hexedit.TestUndTransfer
286E: 20452D JSR 2D45 hexedit.BerechneUDisplay
2871: 60     RTS
2872: FFFFFF 
2875: FFFFFF 
2878: FFFFFF 
287B: FFFFFF 
287E: FFFFFF 
2881: FFFF22 
2884: 33     
2885: ------ hexedit.Delete
2885: A557   LDAz 57 bs.topWait
2887: F001   BEQ +1>8A
2889: 60     RTS
288A: 203A28 JSR 283A
288D: A6FA   LDXz FA monitor.POINTL
288F: 86CE   STXz CE bs.Transfer3.nachL
2891: A4FB   LDYz FB monitor.POINTH
2893: 84CF   STYz CF bs.Transfer3.nachH
2895: E8     INX
2896: D001   BNE +1>99
2898: C8     INY
2899: 86CA   STXz CA bs.Transfer3.vonL
289B: 84CB   STYz CB bs.Transfer3.vonH
289D: 4C6B28 JMP 286B
28A0: ------ hexedit.zeigeAusser
28A0: A557   LDAz 57 bs.topWait
28A2: F013   BEQ +19>B7
28A4: ADA00F LDA 0FA0
28A7: C941   CMPim 41
28A9: F00C   BEQ +12>B7
28AB: 201029 JSR 2910 hexedit.copy
28AE: 4B     
28AF: 2954   ANDim 54
28B1: 291A   ANDim 1A
28B3: 18     CLC
28B4: 4CC728 JMP 28C7
28B7: ADA00F LDA 0FA0
28BA: C920   CMPim 20
28BC: F007   BEQ +7>C5
28BE: 201029 JSR 2910 hexedit.copy
28C1: D00F   BNE +15>D2
28C3: D90F1A CMPy 1A0F
28C6: 18     CLC
28C7: 60     RTS
28C8: FFFFFF 
28CB: FFFFFF 
28CE: 22     
28CF: 33     
28D0: ------ hexedit.grenzeAendern
28D0: 201029 JSR 2910 hexedit.copy
28D3: 57     
28D4: 295E   ANDim 5E
28D6: 2930   ANDim 30
28D8: 18     CLC
28D9: 20D82B JSR 2BD8 hexedit.GetByte
28DC: B00D   BCS +13>EB
28DE: 858B   STAz 8B bs.RXSave
28E0: 20D82B JSR 2BD8 hexedit.GetByte
28E3: B006   BCS +6>EB
28E5: 855E   STAz 5E bs.breakZeitL
28E7: A58B   LDAz 8B bs.RXSave
28E9: 855F   STAz 5F bs.breakZeitH
28EB: 20482D JSR 2D48 hexedit.displayuC
28EE: 60     RTS
28EF: FFFFFF 
28F2: FFFFFF 
28F5: FFFFFF 
28F8: FFFFFF 
28FB: FFFFFF 
28FE: FFFFFF 
2901: FFFFFF 
2904: FFFFFF 
2907: FFFFFF 
290A: FFFFFF 
290D: FF2233 
2910: ------ hexedit.copy
2910: A006   LDYim 06
2912: 20A525 JSR 25A5 bs.KPUe
2915: A901   LDAim 01
2917: 85CF   STAz CF bs.Transfer3.nachH
2919: 68     PLA
291A: 85CE   STAz CE bs.Transfer3.nachL
291C: 0A     ASLa
291D: 0A     ASLa
291E: 18     CLC
291F: 65CE   ADCz CE bs.Transfer3.nachL
2921: 0A     ASLa
2922: 0A     ASLa
2923: 26CF   ROLz CF bs.Transfer3.nachH
2925: 0A     ASLa
2926: 26CF   ROLz CF bs.Transfer3.nachH
2928: 0A     ASLa
2929: 26CF   ROLz CF bs.Transfer3.nachH
292B: 85CE   STAz CE bs.Transfer3.nachL
292D: 68     PLA
292E: 18     CLC
292F: 65CE   ADCz CE bs.Transfer3.nachL
2931: 85CE   STAz CE bs.Transfer3.nachL
2933: 9002   BCC +2>37
2935: E6CF   INCz CF bs.Transfer3.nachH
2937: A003   LDYim 03
2939: 68     PLA
293A: 99CA00 STAy 00CA bs.Transfer3.vonL
293D: 88     DEY
293E: 10F9   BPL -7>39
2940: 20403E JSR 3E40 hexedit.Transfer2
2943: 60     RTS
2944: FFFF22 
2947: 33     
2948: FFFF02 ---- text data
294B: 61757373 65726861 6C622020 61656E64  'ausserhalb  aend'
295B: 65726520 61647265 73736520 68617264  'ere adresse hard'
296B: 636F7079  'copy'
296F: 03     
2970: FFFFFF 
2973: FFFFFF 
2976: 22     
2977: 33     
2978: ------ hexedit.hardcopy
2978: 201029 JSR 2910 hexedit.copy
297B: 67     
297C: 296E   ANDim 6E
297E: 2930   ANDim 30
2980: 18     CLC
2981: EA     NOP
2982: EA     NOP
2983: EA     NOP
2984: 206F24 JSR 246F hexedit.openOutStarTty
2987: A900   LDAim 00
2989: 85E6   STAz E6 editor.CURADL
298B: A908   LDAim 08
298D: 85E7   STAz E7 editor.CURADH
298F: A04F   LDYim 4F
2991: B1E6   LDAiy E6 editor.CURADL
2993: C920   CMPim 20
2995: D003   BNE +3>9A
2997: 88     DEY
2998: D0F7   BNE -9>91
299A: C8     INY
299B: EA     NOP
299C: 8456   STYz 56 hexedit.helpH
299E: A000   LDYim 00
29A0: 8455   STYz 55 hexedit.helpL
29A2: A455   LDYz 55 hexedit.helpL
29A4: C456   CPYz 56 hexedit.helpH
29A6: F00A   BEQ +10>B2
29A8: B1E6   LDAiy E6 editor.CURADL
29AA: 206324 JSR 2463 hexedit.write
29AD: E655   INCz 55 hexedit.helpL
29AF: 4CA229 JMP 29A2
29B2: 20D424 JSR 24D4 hexedit.CR
29B5: A5E6   LDAz E6 editor.CURADL
29B7: 18     CLC
29B8: 6950   ADCim 50
29BA: 85E6   STAz E6 editor.CURADL
29BC: 9002   BCC +2>C0
29BE: E6E7   INCz E7 editor.CURADH
29C0: C9D0   CMPim D0
29C2: D004   BNE +4>C8
29C4: A5E7   LDAz E7 editor.CURADH
29C6: C90F   CMPim 0F
29C8: D0C5   BNE -59>8F
29CA: 206924 JSR 2469 hexedit.openOutVideo2
29CD: 201029 JSR 2910 hexedit.copy
29D0: D00F   BNE +15>E1
29D2: D7     
29D3: 0F     
29D4: 3018   BMI +24>EE
29D6: 60     RTS
29D7: FFFFFF 
29DA: FFFFFF 
29DD: FFFFFF 
29E0: FFFFFF 
29E3: FFFFFF 
29E6: FFFFFF 
29E9: FFFFFF 
29EC: FFFFFF 
29EF: FFFFFF 
29F2: FFFFFF 
29F5: FFFFFF 
29F8: FFFFFF 
29FB: FFFFFF 
29FE: FFFFFF 
2A01: FFFFFF 
2A04: FFFFFF 
2A07: FFFFFF 
2A0A: FFFFFF 
2A0D: FFFFFF 
2A10: FFFFFF 
2A13: FFFFFF 
2A16: FFFFFF 
2A19: FFFFFF 
2A1C: FFFFFF 
2A1F: FFFFFF 
2A22: FFFFFF 
2A25: FFFFFF 
2A28: FFFFFF 
2A2B: FFFFFF 
2A2E: FFFFFF 
2A31: FFFFFF 
2A34: FFFFFF 
2A37: FFFFFF 
2A3A: FFFFFF 
2A3D: FFFFFF 
2A40: FFFFFF 
2A43: FFFFFF 
2A46: FFFFFF 
2A49: FFFFFF 
2A4C: FFFFFF 
2A4F: FFFFFF 
2A52: FFFFFF 
2A55: FFFFFF 
2A58: FFFFFF 
2A5B: FFFFFF 
2A5E: FFFFFF 
2A61: FFFFFF 
2A64: FFFFFF 
2A67: FFFFFF 
2A6A: FFFFFF 
2A6D: FFFFFF 
2A70: FFFFFF 
2A73: FFFFFF 
2A76: FFFFFF 
2A79: FFFFFF 
2A7C: FFFFFF 
2A7F: FFFFFF 
2A82: FFFFFF 
2A85: FFFFFF 
2A88: FFFFFF 
2A8B: FFFFFF 
2A8E: 22     
2A8F: 33     
2A90: ------ hexedit.Adr
2A90: 201029 JSR 2910 hexedit.copy
2A93: 5F     
2A94: 2966   ANDim 66
2A96: 2930   ANDim 30
2A98: 18     CLC
2A99: 20D82B JSR 2BD8 hexedit.GetByte
2A9C: B020   BCS +32>BE
2A9E: 48     PHA
2A9F: 20D82B JSR 2BD8 hexedit.GetByte
2AA2: B02E   BCS +46>D2
2AA4: EA     NOP
2AA5: EA     NOP
2AA6: 8D7E03 STA 037E hexedit.arrZeiNrL
2AA9: EA     NOP
2AAA: 68     PLA
2AAB: 8D9703 STA 0397 hexedit.arrZeiNrH
2AAE: A900   LDAim 00
2AB0: 8DB003 STA 03B0 hexedit.arrProsa
2AB3: 20042C JSR 2C04 hexedit.berechneZeiNrAb0
2AB6: 20502D JSR 2D50 hexedit.display
2AB9: 20E82A JSR 2AE8 hexedit.home
2ABC: 18     CLC
2ABD: 60     RTS
2ABE: C912   CMPim 12
2AC0: D006   BNE +6>C8
2AC2: 20002B JSR 2B00 hexedit.Blaettern
2AC5: 4CB92A JMP 2AB9
2AC8: C911   CMPim 11
2ACA: D007   BNE +7>D3
2ACC: 20602B JSR 2B60 hexedit.reBlaettern
2ACF: 4CB92A JMP 2AB9
2AD2: 68     PLA
2AD3: 201029 JSR 2910 hexedit.copy
2AD6: D00F   BNE +15>E7
2AD8: D7     
2AD9: 0F     
2ADA: 3018   BMI +24>F4
2ADC: 38     SEC
2ADD: 60     RTS
2ADE: FFFFFF 
2AE1: FFFFFF 
2AE4: FFFF22 
2AE7: 33     
2AE8: ------ hexedit.home
2AE8: 203923 JSR 2339 hexedit.setCurs
2AEB: 0600   ASLz 00
2AED: AD7E03 LDA 037E hexedit.arrZeiNrL
2AF0: 85FA   STAz FA monitor.POINTL
2AF2: AD9703 LDA 0397 hexedit.arrZeiNrH
2AF5: 85FB   STAz FB monitor.POINTH
2AF7: A900   LDAim 00
2AF9: 8557   STAz 57 bs.topWait
2AFB: 20A028 JSR 28A0 hexedit.zeigeAusser
2AFE: 60     RTS
2AFF: 33     
2B00: ------ hexedit.Blaettern
2B00: AD9503 LDA 0395
2B03: 8D7E03 STA 037E hexedit.arrZeiNrL
2B06: ADAE03 LDA 03AE
2B09: 8D9703 STA 0397 hexedit.arrZeiNrH
2B0C: ADC703 LDA 03C7
2B0F: 8DB003 STA 03B0 hexedit.arrProsa
2B12: 20452D JSR 2D45 hexedit.BerechneUDisplay
2B15: 60     RTS
2B16: FFFFFF 
2B19: FFFFFF 
2B1C: FFFF22 
2B1F: 33     
2B20: ------ hexedit.PlusmBl
2B20: A557   LDAz 57 bs.topWait
2B22: F001   BEQ +1>25
2B24: 60     RTS
2B25: E6FA   INCz FA monitor.POINTL
2B27: D002   BNE +2>2B
2B29: E6FB   INCz FB monitor.POINTH
2B2B: 20E02C JSR 2CE0 hexedit.cursFromPointPlusZeige
2B2E: A557   LDAz 57 bs.topWait
2B30: F003   BEQ +3>35
2B32: 20002B JSR 2B00 hexedit.Blaettern
2B35: 60     RTS
2B36: FFFFFF 
2B39: FFFFFF 
2B3C: FFFFFF 
2B3F: FFFF22 
2B42: 33     
2B43: ------ hexedit.MinusmBl
2B43: A557   LDAz 57 bs.topWait
2B45: F001   BEQ +1>48
2B47: 60     RTS
2B48: A5FA   LDAz FA monitor.POINTL
2B4A: D002   BNE +2>4E
2B4C: C6FB   DECz FB monitor.POINTH
2B4E: C6FA   DECz FA monitor.POINTL
2B50: 20E02C JSR 2CE0 hexedit.cursFromPointPlusZeige
2B53: A557   LDAz 57 bs.topWait
2B55: F003   BEQ +3>5A
2B57: 20602B JSR 2B60 hexedit.reBlaettern
2B5A: 60     RTS
2B5B: FFFFFF 
2B5E: 22     
2B5F: 33     
2B60: ------ hexedit.reBlaettern
2B60: AD7E03 LDA 037E hexedit.arrZeiNrL
2B63: 8558   STAz 58 bs.aktZeitL
2B65: EA     NOP
2B66: EA     NOP
2B67: EA     NOP
2B68: EA     NOP
2B69: EA     NOP
2B6A: 38     SEC
2B6B: AD9703 LDA 0397 hexedit.arrZeiNrH
2B6E: 8559   STAz 59 bs.aktZeitH
2B70: E902   SBCim 02
2B72: 8D9703 STA 0397 hexedit.arrZeiNrH
2B75: A900   LDAim 00
2B77: 8595   STAz 95 hexedit.Prosa
2B79: 20042C JSR 2C04 hexedit.berechneZeiNrAb0
2B7C: EA     NOP
2B7D: EA     NOP
2B7E: EA     NOP
2B7F: A559   LDAz 59 bs.aktZeitH
2B81: CDAF03 CMP 03AF
2B84: 9028   BCC +40>AE
2B86: D007   BNE +7>8F
2B88: A558   LDAz 58 bs.aktZeitL
2B8A: CD9603 CMP 0396
2B8D: 901F   BCC +31>AE
2B8F: A200   LDXim 00
2B91: BD7F03 LDAx 037F
2B94: 9D7E03 STAx 037E hexedit.arrZeiNrL
2B97: BD9803 LDAx 0398
2B9A: 9D9703 STAx 0397 hexedit.arrZeiNrH
2B9D: BDB103 LDAx 03B1
2BA0: 9DB003 STAx 03B0 hexedit.arrProsa
2BA3: E8     INX
2BA4: E018   CPXim 18
2BA6: D0E9   BNE -23>91
2BA8: 20002C JSR 2C00 hexedit.berechneZeiNrAb23
2BAB: 4C7C2B JMP 2B7C
2BAE: 20482D JSR 2D48 hexedit.displayuC
2BB1: 60     RTS
2BB2: FFFFFF 
2BB5: FFFFFF 
2BB8: FFFFFF 
2BBB: FFFFFF 
2BBE: 22     
2BBF: 33     
2BC0: ------ hexedit.nibble
2BC0: 206024 JSR 2460 hexedit.read
2BC3: 9001   BCC +1>C6
2BC5: 60     RTS
2BC6: ------ hexedit.wandle
2BC6: C941   CMPim 41
2BC8: 9002   BCC +2>CC
2BCA: E907   SBCim 07
2BCC: 38     SEC
2BCD: E930   SBCim 30
2BCF: 18     CLC
2BD0: 60     RTS
2BD1: FFFFFF 
2BD4: FFFF22 
2BD7: 33     
2BD8: ------ hexedit.GetByte
2BD8: 20C02B JSR 2BC0 hexedit.nibble
2BDB: 9001   BCC +1>DE
2BDD: 60     RTS
2BDE: C910   CMPim 10
2BE0: 9001   BCC +1>E3
2BE2: 60     RTS
2BE3: ------ hexedit.RestByte
2BE3: 0A     ASLa
2BE4: 0A     ASLa
2BE5: 0A     ASLa
2BE6: 0A     ASLa
2BE7: 85FE   STAz FE editor.NIBBLE
2BE9: 20C02B JSR 2BC0 hexedit.nibble
2BEC: 9001   BCC +1>EF
2BEE: 60     RTS
2BEF: C910   CMPim 10
2BF1: 9001   BCC +1>F4
2BF3: 60     RTS
2BF4: 05FE   ORAz FE editor.NIBBLE
2BF6: 60     RTS
2BF7: FFFFFF 
2BFA: FFFFFF 
2BFD: FF2233 
2C00: ------ hexedit.berechneZeiNrAb23
2C00: A217   LDXim 17
2C02: D002   BNE +2>06
2C04: ------ hexedit.berechneZeiNrAb0
2C04: A200   LDXim 00
2C06: ------ hexedit.berechneZeiNrAbRx
2C06: 865B   STXz 5B bs.neueZeitH
2C08: BD7E03 LDAx 037E hexedit.arrZeiNrL
2C0B: 855C   STAz 5C bs.uhrZeitL
2C0D: BD9703 LDAx 0397 hexedit.arrZeiNrH
2C10: 855D   STAz 5D bs.uhrZeitH
2C12: BDB003 LDAx 03B0 hexedit.arrProsa
2C15: 8595   STAz 95 hexedit.Prosa
2C17: A595   LDAz 95 hexedit.Prosa
2C19: F02B   BEQ +43>46
2C1B: A948   LDAim 48
2C1D: 85F6   STAz F6 monitor.BYTES
2C1F: EA     NOP
2C20: A000   LDYim 00
2C22: B15C   LDAiy 5C bs.uhrZeitL
2C24: C903   CMPim 03
2C26: F011   BEQ +17>39
2C28: C91D   CMPim 1D
2C2A: F011   BEQ +17>3D
2C2C: C6F6   DECz F6 monitor.BYTES
2C2E: F00D   BEQ +13>3D
2C30: E65C   INCz 5C bs.uhrZeitL
2C32: D0EB   BNE -21>1F
2C34: E65D   INCz 5D bs.uhrZeitH
2C36: 4C1F2C JMP 2C1F
2C39: A900   LDAim 00
2C3B: 8595   STAz 95 hexedit.Prosa
2C3D: E65C   INCz 5C bs.uhrZeitL
2C3F: D002   BNE +2>43
2C41: E65D   INCz 5D bs.uhrZeitH
2C43: 4C6A2C JMP 2C6A
2C46: A200   LDXim 00
2C48: A15C   LDAix 5C bs.uhrZeitL
2C4A: C9FF   CMPim FF
2C4C: D00A   BNE +10>58
2C4E: A002   LDYim 02
2C50: B15C   LDAiy 5C bs.uhrZeitL
2C52: C902   CMPim 02
2C54: D002   BNE +2>58
2C56: E695   INCz 95 hexedit.Prosa
2C58: A200   LDXim 00
2C5A: A15C   LDAix 5C bs.uhrZeitL
2C5C: 20601E JSR 1E60 editor.OPLEN2
2C5F: A55C   LDAz 5C bs.uhrZeitL
2C61: 18     CLC
2C62: 65F6   ADCz F6 monitor.BYTES
2C64: 855C   STAz 5C bs.uhrZeitL
2C66: 9002   BCC +2>6A
2C68: E65D   INCz 5D bs.uhrZeitH
2C6A: E65B   INCz 5B bs.neueZeitH
2C6C: A65B   LDXz 5B bs.neueZeitH
2C6E: A55C   LDAz 5C bs.uhrZeitL
2C70: 9D7E03 STAx 037E hexedit.arrZeiNrL
2C73: A55D   LDAz 5D bs.uhrZeitH
2C75: 9D9703 STAx 0397 hexedit.arrZeiNrH
2C78: A595   LDAz 95 hexedit.Prosa
2C7A: 9DB003 STAx 03B0 hexedit.arrProsa
2C7D: E018   CPXim 18
2C7F: D096   BNE -106>17
2C81: 60     RTS
2C82: FFFFFF 
2C85: FFFFFF 
2C88: FFFFFF 
2C8B: FFFFFF 
2C8E: FFFFFF 
2C91: FFFFFF 
2C94: FFFFFF 
2C97: FFFFFF 
2C9A: FFFFFF 
2C9D: FF2233 
2CA0: ------ hexedit.restZeile
2CA0: A65B   LDXz 5B bs.neueZeitH
2CA2: BDB003 LDAx 03B0 hexedit.arrProsa
2CA5: 8595   STAz 95 hexedit.Prosa
2CA7: A200   LDXim 00
2CA9: A1E6   LDAix E6 editor.CURADL
2CAB: 8544   STAz 44 hexedit.da.opcode
2CAD: A200   LDXim 00
2CAF: A1E6   LDAix E6 editor.CURADL
2CB1: A695   LDXz 95 hexedit.Prosa
2CB3: D006   BNE +6>BB
2CB5: 20EF24 JSR 24EF hexedit.byteDru
2CB8: 4CBE2C JMP 2CBE
2CBB: 206324 JSR 2463 hexedit.write
2CBE: 20903C JSR 3C90 hexedit.nextCurAd
2CC1: A65B   LDXz 5B bs.neueZeitH
2CC3: E8     INX
2CC4: A5E6   LDAz E6 editor.CURADL
2CC6: DD7E03 CMPx 037E hexedit.arrZeiNrL
2CC9: D0E2   BNE -30>AD
2CCB: A5E7   LDAz E7 editor.CURADH
2CCD: DD9703 CMPx 0397 hexedit.arrZeiNrH
2CD0: D0DB   BNE -37>AD
2CD2: A595   LDAz 95 hexedit.Prosa
2CD4: D003   BNE +3>D9
2CD6: 20A826 JSR 26A8 hexedit.disAssembler
2CD9: 60     RTS
2CDA: FFFFFF 
2CDD: FF2233 
2CE0: ------ hexedit.cursFromPointPlusZeige
2CE0: 20E82C JSR 2CE8 hexedit.cursFromPoint
2CE3: 20A028 JSR 28A0 hexedit.zeigeAusser
2CE6: 60     RTS
2CE7: 00     BRK
2CE8: ------ hexedit.cursFromPoint
2CE8: A900   LDAim 00
2CEA: 8557   STAz 57 bs.topWait
2CEC: A200   LDXim 00
2CEE: BD9703 LDAx 0397 hexedit.arrZeiNrH
2CF1: C5FB   CMPz FB monitor.POINTH
2CF3: 900E   BCC +14>03
2CF5: F003   BEQ +3>FA
2CF7: E657   INCz 57 bs.topWait
2CF9: 60     RTS
2CFA: BD7E03 LDAx 037E hexedit.arrZeiNrL
2CFD: C5FA   CMPz FA monitor.POINTL
2CFF: 9002   BCC +2>03
2D01: D0F4   BNE -12>F7
2D03: E018   CPXim 18
2D05: D003   BNE +3>0A
2D07: E657   INCz 57 bs.topWait
2D09: 60     RTS
2D0A: E8     INX
2D0B: BD9703 LDAx 0397 hexedit.arrZeiNrH
2D0E: C5FB   CMPz FB monitor.POINTH
2D10: 90F1   BCC -15>03
2D12: D009   BNE +9>1D
2D14: BD7E03 LDAx 037E hexedit.arrZeiNrL
2D17: C5FA   CMPz FA monitor.POINTL
2D19: 90E8   BCC -24>03
2D1B: F0E6   BEQ -26>03
2D1D: CA     DEX
2D1E: 8699   STXz 99 hexedit.video2
2D20: 38     SEC
2D21: A5FA   LDAz FA monitor.POINTL
2D23: FD7E03 SBCx 037E hexedit.arrZeiNrL
2D26: 48     PHA
2D27: A5FB   LDAz FB monitor.POINTH
2D29: FD9703 SBCx 0397 hexedit.arrZeiNrH
2D2C: D0FE   BNE -2>2C
2D2E: 68     PLA
2D2F: BCB003 LDYx 03B0 hexedit.arrProsa
2D32: D001   BNE +1>35
2D34: 0A     ASLa
2D35: 18     CLC
2D36: 6906   ADCim 06
2D38: 8598   STAz 98 hexedit.videoSpa
2D3A: 20FD22 JSR 22FD hexedit.cursAdrSql
2D3D: 60     RTS
2D3E: FFFFFF 
2D41: FFFF22 
2D44: 33     
2D45: ------ hexedit.BerechneUDisplay
2D45: 20042C JSR 2C04 hexedit.berechneZeiNrAb0
2D48: ------ hexedit.displayuC
2D48: 20502D JSR 2D50 hexedit.display
2D4B: 20E02C JSR 2CE0 hexedit.cursFromPointPlusZeige
2D4E: 60     RTS
2D4F: 33     
2D50: ------ hexedit.display
2D50: 206423 JSR 2364 hexedit.Home
2D53: AD7E03 LDA 037E hexedit.arrZeiNrL
2D56: 85E6   STAz E6 editor.CURADL
2D58: AD9703 LDA 0397 hexedit.arrZeiNrH
2D5B: 85E7   STAz E7 editor.CURADH
2D5D: A200   LDXim 00
2D5F: 865B   STXz 5B bs.neueZeitH
2D61: A65B   LDXz 5B bs.neueZeitH
2D63: A5E7   LDAz E7 editor.CURADH
2D65: 20EF24 JSR 24EF hexedit.byteDru
2D68: A65B   LDXz 5B bs.neueZeitH
2D6A: A5E6   LDAz E6 editor.CURADL
2D6C: 20EF24 JSR 24EF hexedit.byteDru
2D6F: 20C924 JSR 24C9 hexedit.2Blanks
2D72: 20A02C JSR 2CA0 hexedit.restZeile
2D75: A65B   LDXz 5B bs.neueZeitH
2D77: E499   CPXz 99 hexedit.video2
2D79: 3003   BMI +3>7E
2D7B: 20D424 JSR 24D4 hexedit.CR
2D7E: E65B   INCz 5B bs.neueZeitH
2D80: A699   LDXz 99 hexedit.video2
2D82: E018   CPXim 18
2D84: D0DB   BNE -37>61
2D86: 20D424 JSR 24D4 hexedit.CR
2D89: 203923 JSR 2339 hexedit.setCurs
2D8C: 28     PLP
2D8D: 18     CLC
2D8E: A55F   LDAz 5F bs.breakZeitH
2D90: 20EF24 JSR 24EF hexedit.byteDru
2D93: A55E   LDAz 5E bs.breakZeitL
2D95: 20EF24 JSR 24EF hexedit.byteDru
2D98: 60     RTS
2D99: FFFFFF 
2D9C: FFFFFF 
2D9F: FFFFFF 
2DA2: FFFFFF 
2DA5: FFFFFF 
2DA8: 22     
2DA9: 33     
2DAA: ------ hexedit.Vorlauf
2DAA: 206624 JSR 2466 hexedit.openOutVideo
2DAD: 208B24 JSR 248B hexedit.openInHexKb
2DB0: A5E2   LDAz E2 editor.BEGADL
2DB2: A6E3   LDXz E3 editor.BEGADH
2DB4: 85FA   STAz FA monitor.POINTL
2DB6: 86FB   STXz FB monitor.POINTH
2DB8: 8D7E03 STA 037E hexedit.arrZeiNrL
2DBB: 8E9703 STX 0397 hexedit.arrZeiNrH
2DBE: A900   LDAim 00
2DC0: 8DB003 STA 03B0 hexedit.arrProsa
2DC3: 20452D JSR 2D45 hexedit.BerechneUDisplay
2DC6: 60     RTS
2DC7: FFFFFF 
2DCA: FFFFFF 
2DCD: FF2233 
2DD0: ------ hexedit.hexIn
2DD0: 20E32B JSR 2BE3 hexedit.RestByte
2DD3: 9001   BCC +1>D6
2DD5: 60     RTS
2DD6: ------ hexedit.AsciiIn
2DD6: A657   LDXz 57 bs.topWait
2DD8: F002   BEQ +2>DC
2DDA: 18     CLC
2DDB: 60     RTS
2DDC: 48     PHA
2DDD: A699   LDXz 99 hexedit.video2
2DDF: E8     INX
2DE0: 8655   STXz 55 hexedit.helpL
2DE2: BD7E03 LDAx 037E hexedit.arrZeiNrL
2DE5: 8558   STAz 58 bs.aktZeitL
2DE7: BD9703 LDAx 0397 hexedit.arrZeiNrH
2DEA: 8559   STAz 59 bs.aktZeitH
2DEC: BDB003 LDAx 03B0 hexedit.arrProsa
2DEF: 855A   STAz 5A bs.neueZeitL
2DF1: 68     PLA
2DF2: 48     PHA
2DF3: A000   LDYim 00
2DF5: 91FA   STAiy FA monitor.POINTL
2DF7: 20042C JSR 2C04 hexedit.berechneZeiNrAb0
2DFA: A655   LDXz 55 hexedit.helpL
2DFC: CA     DEX
2DFD: BDB003 LDAx 03B0 hexedit.arrProsa
2E00: F007   BEQ +7>09
2E02: 68     PLA
2E03: 206324 JSR 2463 hexedit.write
2E06: 4C0D2E JMP 2E0D
2E09: 68     PLA
2E0A: 20EF24 JSR 24EF hexedit.byteDru
2E0D: 20202B JSR 2B20 hexedit.PlusmBl
2E10: A655   LDXz 55 hexedit.helpL
2E12: BD7E03 LDAx 037E hexedit.arrZeiNrL
2E15: C558   CMPz 58 bs.aktZeitL
2E17: D00E   BNE +14>27
2E19: BD9703 LDAx 0397 hexedit.arrZeiNrH
2E1C: C559   CMPz 59 bs.aktZeitH
2E1E: D007   BNE +7>27
2E20: BDB003 LDAx 03B0 hexedit.arrProsa
2E23: C55A   CMPz 5A bs.neueZeitL
2E25: F003   BEQ +3>2A
2E27: 20482D JSR 2D48 hexedit.displayuC
2E2A: 60     RTS
2E2B: FFFFFF 
2E2E: 22     
2E2F: 33     
2E30: ------ hexedit.pointFromCursPPlusZeige
2E30: 20382E JSR 2E38 hexedit.pointFromCurs
2E33: 20A028 JSR 28A0 hexedit.zeigeAusser
2E36: 60     RTS
2E37: 33     
2E38: ------ hexedit.pointFromCurs
2E38: A200   LDXim 00
2E3A: 8657   STXz 57 bs.topWait
2E3C: A699   LDXz 99 hexedit.video2
2E3E: E018   CPXim 18
2E40: B006   BCS +6>48
2E42: A598   LDAz 98 hexedit.videoSpa
2E44: C906   CMPim 06
2E46: B003   BCS +3>4B
2E48: E657   INCz 57 bs.topWait
2E4A: 60     RTS
2E4B: 38     SEC
2E4C: E906   SBCim 06
2E4E: BCB003 LDYx 03B0 hexedit.arrProsa
2E51: D001   BNE +1>54
2E53: 4A     LSRa
2E54: 18     CLC
2E55: 7D7E03 ADCx 037E hexedit.arrZeiNrL
2E58: 85FA   STAz FA monitor.POINTL
2E5A: A900   LDAim 00
2E5C: 7D9703 ADCx 0397 hexedit.arrZeiNrH
2E5F: 85FB   STAz FB monitor.POINTH
2E61: E8     INX
2E62: DD9703 CMPx 0397 hexedit.arrZeiNrH
2E65: 900B   BCC +11>72
2E67: D007   BNE +7>70
2E69: A5FA   LDAz FA monitor.POINTL
2E6B: DD7E03 CMPx 037E hexedit.arrZeiNrL
2E6E: 9002   BCC +2>72
2E70: E657   INCz 57 bs.topWait
2E72: 60     RTS
2E73: FFFFFF 
2E76: FFFFFF 
2E79: FFFFFF 
2E7C: FFFF22 
2E7F: 33     
2E80: ------ hexedit.VerschiebeDialog
2E80: 201029 JSR 2910 hexedit.copy
2E83: A032   LDYim 32
2E85: C7     
2E86: 32     
2E87: 201820 JSR 2018
2E8A: 39232F ANDy 2F23
2E8D: 18     CLC
2E8E: A5FB   LDAz FB monitor.POINTH
2E90: 85CB   STAz CB bs.Transfer3.vonH
2E92: 20EF24 JSR 24EF hexedit.byteDru
2E95: A5FA   LDAz FA monitor.POINTL
2E97: 85CA   STAz CA bs.Transfer3.vonL
2E99: 20EF24 JSR 24EF hexedit.byteDru
2E9C: A005   LDYim 05
2E9E: 209432 JSR 3294 hexedit.cursIncPlus
2EA1: 20D82B JSR 2BD8 hexedit.GetByte
2EA4: B02E   BCS +46>D4
2EA6: 85CD   STAz CD bs.Transfer3.bisH
2EA8: 20EF24 JSR 24EF hexedit.byteDru
2EAB: 20D82B JSR 2BD8 hexedit.GetByte
2EAE: B024   BCS +36>D4
2EB0: 85CC   STAz CC bs.Transfer3.bisL
2EB2: 20EF24 JSR 24EF hexedit.byteDru
2EB5: A006   LDYim 06
2EB7: 209432 JSR 3294 hexedit.cursIncPlus
2EBA: 20D82B JSR 2BD8 hexedit.GetByte
2EBD: B015   BCS +21>D4
2EBF: 85CF   STAz CF bs.Transfer3.nachH
2EC1: 20EF24 JSR 24EF hexedit.byteDru
2EC4: 20D82B JSR 2BD8 hexedit.GetByte
2EC7: B00B   BCS +11>D4
2EC9: 85CE   STAz CE bs.Transfer3.nachL
2ECB: 20EF24 JSR 24EF hexedit.byteDru
2ECE: 20403E JSR 3E40 hexedit.Transfer2
2ED1: 20042C JSR 2C04 hexedit.berechneZeiNrAb0
2ED4: 20482D JSR 2D48 hexedit.displayuC
2ED7: 60     RTS
2ED8: FFFFFF 
2EDB: FFFFFF 
2EDE: FFFFFF 
2EE1: FFFFFF 
2EE4: FFFFFF 
2EE7: FFFFFF 
2EEA: FF2233 
2EED: ------ hexedit.keyRight
2EED: A699   LDXz 99 hexedit.video2
2EEF: BDB003 LDAx 03B0 hexedit.arrProsa
2EF2: D003   BNE +3>F7
2EF4: 208422 JSR 2284 hexedit.cursInc
2EF7: 208422 JSR 2284 hexedit.cursInc
2EFA: 4CDD2F JMP 2FDD
2EFD: FF2233 
2F00: ------ hexedit.main
2F00: 20D038 JSR 38D0 rkv.initBs
2F03: EA     NOP
2F04: EA     NOP
2F05: EA     NOP
2F06: 20AA2D JSR 2DAA hexedit.Vorlauf
2F09: EA     NOP
2F0A: EA     NOP
2F0B: 206024 JSR 2460 hexedit.read
2F0E: EA     NOP
2F0F: EA     NOP
2F10: EA     NOP
2F11: 904E   BCC +78>61
2F13: EA     NOP
2F14: EA     NOP
2F15: EA     NOP
2F16: EA     NOP
2F17: C91C   CMPim 1C
2F19: B038   BCS +56>53
2F1B: 0A     ASLa
2F1C: AA     TAX
2F1D: BD0032 LDAx 3200
2F20: 8D001A STA 1A00 bs.help1
2F23: BD0132 LDAx 3201
2F26: 8D011A STA 1A01
2F29: 20302F JSR 2F30
2F2C: 4C0A2F JMP 2F0A
2F2F: 33     
2F30: 6C001A JMPi 1A00 bs.help1
2F33: FFFFFF 
2F36: FFFFFF 
2F39: FFFFFF 
2F3C: FFFFFF 
2F3F: FFFFFF 
2F42: FFFFFF 
2F45: FFFFFF 
2F48: FFFFFF 
2F4B: FFFFFF 
2F4E: FFFFFF 
2F51: 22     
2F52: 33     
2F53: C91D   CMPim 1D
2F55: F004   BEQ +4>5B
2F57: C920   CMPim 20
2F59: 90AF   BCC -81>0A
2F5B: 20D62D JSR 2DD6 hexedit.AsciiIn
2F5E: 4C0A2F JMP 2F0A
2F61: EA     NOP
2F62: EA     NOP
2F63: EA     NOP
2F64: EA     NOP
2F65: EA     NOP
2F66: EA     NOP
2F67: C947   CMPim 47
2F69: D008   BNE +8>73
2F6B: 20902A JSR 2A90 hexedit.Adr
2F6E: EA     NOP
2F6F: EA     NOP
2F70: 4C0A2F JMP 2F0A
2F73: C948   CMPim 48
2F75: D006   BNE +6>7D
2F77: 20432B JSR 2B43 hexedit.MinusmBl
2F7A: 4C0A2F JMP 2F0A
2F7D: C949   CMPim 49
2F7F: D006   BNE +6>87
2F81: 20202B JSR 2B20 hexedit.PlusmBl
2F84: 4C0A2F JMP 2F0A
2F87: C94A   CMPim 4A
2F89: D00A   BNE +10>95
2F8B: A557   LDAz 57 bs.topWait
2F8D: D006   BNE +6>95
2F8F: BC5022 LDYx 2250 hexedit.initVideo
2F92: 4C4C1C JMP 1C4C
2F95: C94B   CMPim 4B
2F97: D008   BNE +8>A1
2F99: 20802E JSR 2E80 hexedit.VerschiebeDialog
2F9C: EA     NOP
2F9D: EA     NOP
2F9E: 4C0A2F JMP 2F0A
2FA1: EA     NOP
2FA2: EA     NOP
2FA3: EA     NOP
2FA4: 20C62B JSR 2BC6 hexedit.wandle
2FA7: C910   CMPim 10
2FA9: B008   BCS +8>B3
2FAB: 20D02D JSR 2DD0 hexedit.hexIn
2FAE: EA     NOP
2FAF: EA     NOP
2FB0: 4C0A2F JMP 2F0A
2FB3: 4C0A2F JMP 2F0A
2FB6: FFFFFF 
2FB9: FFFFFF 
2FBC: FFFFFF 
2FBF: 22     
2FC0: 33     
2FC1: ------ hexedit.MiniInitBs(unused!)
2FC1: A908   LDAim 08
2FC3: 858E   STAz 8E bs.maxTask
2FC5: 858F   STAz 8F bs.aktTask
2FC7: A900   LDAim 00
2FC9: 8591   STAz 91 bs.modus
2FCB: 206B3A JSR 3A6B rkv.initUB
2FCE: 60     RTS
2FCF: 33     
2FD0: ------ hexedit.keyLeft
2FD0: A699   LDXz 99 hexedit.video2
2FD2: BDB003 LDAx 03B0 hexedit.arrProsa
2FD5: D003   BNE +3>DA
2FD7: 20CF22 JSR 22CF hexedit.cursDec
2FDA: 20CF22 JSR 22CF hexedit.cursDec
2FDD: 201D23 JSR 231D hexedit.setCursSql
2FE0: 20302E JSR 2E30 hexedit.pointFromCursPPlusZeige
2FE3: 60     RTS
2FE4: ------ hexedit.keyDown
2FE4: 209722 JSR 2297 hexedit.cursDown
2FE7: 4CDD2F JMP 2FDD
2FEA: ------ hexedit.keyUp
2FEA: 20C922 JSR 22C9 hexedit.cursUp
2FED: 4CDD2F JMP 2FDD
2FF0: FFFFFF 
2FF3: FFFFFF 
2FF6: FFFFFF 
2FF9: FFFFFF 
2FFC: FFFFFF 
2FFF: FFFFFF 
3002: FFFFFF 
3005: FFFFFF 
3008: FFFFFF 
300B: FFFFFF 
300E: FFFFFF 
3011: FFFFFF 
3014: FFFFFF 
3017: FFFFFF 
301A: FFFFFF 
301D: FFFFFF 
3020: FFFFFF 
3023: FFFFFF 
3026: FFFFFF 
3029: FFFF22 
302C: 33     
302D: FFFF02 ---- text data
3030: 2020206C 6478696D 207A2020 7A782078  '   ldxim z  zx x'
3040: 20206120 207A7920 79202020 20 '  a  zy y    '
304D: 03     
304E: A031   LDYim 31
3050: 00     BRK
3051: 80     
3052: 3100   ANDiy 00
3054: 48     PHA
3055: 3100   ANDiy 00
3057: 28     PLP
3058: 3100   ANDiy 00
305A: 60     RTS
305B: 3000   BMI +0>5D
305D: 00     BRK
305E: 00     BRK
305F: 00     BRK
3060: FC     
3061: 02     
3062: 03     
3063: FFFF02 ---- text data
3066: 62726BFF 20207068 70FF2020 62706CFF  'brk?  php?  bpl?'
3076: 2020636C 63FF2020 6A737262 6974706C  '  clc?  jsrbitpl'
3086: 70626974 626D69FF 20207365 63FF2020  'pbitbmi?  sec?  '
3096: 727469FF 20207068 616A6D70 627663FF  'rti?  phajmpbvc?'
30A6: 2020636C 69FF2020 727473FF 2020706C  '  cli?  rts?  pl'
30B6: 616A6920 627673FF 20207365 69FF2020  'aji bvs?  sei?  '
30C6: FF202073 74796465 79737479 62636373  '?  stydeystybccs'
30D6: 74797479 61FF2020 6C64796C 64797461  'tytya?  ldyldyta'
30E6: 796C6479 6263736C 6479636C 766C6479  'yldybcsldyclvldy'
30F6: 63707963 7079696E 79637079 626E65FF  'cpycpyinycpybne?'
3106: 2020636C 64FF2020 63707863 7078696E  '  cld?  cpxcpxin'
3116: 78637078 626571FF 20207365 64FF2020  'xcpxbeq?  sed?  '
3126: 03     
3127: 00     BRK
3128: E005   CPXim 05
312A: 03     
312B: FFFF02 ---- text data
312E: 6F726161 6E64656F 72616463 7374616C  'oraandeoradcstal'
313E: 6461636D 70736263  'dacmpsbc'
3146: 03     
3147: 00     BRK
3148: F004   BEQ +4>4E
314A: 03     
314B: FFFF02 ---- text data
314E: 61736CFF 2020726F 6CFF2020 6C7372FF  'asl?  rol?  lsr?'
315E: 2020726F 72FF2020 74786174 78737461  '  ror?  txatxsta'
316E: 78747378 646578FF 20206E6F 70202020  'xtsxdex?  nop   '
317E: 03     
317F: 00     BRK
3180: E005   CPXim 05
3182: 03     
3183: FFFF02 ---- text data
3186: 61736C72 6F6C6C73 72726F72 7374786C  'aslrollsrrorstxl'
3196: 64786465 63696E63  'dxdecinc'
319E: 03     
319F: 00     BRK
31A0: 1C     
31A1: 02     
31A2: 02     
31A3: FFFF02 ---- text data
31A6: 69787A20 696D2020 69797A78 79207820  'ixz im  iyzxy x '
31B6: 03     
31B7: 00     BRK
31B8: 1503   ORAzx 03
31BA: 00     BRK
31BB: 0EFF89 ASL 89FF
31BE: 00     BRK
31BF: 03     
31C0: 010D   ORAix 0D
31C2: FFA201 
31C5: FF9E00 
31C8: 0F     
31C9: 0A     ASLa
31CA: 0C     
31CB: 07     
31CC: 060B   ASLz 0B
31CE: 00     BRK
31CF: 00     BRK
31D0: 2A     ROLa
31D1: 9F     
31D2: 80     
31D3: 02     
31D4: 1F     
31D5: 04     
31D6: 03     
31D7: DF     
31D8: 9404   STYz 04
31DA: FFBC05 
31DD: 03     
31DE: 010A   ORAix 0A
31E0: FFA202 
31E3: 9F     
31E4: 0A     ASLa
31E5: 06DF   ASLz DF
31E7: 9607   STXzy 07
31E9: FFBE08 
31EC: 1F     
31ED: 0603   ASLz 03
31EF: 1F     
31F0: 0E091F ASL 1F09
31F3: 1604   ASLzx 04
31F5: 1F     
31F6: 1E0500 ASLx 0005
31F9: 00     BRK
31FA: 0900   ORAim 00
31FC: 03     
31FD: 00     BRK
31FE: 00     BRK
31FF: 00     BRK
3200: 393239 ANDy 3932
3203: 32     
3204: 393239 ANDy 3932
3207: 32     
3208: 78     SEI
3209: 294B   ANDim 4B
320B: 28     PLP
320C: 8528   STAz 28
320E: D028   BNE +40>38
3210: D02F   BNE +47>41
3212: ED2EE4 SBC E42E
3215: 2F     
3216: EA     NOP
3217: 2F     
3218: E8     INX
3219: 2A     ROLa
321A: 393239 ANDy 3932
321D: 32     
321E: 393239 ANDy 3932
3221: 32     
3222: 393239 ANDy 3932
3225: 32     
3226: 393200 ANDy 0032
3229: 40     RTI
322A: 393280 ANDy 8032
322D: 2E3932 ROL 3239
3230: 393239 ANDy 3932
3233: 32     
3234: 393239 ANDy 3932
3237: 32     
3238: 33     
3239: 60     RTS
323A: FFFFFF 
323D: FFFFFF 
3240: FFFFFF 
3243: FFFFFF 
3246: FFFFFF 
3249: FFFFFF 
324C: FFFFFF 
324F: FFFFFF 
3252: FFFFFF 
3255: FFFFFF 
3258: FFFFFF 
325B: FFFFFF 
325E: FFFFFF 
3261: FFFFFF 
3264: FFFFFF 
3267: FFFFFF 
326A: FFFFFF 
326D: FFFFFF 
3270: FFFFFF 
3273: FFFFFF 
3276: FFFFFF 
3279: FFFFFF 
327C: FFFFFF 
327F: FFFFFF 
3282: FFFFFF 
3285: FFFFFF 
3288: FFFFFF 
328B: FFFFFF 
328E: FFFFFF 
3291: FF2233 
3294: ------ hexedit.cursIncPlus
3294: 208422 JSR 2284 hexedit.cursInc
3297: 88     DEY
3298: D0FA   BNE -6>94
329A: 4C1D23 JMP 231D hexedit.setCursSql
329D: FFFF02 ---- text data
32A0: 56657273 63686965 62652076 6F6E2058  'Verschiebe von X'
32B0: 58585820 62697320 58585858 206E6163  'XXX bis XXXX nac'
32C0: 68205858 58582E20 20202020 202020 'h XXXX.        '
32CF: 03     
32D0: FFFFFF 
32D3: FFFFFF 
32D6: FFFFFF 
32D9: FFFFFF 
32DC: FFFFFF 
32DF: FFFFFF 
32E2: FFFFFF 
32E5: FFFFFF 
32E8: FFFFFF 
32EB: FFFFFF 
32EE: FFFFFF 
32F1: FFFFFF 
32F4: FFFFFF 
32F7: FFFFFF 
32FA: FFFFFF 
32FD: FFFFFF 
3300: FFFFFF 
3303: FFFFFF 
3306: FFFFFF 
3309: FFFFFF 
330C: FFFFFF 
330F: FFFFFF 
3312: FFFFFF 
3315: FFFFFF 
3318: FFFFFF 
331B: FFFFFF 
331E: FFFFFF 
3321: FFFFFF 
3324: FFFFFF 
3327: FFFFFF 
332A: FFFFFF 
332D: FFFFFF 
3330: FFFFFF 
3333: FFFFFF 
3336: FFFFFF 
3339: FFFFFF 
333C: FFFFFF 
333F: FFFFFF 
3342: FFFFFF 
3345: FFFFFF 
3348: FFFFFF 
334B: FFFFFF 
334E: FFFFFF 
3351: FFFFFF 
3354: FFFFFF 
3357: FFFFFF 
335A: FFFFFF 
335D: FFFFFF 
3360: FFFFFF 
3363: FFFFFF 
3366: FFFFFF 
3369: FFFFFF 
336C: FFFFFF 
336F: FFFFFF 
3372: FFFFFF 
3375: FFFFFF 
3378: FFFFFF 
337B: FFFFFF 
337E: FFFFFF 
3381: FFFFFF 
3384: FFFFFF 
3387: FFFFFF 
338A: FFFFFF 
338D: FFFFFF 
3390: FFFFFF 
3393: FFFFFF 
3396: FFFFFF 
3399: FFFFFF 
339C: FFFF22 
339F: 33     
33A0: ------ keyb2.Umsetztabelle
33A0: 7D0102 ADCx 0201
33A3: 03     
33A4: 04     
33A5: 0506   ORAz 06
33A7: 07     
33A8: 08     PHP
33A9: 090A   ORAim 0A
33AB: 0B     
33AC: 0C     
33AD: 0D0E0F ORA 0F0E
33B0: 1011   BPL +17>C3
33B2: 12     
33B3: 13     
33B4: 14     
33B5: 1516   ORAzx 16
33B7: 17     
33B8: 18     CLC
33B9: 1A     
33BA: 191E1C ORAy 1C1E
33BD: 1F     
33BE: 00     BRK
33BF: 203D21 JSR 213D
33C2: 22     
33C3: 5E2425 LSRx 2524
33C6: 262F   ROLz 2F
33C8: 28     PLP
33C9: 295B   ANDim 5B
33CB: 5C     
33CC: 2C7E2E BIT 2E7E
33CF: 2D3031 AND 3130
33D2: 32     
33D3: 33     
33D4: 34     
33D5: 3536   ANDzx 36
33D7: 37     
33D8: 38     SEC
33D9: 397B7C ANDy 7C7B
33DC: 3B     
33DD: 3F     
33DE: 3A     
33DF: 5F     
33E0: 7D6162 ADCx 6261
33E3: 63     
33E4: 64     
33E5: 6566   ADCz 66
33E7: 67     
33E8: 68     PLA
33E9: 696A   ADCim 6A
33EB: 6B     
33EC: 6C6D6E JMPi 6E6D
33EF: 6F     
33F0: 7071   BCS +113>63
33F2: 72     
33F3: 73     
33F4: 74     
33F5: 7576   ADCzx 76
33F7: 77     
33F8: 78     SEI
33F9: 7A     
33FA: 792B3C ADCy 3C2B
33FD: 23     
33FE: 40     RTI
33FF: 205D41 JSR 415D
3402: 42     
3403: 43     
3404: 44     
3405: 4546   EORz 46 hexedit.da.zweites
3407: 47     
3408: 48     PHA
3409: 494A   EORim 4A
340B: 4B     
340C: 4C4D4E JMP 4E4D
340F: 4F     
3410: 5051   BVC +81>63
3412: 52     
3413: 53     
3414: 54     
3415: 5556   EORzx 56 hexedit.helpH
3417: 57     
3418: 58     CLI
3419: 5A     
341A: 592A3E EORy 3E2A
341D: 27     
341E: 60     RTS
341F: 20200B JSR 0B20
3422: 0A     ASLa
3423: 0908   ORAim 08
3425: 0C     
3426: 202020 JSR 2020
3429: 202020 JSR 2020
342C: 20208E JSR 8E20
342F: 8F     
3430: 9091   BCC -111>C3
3432: 92     
3433: 93     
3434: 9495   STYz 95 hexedit.Prosa
3436: 9697   STXzy 97
3438: 98     TYA
3439: 999A9B STAy 9B9A
343C: 9C     
343D: 202020 JSR 2020
3440: 08     PHP
3441: 1A     
3442: 1D0E1B ORAx 1B0E
3445: 207F1D JSR 1D7F
3448: 202020 JSR 2020
344B: 20202D JSR 2D20
344E: 2E2030 ROL 3020
3451: 3132   ANDiy 32
3453: 33     
3454: 34     
3455: 3536   ANDzx 36
3457: 37     
3458: 38     SEC
3459: 392022 ANDy 2220
345C: 202020 JSR 2020
345F: 202012 JSR 1220
3462: 1105   ORAiy 05
3464: 060E   ASLz 0E
3466: 202020 JSR 2020
3469: 202020 JSR 2020
346C: 202020 JSR 2020
346F: 20D0D1 JSR D1D0
3472: D2     
3473: D3     
3474: D4     
3475: D5D6   CMPzx D6
3477: D7     
3478: D8     CLD
3479: D9DADB CMPy DBDA
347C: DC     
347D: 202020 JSR 2020
3480: 202020 JSR 2020
3483: 202020 JSR 2020
3486: 202020 JSR 2020
3489: 202020 JSR 2020
348C: 202020 JSR 2020
348F: 202020 JSR 2020
3492: 202020 JSR 2020
3495: 202020 JSR 2020
3498: 202020 JSR 2020
349B: 202020 JSR 2020
349E: 2020FF JSR FF20
34A1: FFFFFF 
34A4: FFFFFF 
34A7: FFFFFF 
34AA: FFFFFF 
34AD: FFFFFF 
34B0: FFFFFF 
34B3: FFFFFF 
34B6: FFFFFF 
34B9: FFFFFF 
34BC: FFFFFF 
34BF: FFFFFF 
34C2: FFFFFF 
34C5: FFFFFF 
34C8: FFFFFF 
34CB: FFFFFF 
34CE: FFFFFF 
34D1: FFFFFF 
34D4: FFFFFF 
34D7: FFFFFF 
34DA: FF2233 
34DD: ------ keyb2.initTastatur2
34DD: 08     PHP
34DE: 78     SEI
34DF: AD0C14 LDA 140C VIA.PCR
34E2: 291F   ANDim 1F
34E4: 0960   ORAim 60
34E6: 8D0C14 STA 140C VIA.PCR
34E9: AD0B14 LDA 140B VIA.ACR
34EC: 29C3   ANDim C3
34EE: 0904   ORAim 04
34F0: 8D0B14 STA 140B VIA.ACR
34F3: A922   LDAim 22
34F5: A210   LDXim 10
34F7: 8D661A STA 1A66 bs.irous.VIA.CB2
34FA: 8E671A STX 1A67
34FD: 8E651A STX 1A65
3500: A900   LDAim 00
3502: 8579   STAz 79
3504: 28     PLP
3505: 4C0510 JMP 1005 bs.RestartTastatur
3508: FFFFFF 
350B: FFFFFF 
350E: FFFFFF 
3511: FFFFFF 
3514: FFFFFF 
3517: FFFFFF 
351A: FFFFFF 
351D: FFFFFF 
3520: FFFFFF 
3523: FFFFFF 
3526: FFFFFF 
3529: FFFFFF 
352C: FFFFFF 
352F: FFFFFF 
3532: FFFFFF 
3535: FFFFFF 
3538: FFFFFF 
353B: FFFFFF 
353E: FFFFFF 
3541: FFFFFF 
3544: FFFFFF 
3547: FFFFFF 
354A: FFFFFF 
354D: FFFFFF 
3550: FFFFFF 
3553: FFFFFF 
3556: FFFFFF 
3559: FFFFFF 
355C: FFFFFF 
355F: FFFFFF 
3562: FFFFFF 
3565: FFFFFF 
3568: FFFFFF 
356B: FFFFFF 
356E: FFFFFF 
3571: FFFFFF 
3574: FFFFFF 
3577: FFFFFF 
357A: FFFFFF 
357D: FFFFFF 
3580: FFFFFF 
3583: FFFFFF 
3586: FFFFFF 
3589: FFFF22 
358C: 33     
358D: A204   LDXim 04
358F: 0A     ASLa
3590: 667A   RORz 7A
3592: 0A     ASLa
3593: CA     DEX
3594: D0F9   BNE -7>8F
3596: 60     RTS
3597: A208   LDXim 08
3599: 6A     RORa
359A: 457A   EORz 7A
359C: CA     DEX
359D: D0FA   BNE -6>99
359F: 6A     RORa
35A0: 60     RTS
35A1: FFFFFF 
35A4: FF0000 
35A7: ------ keyb2.readTastatur2OrHex
35A7: 20F035 JSR 35F0 keyb2.sampleHex
35AA: C915   CMPim 15
35AC: F009   BEQ +9>B7
35AE: C90A   CMPim 0A
35B0: 9002   BCC +2>B4
35B2: 6906   ADCim 06
35B4: 6930   ADCim 30
35B6: 60     RTS
35B7: A579   LDAz 79
35B9: F0EC   BEQ -20>A7
35BB: A900   LDAim 00
35BD: 8579   STAz 79
35BF: A57A   LDAz 7A
35C1: 208D35 JSR 358D
35C4: A57B   LDAz 7B
35C6: 208D35 JSR 358D
35C9: 209735 JSR 3597
35CC: 90D9   BCC -39>A7
35CE: A57A   LDAz 7A
35D0: 49FF   EORim FF
35D2: AA     TAX
35D3: BDA033 LDAx 33A0 keyb2.Umsetztabelle
35D6: 60     RTS
35D7: FFFFFF 
35DA: FF2233 
35DD: ------ keyb2.initTastatur2AndHex
35DD: 20DD34 JSR 34DD keyb2.initTastatur2
35E0: 208E1D JSR 1D8E monitor.SCANDS
35E3: D0FB   BNE -5>E0
35E5: A915   LDAim 15
35E7: 8576   STAz 76
35E9: 60     RTS
35EA: FFFFFF 
35ED: FF2233 
35F0: ------ keyb2.sampleHex
35F0: 20881D JSR 1D88 monitor.SCAND
35F3: F005   BEQ +5>FA
35F5: 208E1D JSR 1D8E monitor.SCANDS
35F8: F0F6   BEQ -10>F0
35FA: 20F91D JSR 1DF9 monitor.GETKEY
35FD: C915   CMPim 15
35FF: D003   BNE +3>04
3601: 8576   STAz 76
3603: 60     RTS
3604: C576   CMPz 76
3606: D015   BNE +21>1D
3608: A920   LDAim 20
360A: 2C0D14 BIT 140D VIA.IFR
360D: F00B   BEQ +11>1A
360F: 202336 JSR 3623
3612: A576   LDAz 76
3614: A478   LDYz 78
3616: F004   BEQ +4>1C
3618: C678   DECz 78
361A: A915   LDAim 15
361C: 60     RTS
361D: 8576   STAz 76
361F: A008   LDYim 08
3621: 8478   STYz 78
3623: A099   LDYim 99
3625: 8C0814 STY 1408 VIA.T2CL/LL
3628: 8C0914 STY 1409 VIA.T2CH
362B: 60     RTS
362C: FFFFFF 
362F: FFFFFF 
3632: FFFFFF 
3635: FFFFFF 
3638: FFFFFF 
363B: FFFFFF 
363E: FFFFFF 
3641: FFFFFF 
3644: FFFFFF 
3647: FF2233 
364A: 206624 JSR 2466 hexedit.openOutVideo
364D: 20B038 JSR 38B0
3650: 20BD37 JSR 37BD
3653: 20B539 JSR 39B5
3656: 64     
3657: 3606   ROLzx 06
3659: 20B539 JSR 39B5
365C: 6F     
365D: 3607   ROLzx 07
365F: 4C2F38 JMP 382F
3662: 00     BRK
3663: 00     BRK
3664: EE2008 INC 0820
3667: A201   LDXim 01
3669: 206C37 JSR 376C
366C: 4C6436 JMP 3664
366F: EE3008 INC 0830
3672: A203   LDXim 03
3674: 206C37 JSR 376C
3677: 4C6F36 JMP 366F
367A: 00     BRK
367B: 20B038 JSR 38B0
367E: 20BD37 JSR 37BD
3681: A200   LDXim 00
3683: A9ED   LDAim ED
3685: 9D300E STAx 0E30
3688: A920   LDAim 20
368A: 9D2F0E STAx 0E2F
368D: 8603   STXz 03
368F: A204   LDXim 04
3691: 206C37 JSR 376C
3694: A603   LDXz 03
3696: E8     INX
3697: E030   CPXim 30
3699: D0E8   BNE -24>83
369B: A920   LDAim 20
369D: 9D300E STAx 0E30
36A0: A9EF   LDAim EF
36A2: 9D2F0E STAx 0E2F
36A5: 8603   STXz 03
36A7: A204   LDXim 04
36A9: 206C37 JSR 376C
36AC: A603   LDXz 03
36AE: CA     DEX
36AF: 10EA   BPL -22>9B
36B1: 4C8136 JMP 3681
36B4: 00     BRK
36B5: 00     BRK
36B6: 00     BRK
36B7: 00     BRK
36B8: 00     BRK
36B9: 00     BRK
36BA: 00     BRK
36BB: A58F   LDAz 8F bs.aktTask
36BD: 8594   STAz 94 bs.helpActivate
36BF: 08     PHP
36C0: 78     SEI
36C1: EA     NOP
36C2: EA     NOP
36C3: EA     NOP
36C4: EA     NOP
36C5: A200   LDXim 00
36C7: A000   LDYim 00
36C9: E457   CPXz 57 bs.topWait
36CB: 101B   BPL +27>E8
36CD: E8     INX
36CE: BDE003 LDAx 03E0 bs.arrName
36D1: C594   CMPz 94 bs.helpActivate
36D3: F0F4   BEQ -12>C9
36D5: C8     INY
36D6: 99E003 STAy 03E0 bs.arrName
36D9: BDE803 LDAx 03E8 bs.arrZeitpL
36DC: 99E803 STAy 03E8 bs.arrZeitpL
36DF: BDF003 LDAx 03F0 bs.arrZeitpH
36E2: 99F003 STAy 03F0 bs.arrZeitpH
36E5: 4CC936 JMP 36C9
36E8: 8457   STYz 57 bs.topWait
36EA: ADD803 LDA 03D8 bs.arrSema
36ED: C594   CMPz 94 bs.helpActivate
36EF: D005   BNE +5>F6
36F1: 207038 JSR 3870
36F4: F007   BEQ +7>FD
36F6: A694   LDXz 94 bs.helpActivate
36F8: A900   LDAim 00
36FA: 9DD803 STAx 03D8 bs.arrSema
36FD: A594   LDAz 94 bs.helpActivate
36FF: 206C12 JSR 126C bs.NRWLAC
3702: 28     PLP
3703: 60     RTS
3704: FFFFFF 
3707: FFFFFF 
370A: FFFFFF 
370D: FFFFFF 
3710: FFFFFF 
3713: FFFFFF 
3716: FFFFFF 
3719: FFFFFF 
371C: FFFFFF 
371F: FFFFFF 
3722: FFFFFF 
3725: FFFFFF 
3728: FFFFFF 
372B: FFFFFF 
372E: FFFFFF 
3731: FFFFFF 
3734: FFFFFF 
3737: FFFFFF 
373A: FFFFFF 
373D: FFFFFF 
3740: FFFFFF 
3743: FFFFFF 
3746: FFFFFF 
3749: FFFFFF 
374C: FFFFFF 
374F: FFFFFF 
3752: FFFFFF 
3755: FFFFFF 
3758: FFFFFF 
375B: FFFFFF 
375E: FFFFFF 
3761: FFFFFF 
3764: FFFFFF 
3767: FFFFFF 
376A: 22     
376B: 33     
376C: 08     PHP
376D: 78     SEI
376E: B500   LDAzx 00
3770: 18     CLC
3771: 6558   ADCz 58 bs.aktZeitL
3773: 855A   STAz 5A bs.neueZeitL
3775: B501   LDAzx 01
3777: 6559   ADCz 59 bs.aktZeitH
3779: 855B   STAz 5B bs.neueZeitH
377B: A657   LDXz 57 bs.topWait
377D: F027   BEQ +39>A6
377F: BDF003 LDAx 03F0 bs.arrZeitpH
3782: C55B   CMPz 5B bs.neueZeitH
3784: 3009   BMI +9>8F
3786: D01E   BNE +30>A6
3788: BDE803 LDAx 03E8 bs.arrZeitpL
378B: C55A   CMPz 5A bs.neueZeitL
378D: B017   BCS +23>A6
378F: BDE803 LDAx 03E8 bs.arrZeitpL
3792: 9DE903 STAx 03E9
3795: BDF003 LDAx 03F0 bs.arrZeitpH
3798: 9DF103 STAx 03F1
379B: BDE003 LDAx 03E0 bs.arrName
379E: 9DE103 STAx 03E1
37A1: CA     DEX
37A2: D0DB   BNE -37>7F
37A4: EA     NOP
37A5: EA     NOP
37A6: E8     INX
37A7: A55A   LDAz 5A bs.neueZeitL
37A9: 9DE803 STAx 03E8 bs.arrZeitpL
37AC: A55B   LDAz 5B bs.neueZeitH
37AE: 9DF003 STAx 03F0 bs.arrZeitpH
37B1: A58F   LDAz 8F bs.aktTask
37B3: 9DE003 STAx 03E0 bs.arrName
37B6: E657   INCz 57 bs.topWait
37B8: 206A12 JSR 126A bs.NRWLSelbst
37BB: 28     PLP
37BC: 60     RTS
37BD: 206B3A JSR 3A6B rkv.initUB
37C0: A900   LDAim 00
37C2: 8558   STAz 58 bs.aktZeitL
37C4: 8559   STAz 59 bs.aktZeitH
37C6: 8557   STAz 57 bs.topWait
37C8: A990   LDAim 90
37CA: A210   LDXim 10
37CC: 8D761A STA 1A76 bs.irous.PIA.Timer
37CF: 8E771A STX 1A77
37D2: A976   LDAim 76
37D4: 8DFD1A STA 1AFD CNTF
37D7: 60     RTS
37D8: FFFFFF 
37DB: FF2233 
37DE: 08     PHP
37DF: 78     SEI
37E0: 0A     ASLa
37E1: 0A     ASLa
37E2: EA     NOP
37E3: EA     NOP
37E4: 48     PHA
37E5: A558   LDAz 58 bs.aktZeitL
37E7: 855E   STAz 5E bs.breakZeitL
37E9: A559   LDAz 59 bs.aktZeitH
37EB: 855F   STAz 5F bs.breakZeitH
37ED: 68     PLA
37EE: 18     CLC
37EF: E559   SBCz 59 bs.aktZeitH
37F1: 49FF   EORim FF
37F3: 8559   STAz 59 bs.aktZeitH
37F5: 28     PLP
37F6: 60     RTS
37F7: FFFFFF 
37FA: 22     
37FB: 33     
37FC: 08     PHP
37FD: 78     SEI
37FE: A55E   LDAz 5E bs.breakZeitL
3800: 8558   STAz 58 bs.aktZeitL
3802: A55F   LDAz 5F bs.breakZeitH
3804: 8559   STAz 59 bs.aktZeitH
3806: 28     PLP
3807: 60     RTS
3808: FFFFFF 
380B: FFFFFF 
380E: FFFFFF 
3811: FFFFFF 
3814: FFFFFF 
3817: FFFFFF 
381A: FFFFFF 
381D: FFFFFF 
3820: FFFFFF 
3823: FFFFFF 
3826: FF2233 
3829: 206624 JSR 2466 hexedit.openOutVideo
382C: 20BD37 JSR 37BD
382F: A55C   LDAz 5C bs.uhrZeitL
3831: C500   CMPz 00
3833: F0FA   BEQ -6>2F
3835: 8500   STAz 00
3837: A55D   LDAz 5D bs.uhrZeitH
3839: 20EF24 JSR 24EF hexedit.byteDru
383C: A55C   LDAz 5C bs.uhrZeitL
383E: 20EF24 JSR 24EF hexedit.byteDru
3841: 20D424 JSR 24D4 hexedit.CR
3844: A906   LDAim 06
3846: EA     NOP
3847: EA     NOP
3848: EA     NOP
3849: 4C2F38 JMP 382F
384C: 00     BRK
384D: FFFFFF 
3850: FFFFFF 
3853: FFFFFF 
3856: FFFFFF 
3859: FFFF22 
385C: 33     
385D: 20B038 JSR 38B0
3860: A900   LDAim 00
3862: 8DF903 STA 03F9 bs.semaVar
3865: A900   LDAim 00
3867: A690   LDXz 90 bs.grenzPrio
3869: 9DD803 STAx 03D8 bs.arrSema
386C: CA     DEX
386D: D0FA   BNE -6>69
386F: 60     RTS
3870: 08     PHP
3871: 78     SEI
3872: A201   LDXim 01
3874: BDD803 LDAx 03D8 bs.arrSema
3877: D00A   BNE +10>83
3879: E8     INX
387A: E490   CPXz 90 bs.grenzPrio
387C: D0F6   BNE -10>74
387E: 8DF903 STA 03F9 bs.semaVar
3881: 28     PLP
3882: 60     RTS
3883: A900   LDAim 00
3885: 9DD803 STAx 03D8 bs.arrSema
3888: 8A     TXAa
3889: 8DF903 STA 03F9 bs.semaVar
388C: 4CAB38 JMP 38AB
388F: 00     BRK
3890: 08     PHP
3891: 78     SEI
3892: ADF903 LDA 03F9 bs.semaVar
3895: D007   BNE +7>9E
3897: A58F   LDAz 8F bs.aktTask
3899: 8DF903 STA 03F9 bs.semaVar
389C: 28     PLP
389D: 60     RTS
389E: A68F   LDXz 8F bs.aktTask
38A0: A901   LDAim 01
38A2: 9DD803 STAx 03D8 bs.arrSema
38A5: 8A     TXAa
38A6: 206C12 JSR 126C bs.NRWLAC
38A9: 28     PLP
38AA: 60     RTS
38AB: 204012 JSR 1240 bs.RWL
38AE: 28     PLP
38AF: 60     RTS
38B0: 78     SEI
38B1: A209   LDXim 09
38B3: 8690   STXz 90 bs.grenzPrio
38B5: A900   LDAim 00
38B7: A207   LDXim 07
38B9: 9DD003 STAx 03D0 bs.arrRWL
38BC: CA     DEX
38BD: D0FA   BNE -6>B9
38BF: A901   LDAim 01
38C1: 8DD803 STA 03D8 bs.arrSema
38C4: 20D038 JSR 38D0 rkv.initBs
38C7: 206038 JSR 3860
38CA: 20C037 JSR 37C0
38CD: 60     RTS
38CE: 22     
38CF: 33     
38D0: ------ rkv.initBs
38D0: A908   LDAim 08
38D2: 858E   STAz 8E bs.maxTask
38D4: 858F   STAz 8F bs.aktTask
38D6: A900   LDAim 00
38D8: 8591   STAz 91 bs.modus
38DA: 206B3A JSR 3A6B rkv.initUB
38DD: 60     RTS
38DE: 22     
38DF: 33     
38E0: 9DC803 STAx 03C8 bs.arrSP
38E3: A594   LDAz 94 bs.helpActivate
38E5: 4C4012 JMP 1240 bs.RWL
38E8: FFFFFF 
38EB: FFFFFF 
38EE: FFFFFF 
38F1: FFFFFF 
38F4: FFFFFF 
38F7: FFFFFF 
38FA: FFFFFF 
38FD: FFFFFF 
3900: FFFFFF 
3903: FFFFFF 
3906: FFFFFF 
3909: FFFFFF 
390C: FFFFFF 
390F: FFFFFF 
3912: FFFFFF 
3915: FFFFFF 
3918: FFFFFF 
391B: FFFFFF 
391E: FFFFFF 
3921: FFFFFF 
3924: FFFFFF 
3927: FFFFFF 
392A: FFFFFF 
392D: FFFFFF 
3930: FFFFFF 
3933: FFFFFF 
3936: FFFFFF 
3939: FFFFFF 
393C: FFFFFF 
393F: FFFFFF 
3942: FFFFFF 
3945: FFFFFF 
3948: FFFFFF 
394B: FFFFFF 
394E: FFFFFF 
3951: FFFFFF 
3954: FFFFFF 
3957: FFFFFF 
395A: FFFFFF 
395D: FFFFFF 
3960: FFFFFF 
3963: FFFFFF 
3966: FFFF22 
3969: 33     
396A: A58F   LDAz 8F bs.aktTask
396C: 4C6C12 JMP 126C bs.NRWLAC
396F: FFFFFF 
3972: FFFFFF 
3975: FFFFFF 
3978: FFFFFF 
397B: FFFFFF 
397E: FFFFFF 
3981: FFFFFF 
3984: FFFFFF 
3987: FFFFFF 
398A: FFFFFF 
398D: FFFFFF 
3990: FFFFFF 
3993: FFFFFF 
3996: FFFFFF 
3999: FFFFFF 
399C: FFFFFF 
399F: FFFFFF 
39A2: FFFFFF 
39A5: FFFFFF 
39A8: FFFFFF 
39AB: FFFFFF 
39AE: FFFFFF 
39B1: FFFF22 
39B4: 33     
39B5: A003   LDYim 03
39B7: 20A525 JSR 25A5 bs.KPUe
39BA: 68     PLA
39BB: 8594   STAz 94 bs.helpActivate
39BD: EA     NOP
39BE: 78     SEI
39BF: AA     TAX
39C0: BDE039 LDAx 39E0
39C3: A8     TAY
39C4: 68     PLA
39C5: 990001 STAy 0100
39C8: 88     DEY
39C9: 68     PLA
39CA: 990001 STAy 0100
39CD: 88     DEY
39CE: A203   LDXim 03
39D0: A900   LDAim 00
39D2: 990001 STAy 0100
39D5: 88     DEY
39D6: CA     DEX
39D7: 10F9   BPL -7>D2
39D9: 98     TYA
39DA: A694   LDXz 94 bs.helpActivate
39DC: 58     CLI
39DD: 4CE038 JMP 38E0
39E0: 33     
39E1: 1F     
39E2: 3F     
39E3: 5F     
39E4: 7F     
39E5: 9F     
39E6: BF     
39E7: DF     
39E8: FFFFFF 
39EB: FFFFFF 
39EE: FFFFFF 
39F1: FFFFFF 
39F4: FFFFFF 
39F7: FFFFFF 
39FA: FFFFFF 
39FD: FFFFFF 
3A00: FFFFFF 
3A03: FFFFFF 
3A06: FFFFFF 
3A09: FFFFFF 
3A0C: FFFFFF 
3A0F: FFFFFF 
3A12: FFFFFF 
3A15: FFFFFF 
3A18: FFFFFF 
3A1B: FFFFFF 
3A1E: FFFFFF 
3A21: FFFFFF 
3A24: FFFFFF 
3A27: FFFFFF 
3A2A: FFFFFF 
3A2D: FFFFFF 
3A30: FFFFFF 
3A33: FFFFFF 
3A36: FFFFFF 
3A39: FFFFFF 
3A3C: FFFFFF 
3A3F: FFFFFF 
3A42: FFFFFF 
3A45: FFFFFF 
3A48: FFFFFF 
3A4B: FFFFFF 
3A4E: FFFFFF 
3A51: FFFFFF 
3A54: FFFFFF 
3A57: FFFFFF 
3A5A: FFFFFF 
3A5D: FFFFFF 
3A60: FFFFFF 
3A63: FFFFFF 
3A66: FFFFFF 
3A69: 22     
3A6A: 33     
3A6B: ------ rkv.initUB
3A6B: 78     SEI
3A6C: A913   LDAim 13
3A6E: A203   LDXim 03
3A70: 9D741A STAx 1A74 bs.irous.PIA.PA7
3A73: CA     DEX
3A74: 10FA   BPL -6>70
3A76: A20D   LDXim 0D
3A78: 9D601A STAx 1A60 bs.irous.VIA.CA2
3A7B: CA     DEX
3A7C: 10FA   BPL -6>78
3A7E: A97F   LDAim 7F
3A80: 8D0E14 STA 140E VIA.IER
3A83: 2CD41A BIT 1AD4 RDTDIS
3A86: 8DE41A STA 1AE4 EDETA
3A89: A900   LDAim 00
3A8B: A213   LDXim 13
3A8D: 8D7E1A STA 1A7E orig.IRQL
3A90: 8E7F1A STX 1A7F orig.IRQH
3A93: 58     CLI
3A94: 60     RTS
3A95: 22     
3A96: 33     
3A97: 60     RTS
3A98: FFFFFF 
3A9B: FFFFFF 
3A9E: FFFFFF 
3AA1: FFFFFF 
3AA4: FFFFFF 
3AA7: FFFFFF 
3AAA: FFFFFF 
3AAD: FFFFFF 
3AB0: FFFFFF 
3AB3: FFFFFF 
3AB6: FFFFFF 
3AB9: FFFFFF 
3ABC: FFFFFF 
3ABF: FFFFFF 
3AC2: FFFFFF 
3AC5: FFFFFF 
3AC8: FFFFFF 
3ACB: FFFFFF 
3ACE: FFFFFF 
3AD1: FFFFFF 
3AD4: FFFFFF 
3AD7: FFFFFF 
3ADA: FFFFFF 
3ADD: FFFFFF 
3AE0: FFFFFF 
3AE3: FFFFFF 
3AE6: FFFFFF 
3AE9: FFFFFF 
3AEC: FFFFFF 
3AEF: FFFFFF 
3AF2: FFFFFF 
3AF5: FFFFFF 
3AF8: FFFFFF 
3AFB: FFFFFF 
3AFE: 22     
3AFF: 33     
3B00: 48     PHA
3B01: A9F4   LDAim F4
3B03: 8DFF1A STA 1AFF CNTH
3B06: C609   DECz 09
3B08: D032   BNE +50>3C
3B0A: A904   LDAim 04
3B0C: 8509   STAz 09
3B0E: F8     SED
3B0F: A50A   LDAz 0A
3B11: 18     CLC
3B12: 6901   ADCim 01
3B14: 850A   STAz 0A
3B16: C960   CMPim 60
3B18: D022   BNE +34>3C
3B1A: A900   LDAim 00
3B1C: 850A   STAz 0A
3B1E: A50B   LDAz 0B
3B20: 18     CLC
3B21: 6901   ADCim 01
3B23: 850B   STAz 0B
3B25: C960   CMPim 60
3B27: D013   BNE +19>3C
3B29: A900   LDAim 00
3B2B: 850B   STAz 0B
3B2D: A50C   LDAz 0C
3B2F: 18     CLC
3B30: 6901   ADCim 01
3B32: 850C   STAz 0C
3B34: C924   CMPim 24
3B36: D004   BNE +4>3C
3B38: A900   LDAim 00
3B3A: 850C   STAz 0C
3B3C: D8     CLD
3B3D: 68     PLA
3B3E: 60     RTS
3B3F: FFFFFF 
3B42: FFFFFF 
3B45: FFFF22 
3B48: 33     
3B49: A904   LDAim 04
3B4B: 8509   STAz 09
3B4D: A900   LDAim 00
3B4F: 850A   STAz 0A
3B51: 850B   STAz 0B
3B53: 850C   STAz 0C
3B55: 60     RTS
3B56: FFFFFF 
3B59: FFFFFF 
3B5C: FFFFFF 
3B5F: 78     SEI
3B60: A50A   LDAz 0A
3B62: 48     PHA
3B63: A50B   LDAz 0B
3B65: 48     PHA
3B66: A50C   LDAz 0C
3B68: 58     CLI
3B69: 20EF24 JSR 24EF hexedit.byteDru
3B6C: A93A   LDAim 3A
3B6E: 206324 JSR 2463 hexedit.write
3B71: 68     PLA
3B72: 20EF24 JSR 24EF hexedit.byteDru
3B75: A93A   LDAim 3A
3B77: 206324 JSR 2463 hexedit.write
3B7A: 68     PLA
3B7B: 20EF24 JSR 24EF hexedit.byteDru
3B7E: 60     RTS
3B7F: FFFFFF 
3B82: FFFFFF 
3B85: FFFFFF 
3B88: FF2049 
3B8B: 3B     
3B8C: A900   LDAim 00
3B8E: A23B   LDXim 3B
3B90: 8D761A STA 1A76 bs.irous.PIA.Timer
3B93: 8E771A STX 1A77
3B96: A9F4   LDAim F4
3B98: 8DFF1A STA 1AFF CNTH
3B9B: 60     RTS
3B9C: FFFFFF 
3B9F: FFFFFF 
3BA2: EF     
3BA3: FFFFFF 
3BA6: FFFFFF 
3BA9: FFFFFF 
3BAC: FFFF22 
3BAF: 33     
3BB0: 20783C JSR 3C78
3BB3: 206E3C JSR 3C6E
3BB6: 85E2   STAz E2 editor.BEGADL
3BB8: 206E3C JSR 3C6E
3BBB: 85E3   STAz E3 editor.BEGADH
3BBD: 206E3C JSR 3C6E
3BC0: 18     CLC
3BC1: 65E2   ADCz E2 editor.BEGADL
3BC3: 08     PHP
3BC4: 85E8   STAz E8 editor.CENDL
3BC6: 206E3C JSR 3C6E
3BC9: 28     PLP
3BCA: 65E3   ADCz E3 editor.BEGADH
3BCC: 85E9   STAz E9 editor.CENDH
3BCE: 20D31E JSR 1ED3 editor.BEGIN
3BD1: 20DA3B JSR 3BDA
3BD4: 20ED3C JSR 3CED
3BD7: 4C1D1C JMP 1C1D monitor.RESET
3BDA: 206E3C JSR 3C6E
3BDD: A000   LDYim 00
3BDF: D1E6   CMPiy E6 editor.CURADL
3BE1: D006   BNE +6>E9
3BE3: 20903C JSR 3C90 hexedit.nextCurAd
3BE6: 90F2   BCC -14>DA
3BE8: 60     RTS
3BE9: 85F9   STAz F9 monitor.INH
3BEB: A5E6   LDAz E6 editor.CURADL
3BED: 85FA   STAz FA monitor.POINTL
3BEF: A5E7   LDAz E7 editor.CURADH
3BF1: 85FB   STAz FB monitor.POINTH
3BF3: 205C1D JSR 1D5C editor.SCANA
3BF6: 4C1D1C JMP 1C1D monitor.RESET
3BF9: FFFFFF 
3BFC: FFFF22 
3BFF: 33     
3C00: 2C821A BIT 1A82 PBD
3C03: 10FB   BPL -5>00
3C05: 2C821A BIT 1A82 PBD
3C08: 30FB   BMI -5>05
3C0A: 0ED51A ASL 1AD5 RDFLAG
3C0D: A023   LDYim 23
3C0F: 8CF51A STY 1AF5 CNTB
3C12: 2A     ROLa
3C13: 60     RTS
3C14: FFFFFF 
3C17: FFFFFF 
3C1A: FFFFFF 
3C1D: FFFFFF 
3C20: FFFFFF 
3C23: FFFFFF 
3C26: FFFFFF 
3C29: FFFFFF 
3C2C: FFFFFF 
3C2F: FFFFFF 
3C32: FFFFFF 
3C35: FFFFFF 
3C38: FFFFFF 
3C3B: FFFFFF 
3C3E: FFFFFF 
3C41: FFFFFF 
3C44: FFFFFF 
3C47: FFFFFF 
3C4A: FFFFFF 
3C4D: FFFFFF 
3C50: FFFFFF 
3C53: 22     
3C54: 33     
3C55: A2A0   LDXim A0
3C57: 8A     TXAa
3C58: 48     PHA
3C59: 208E1D JSR 1D8E monitor.SCANDS
3C5C: 68     PLA
3C5D: AA     TAX
3C5E: CA     DEX
3C5F: D0F6   BNE -10>57
3C61: 60     RTS
3C62: 20BD3C JSR 3CBD
3C65: 20BD3C JSR 3CBD
3C68: 4C1D1C JMP 1C1D monitor.RESET
3C6B: FFFF50 
3C6E: A901   LDAim 01
3C70: 20003C JSR 3C00
3C73: 90FB   BCC -5>70
3C75: 60     RTS
3C76: 00     BRK
3C77: 00     BRK
3C78: A9FF   LDAim FF
3C7A: 20003C JSR 3C00
3C7D: C955   CMPim 55
3C7F: D0F9   BNE -7>7A
3C81: 60     RTS
3C82: 00     BRK
3C83: 206E3C JSR 3C6E
3C86: A000   LDYim 00
3C88: 91E6   STAiy E6 editor.CURADL
3C8A: 20903C JSR 3C90 hexedit.nextCurAd
3C8D: 90F4   BCC -12>83
3C8F: 60     RTS
3C90: ------ hexedit.nextCurAd
3C90: 48     PHA
3C91: E6E6   INCz E6 editor.CURADL
3C93: D002   BNE +2>97
3C95: E6E7   INCz E7 editor.CURADH
3C97: 20051F JSR 1F05
3C9A: 68     PLA
3C9B: 60     RTS
3C9C: 20D31E JSR 1ED3 editor.BEGIN
3C9F: A900   LDAim 00
3CA1: A8     TAY
3CA2: 18     CLC
3CA3: 71E6   ADCiy E6 editor.CURADL
3CA5: 20903C JSR 3C90 hexedit.nextCurAd
3CA8: 90F8   BCC -8>A2
3CAA: 48     PHA
3CAB: 20D31E JSR 1ED3 editor.BEGIN
3CAE: 68     PLA
3CAF: 60     RTS
3CB0: 209C3C JSR 3C9C
3CB3: 85FB   STAz FB monitor.POINTH
3CB5: A902   LDAim 02
3CB7: 85F6   STAz F6 monitor.BYTES
3CB9: 20553C JSR 3C55
3CBC: 60     RTS
3CBD: 20783C JSR 3C78
3CC0: 206E3C JSR 3C6E
3CC3: 85E2   STAz E2 editor.BEGADL
3CC5: 206E3C JSR 3C6E
3CC8: 85E3   STAz E3 editor.BEGADH
3CCA: 4CD63C JMP 3CD6
3CCD: 20783C JSR 3C78
3CD0: 206E3C JSR 3C6E
3CD3: 206E3C JSR 3C6E
3CD6: 206E3C JSR 3C6E
3CD9: 18     CLC
3CDA: 65E2   ADCz E2 editor.BEGADL
3CDC: 08     PHP
3CDD: 85E8   STAz E8 editor.CENDL
3CDF: 206E3C JSR 3C6E
3CE2: 28     PLP
3CE3: 65E3   ADCz E3 editor.BEGADH
3CE5: 85E9   STAz E9 editor.CENDH
3CE7: 20D31E JSR 1ED3 editor.BEGIN
3CEA: 20833C JSR 3C83
3CED: 206E3C JSR 3C6E
3CF0: 85FA   STAz FA monitor.POINTL
3CF2: 20B03C JSR 3CB0
3CF5: A5FA   LDAz FA monitor.POINTL
3CF7: C5FB   CMPz FB monitor.POINTH
3CF9: D0F7   BNE -9>F2
3CFB: A5E2   LDAz E2 editor.BEGADL
3CFD: 85FA   STAz FA monitor.POINTL
3CFF: A5E3   LDAz E3 editor.BEGADH
3D01: 85FB   STAz FB monitor.POINTH
3D03: A5E8   LDAz E8 editor.CENDL
3D05: 85E4   STAz E4 editor.ENDADL
3D07: A5E9   LDAz E9 editor.CENDH
3D09: 85E5   STAz E5 editor.ENDADH
3D0B: 60     RTS
3D0C: 00     BRK
3D0D: FFFFFF 
3D10: A5CD   LDAz CD bs.Transfer3.bisH
3D12: C5CF   CMPz CF bs.Transfer3.nachH
3D14: 9008   BCC +8>1E
3D16: D013   BNE +19>2B
3D18: A5CC   LDAz CC bs.Transfer3.bisL
3D1A: C5CE   CMPz CE bs.Transfer3.nachL
3D1C: B00D   BCS +13>2B
3D1E: A4CB   LDYz CB bs.Transfer3.vonH
3D20: 88     DEY
3D21: B1CC   LDAiy CC bs.Transfer3.bisL
3D23: 91CE   STAiy CE bs.Transfer3.nachL
3D25: 98     TYA
3D26: D0F8   BNE -8>20
3D28: 60     RTS
3D29: 00     BRK
3D2A: FFFFFF 
3D2D: 1100   ORAiy 00
3D2F: A201   LDXim 01
3D31: 2CD51A BIT 1AD5 RDFLAG
3D34: 10FB   BPL -5>31
3D36: 8E821A STX 1A82 PBD
3D39: A915   LDAim 15
3D3B: 8DF51A STA 1AF5 CNTB
3D3E: CA     DEX
3D3F: 10F0   BPL -16>31
3D41: 60     RTS
3D42: 00     BRK
3D43: 00     BRK
3D44: A201   LDXim 01
3D46: 2CD51A BIT 1AD5 RDFLAG
3D49: 10FB   BPL -5>46
3D4B: 8E821A STX 1A82 PBD
3D4E: A90A   LDAim 0A
3D50: 8DF51A STA 1AF5 CNTB
3D53: CA     DEX
3D54: 10F0   BPL -16>46
3D56: 60     RTS
3D57: FFFFFF 
3D5A: FFFFFF 
3D5D: FF11A2 
3D60: 08     PHP
3D61: 86F8   STXz F8
3D63: 0A     ASLa
3D64: 48     PHA
3D65: 9005   BCC +5>6C
3D67: 202F3D JSR 3D2F
3D6A: 3003   BMI +3>6F
3D6C: 20443D JSR 3D44
3D6F: 68     PLA
3D70: C6F8   DECz F8
3D72: D0EF   BNE -17>63
3D74: 60     RTS
3D75: A21F   LDXim 1F
3D77: 8E831A STX 1A83 PBDD
3D7A: A200   LDXim 00
3D7C: 86DE   STXz DE
3D7E: A9FF   LDAim FF
3D80: 205F3D JSR 3D5F
3D83: C6DE   DECz DE
3D85: D0F7   BNE -9>7E
3D87: A955   LDAim 55
3D89: 205F3D JSR 3D5F
3D8C: 60     RTS
3D8D: 209C3C JSR 3C9C
3D90: 48     PHA
3D91: 20753D JSR 3D75
3D94: A5E2   LDAz E2 editor.BEGADL
3D96: 205F3D JSR 3D5F
3D99: A5E3   LDAz E3 editor.BEGADH
3D9B: 205F3D JSR 3D5F
3D9E: 38     SEC
3D9F: A5E8   LDAz E8 editor.CENDL
3DA1: E5E2   SBCz E2 editor.BEGADL
3DA3: 08     PHP
3DA4: 205F3D JSR 3D5F
3DA7: 28     PLP
3DA8: A5E9   LDAz E9 editor.CENDH
3DAA: E5E3   SBCz E3 editor.BEGADH
3DAC: 205F3D JSR 3D5F
3DAF: 20D31E JSR 1ED3 editor.BEGIN
3DB2: A000   LDYim 00
3DB4: B1E6   LDAiy E6 editor.CURADL
3DB6: 205F3D JSR 3D5F
3DB9: 20903C JSR 3C90 hexedit.nextCurAd
3DBC: 90F4   BCC -12>B2
3DBE: 68     PLA
3DBF: 205F3D JSR 3D5F
3DC2: 205F3D JSR 3D5F
3DC5: 60     RTS
3DC6: FFFFFF 
3DC9: FFFFFF 
3DCC: FFFFFF 
3DCF: FFFFFF 
3DD2: FFFFFF 
3DD5: FFFFFF 
3DD8: FFFFFF 
3DDB: FFFFFF 
3DDE: FFFFFF 
3DE1: FFFFFF 
3DE4: FFFFFF 
3DE7: FFFFFF 
3DEA: FFFFFF 
3DED: FFFFFF 
3DF0: FFFFFF 
3DF3: FFFFFF 
3DF6: FFFFFF 
3DF9: FFFFFF 
3DFC: FFFFFF 
3DFF: FFFFFF 
3E02: FFFFFF 
3E05: FFFFFF 
3E08: 22     
3E09: 33     
3E0A: 20BD3C JSR 3CBD
3E0D: 4C1D1C JMP 1C1D monitor.RESET
3E10: 20CD3C JSR 3CCD
3E13: 4C1D1C JMP 1C1D monitor.RESET
3E16: 20403E JSR 3E40 hexedit.Transfer2
3E19: 4C1D1C JMP 1C1D monitor.RESET
3E1C: 208D3D JSR 3D8D
3E1F: 4C1D1C JMP 1C1D monitor.RESET
3E22: FFFFFF 
3E25: FFFFFF 
3E28: FFFFFF 
3E2B: FFFFFF 
3E2E: FFFFFF 
3E31: FFFFFF 
3E34: FFFFFF 
3E37: FFFFFF 
3E3A: FFFFFF 
3E3D: FF2233 
3E40: ------ hexedit.Transfer2
3E40: 4C9011 JMP 1190
3E43: 33     
3E44: C5CE   CMPz CE bs.Transfer3.nachL
3E46: A5CB   LDAz CB bs.Transfer3.vonH
3E48: E5CF   SBCz CF bs.Transfer3.nachH
3E4A: B047   BCS +71>93
3E4C: 38     SEC
3E4D: A5CC   LDAz CC bs.Transfer3.bisL
3E4F: E5CA   SBCz CA bs.Transfer3.vonL
3E51: 08     PHP
3E52: 18     CLC
3E53: 65CE   ADCz CE bs.Transfer3.nachL
3E55: 85CE   STAz CE bs.Transfer3.nachL
3E57: A5CD   LDAz CD bs.Transfer3.bisH
3E59: E5CB   SBCz CB bs.Transfer3.vonH
3E5B: 28     PLP
3E5C: 65CF   ADCz CF bs.Transfer3.nachH
3E5E: 85CF   STAz CF bs.Transfer3.nachH
3E60: 18     CLC
3E61: 9013   BCC +19>76
3E63: FF2233 
3E66: A5CE   LDAz CE bs.Transfer3.nachL
3E68: D002   BNE +2>6C
3E6A: C6CF   DECz CF bs.Transfer3.nachH
3E6C: C6CE   DECz CE bs.Transfer3.nachL
3E6E: A5CC   LDAz CC bs.Transfer3.bisL
3E70: D002   BNE +2>74
3E72: C6CD   DECz CD bs.Transfer3.bisH
3E74: C6CC   DECz CC bs.Transfer3.bisL
3E76: B1CC   LDAiy CC bs.Transfer3.bisL
3E78: 91CE   STAiy CE bs.Transfer3.nachL
3E7A: A5CA   LDAz CA bs.Transfer3.vonL
3E7C: C5CC   CMPz CC bs.Transfer3.bisL
3E7E: A5CB   LDAz CB bs.Transfer3.vonH
3E80: E5CD   SBCz CD bs.Transfer3.bisH
3E82: 90E2   BCC -30>66
3E84: 60     RTS
3E85: 22     
3E86: 33     
3E87: E6CA   INCz CA bs.Transfer3.vonL
3E89: D002   BNE +2>8D
3E8B: E6CB   INCz CB bs.Transfer3.vonH
3E8D: E6CE   INCz CE bs.Transfer3.nachL
3E8F: D002   BNE +2>93
3E91: E6CF   INCz CF bs.Transfer3.nachH
3E93: B1CA   LDAiy CA bs.Transfer3.vonL
3E95: 91CE   STAiy CE bs.Transfer3.nachL
3E97: A5CA   LDAz CA bs.Transfer3.vonL
3E99: C5CC   CMPz CC bs.Transfer3.bisL
3E9B: A5CB   LDAz CB bs.Transfer3.vonH
3E9D: E5CD   SBCz CD bs.Transfer3.bisH
3E9F: 90E6   BCC -26>87
3EA1: 60     RTS
3EA2: FFFFFF 
3EA5: 22     
3EA6: 33     
3EA7: EA     NOP
3EA8: EA     NOP
3EA9: EA     NOP
3EAA: 206F24 JSR 246F hexedit.openOutStarTty
3EAD: A5E6   LDAz E6 editor.CURADL
3EAF: A6E7   LDXz E7 editor.CURADH
3EB1: A000   LDYim 00
3EB3: 8D7E03 STA 037E hexedit.arrZeiNrL
3EB6: 8E9703 STX 0397 hexedit.arrZeiNrH
3EB9: 8CB003 STY 03B0 hexedit.arrProsa
3EBC: 20042C JSR 2C04 hexedit.berechneZeiNrAb0
3EBF: A200   LDXim 00
3EC1: 865B   STXz 5B bs.neueZeitH
3EC3: A5E7   LDAz E7 editor.CURADH
3EC5: 20EF24 JSR 24EF hexedit.byteDru
3EC8: A5E6   LDAz E6 editor.CURADL
3ECA: 20EF24 JSR 24EF hexedit.byteDru
3ECD: 20C924 JSR 24C9 hexedit.2Blanks
3ED0: 20A02C JSR 2CA0 hexedit.restZeile
3ED3: A56D   LDAz 6D hexedit.spaTty
3ED5: C901   CMPim 01
3ED7: F003   BEQ +3>DC
3ED9: 20D424 JSR 24D4 hexedit.CR
3EDC: 20051F JSR 1F05
3EDF: B01E   BCS +30>FF
3EE1: A56E   LDAz 6E hexedit.zeiTty
3EE3: C939   CMPim 39
3EE5: D005   BNE +5>EC
3EE7: A90E   LDAim 0E
3EE9: 206324 JSR 2463 hexedit.write
3EEC: A65B   LDXz 5B bs.neueZeitH
3EEE: E8     INX
3EEF: E018   CPXim 18
3EF1: D0CE   BNE -50>C1
3EF3: AD9603 LDA 0396
3EF6: AEAF03 LDX 03AF
3EF9: ACC803 LDY 03C8 bs.arrSP
3EFC: 4CB33E JMP 3EB3
3EFF: A90E   LDAim 0E
3F01: 206324 JSR 2463 hexedit.write
3F04: 4C1D1C JMP 1C1D monitor.RESET
3F07: FFFFFF 
3F0A: FFFFFF 
3F0D: FFFFFF 
3F10: FFFFFF 
3F13: FFFFFF 
3F16: FFFFFF 
3F19: FFFFFF 
3F1C: FFFFFF 
3F1F: FFFFFF 
3F22: FFFFFF 
3F25: FFFFFF 
3F28: FFFFFF 
3F2B: FFFFFF 
3F2E: FFFFFF 
3F31: FFFFFF 
3F34: FFFFFF 
3F37: FFFFFF 
3F3A: FFFFFF 
3F3D: FFFFFF 
3F40: FFFFFF 
3F43: FFFFFF 
3F46: FFFFFF 
3F49: FFFFFF 
3F4C: FFFFFF 
3F4F: FFFFFF 
3F52: FFFFFF 
3F55: FFFFFF 
3F58: FFFFFF 
3F5B: FFFFFF 
3F5E: FFFFFF 
3F61: FFFFFF 
3F64: FFFFFF 
3F67: FFFFFF 
3F6A: FFFFFF 
3F6D: FFFFFF 
3F70: FFFFFF 
3F73: FFFFFF 
3F76: FFFFFF 
3F79: FFFFFF 
3F7C: FFFFFF 
3F7F: FFFFFF 
3F82: FFFFFF 
3F85: FFFFFF 
3F88: FFFFFF 
3F8B: FFFFFF 
3F8E: FFFFFF 
3F91: FFFFFF 
3F94: FFFFFF 
3F97: FFFFFF 
3F9A: FFFFFF 
3F9D: FFFFFF 
3FA0: FFFFFF 
3FA3: FFFFFF 
3FA6: FFFFFF 
3FA9: FFFFFF 
3FAC: FFFFFF 
3FAF: FFFFFF 
3FB2: FFFFFF 
3FB5: FFFFFF 
3FB8: FFFFFF 
3FBB: FFFFFF 
3FBE: FFFFFF 
3FC1: FFFFFF 
3FC4: FFFFFF 
3FC7: FFFFFF 
3FCA: FFFFFF 
3FCD: FFFFFF 
3FD0: FFFFFF 
3FD3: FFFFFF 
3FD6: FFFFFF 
3FD9: FFFFFF 
3FDC: FFFFFF 
3FDF: FFFFFF 
3FE2: FFFFFF 
3FE5: FFFFFF 
3FE8: FFFFFF 
3FEB: FFFFFF 
3FEE: 22     
3FEF: 33     
3FF0: CD4DA7 CMP A74D
3FF3: 3E0164 ASLx 6401
3FF6: 756D   ADCzx 6D hexedit.spaTty
3FF8: 7020   BCS +32>1A
3FFA: FFFFFF 
3FFD: FF2233 
4000: ------ Texteditor
4000: A903   LDAim 03
4002: 8D081A STA 1A08 bs.param.ROMStatusMaster
4005: 20DD1F JSR 1FDD bios.activate EPROM segments(1A08)
4008: 4CA747 JMP 47A7
400B: FFFFFF 
400E: FFFFFF 
4011: FFFFFF 
4014: FFFFFF 
4017: FFFFFF 
401A: FFFFFF 
401D: FF2233 
4020: 207023 JSR 2370 hexedit.clear
4023: 203923 JSR 2339 hexedit.setCurs
4026: 38     SEC
4027: 00     BRK
4028: 204940 JSR 4049
402B: 2A     ROLa
402C: 204640 JSR 4046
402F: 22     
4030: EA     NOP
4031: 204640 JSR 4046
4034: 62     
4035: EA     NOP
4036: 204640 JSR 4046
4039: E8     INX
403A: 204640 JSR 4046
403D: 64     
403E: EA     NOP
403F: 60     RTS
4040: FFFFFF 
4043: FF2233 
4046: 20CE24 JSR 24CE hexedit.Blank
4049: A001   LDYim 01
404B: 20A525 JSR 25A5 bs.KPUe
404E: 68     PLA
404F: 48     PHA
4050: AA     TAX
4051: B501   LDAzx 01
4053: 20EF24 JSR 24EF hexedit.byteDru
4056: 68     PLA
4057: AA     TAX
4058: B500   LDAzx 00
405A: 20EF24 JSR 24EF hexedit.byteDru
405D: 60     RTS
405E: 22     
405F: 33     
4060: 202040 JSR 4020
4063: A52A   LDAz 2A
4065: 8551   STAz 51
4067: A52B   LDAz 2B
4069: 8552   STAz 52
406B: A52E   LDAz 2E
406D: 8560   STAz 60
406F: A52F   LDAz 2F
4071: 8561   STAz 61
4073: A900   LDAim 00
4075: 8524   STAz 24
4077: 8553   STAz 53
4079: 4CAA40 JMP 40AA
407C: 20FE23 JSR 23FE hexedit.block.readFile
407F: C91D   CMPim 1D
4081: F01F   BEQ +31>A2
4083: C920   CMPim 20
4085: 9050   BCC +80>D7
4087: A698   LDXz 98 hexedit.videoSpa
4089: E8     INX
408A: E44C   CPXz 4C
408C: F006   BEQ +6>94
408E: 206324 JSR 2463 hexedit.write
4091: 18     CLC
4092: 90E8   BCC -24>7C
4094: 206324 JSR 2463 hexedit.write
4097: 20FE23 JSR 23FE hexedit.block.readFile
409A: C91D   CMPim 1D
409C: D039   BNE +57>D7
409E: A598   LDAz 98 hexedit.videoSpa
40A0: F003   BEQ +3>A5
40A2: 20D424 JSR 24D4 hexedit.CR
40A5: 203F41 JSR 413F
40A8: EA     NOP
40A9: EA     NOP
40AA: A522   LDAz 22
40AC: C551   CMPz 51
40AE: A523   LDAz 23
40B0: E552   SBCz 52
40B2: 9006   BCC +6>BA
40B4: A599   LDAz 99 hexedit.video2
40B6: D0C4   BNE -60>7C
40B8: F00F   BEQ +15>C9
40BA: 205741 JSR 4157
40BD: 7C     
40BE: 41EA   EORix EA
40C0: EA     NOP
40C1: EA     NOP
40C2: EA     NOP
40C3: EA     NOP
40C4: E653   INCz 53
40C6: 206423 JSR 2364 hexedit.Home
40C9: A560   LDAz 60
40CB: 8520   STAz 20
40CD: A561   LDAz 61
40CF: 8521   STAz 21
40D1: A900   LDAim 00
40D3: 8554   STAz 54
40D5: 60     RTS
40D6: 33     
40D7: 200625 JSR 2506 hexedit.writeVonBis
40DA: F4     
40DB: 40     RTI
40DC: 0E41EA ASL EA41
40DF: 18     CLC
40E0: 90FE   BCC -2>E0
40E2: FFFFFF 
40E5: FFFFFF 
40E8: FFFFFF 
40EB: FFFFFF 
40EE: FF2233 
40F1: FFFF02 ---- text data
40F4: 23234665 686C6572 68616674 65722053  '##Fehlerhafter S'
4104: 61747A20 666F6C67 742323 'atz folgt##'
410F: 03     
4110: FFFFFF 
4113: FFFFFF 
4116: FFFFFF 
4119: FFFFFF 
411C: FFFFFF 
411F: FFFFFF 
4122: FFFFFF 
4125: FFFFFF 
4128: FFFF22 
412B: 33     
412C: F8     SED
412D: 38     SEC
412E: A551   LDAz 51
4130: E901   SBCim 01
4132: 8522   STAz 22
4134: A552   LDAz 52
4136: E900   SBCim 00
4138: 8523   STAz 23
413A: D8     CLD
413B: 60     RTS
413C: FF2233 
413F: F8     SED
4140: 18     CLC
4141: A551   LDAz 51
4143: 6901   ADCim 01
4145: 8551   STAz 51
4147: A552   LDAz 52
4149: 6900   ADCim 00
414B: 8552   STAz 52
414D: D8     CLD
414E: 60     RTS
414F: FF00FF 
4152: FFFFFF 
4155: 00     BRK
4156: 00     BRK
4157: A002   LDYim 02
4159: 20A525 JSR 25A5 bs.KPUe
415C: 68     PLA
415D: 85CB   STAz CB bs.Transfer3.vonH
415F: 85CD   STAz CD bs.Transfer3.bisH
4161: 68     PLA
4162: 85CA   STAz CA bs.Transfer3.vonL
4164: 18     CLC
4165: 691B   ADCim 1B
4167: 85CC   STAz CC bs.Transfer3.bisL
4169: 9002   BCC +2>6D
416B: E6CD   INCz CD bs.Transfer3.bisH
416D: A91B   LDAim 1B
416F: 85CE   STAz CE bs.Transfer3.nachL
4171: A908   LDAim 08
4173: 85CF   STAz CF bs.Transfer3.nachH
4175: 209011 JSR 1190
4178: 60     RTS
4179: FFFF02 ---- text data
417C: 23446174 6569656E 64652320 20202020  '#Dateiende#     '
418C: 20202020 20202020 20202020 1D237570  '            ?#up'
419C: 64617469 6E672320 20202020 20202020  'dating#         '
41AC: 20202020 20202020 201D2350 6C61747A  '         ?#Platz'
41BC: 207A7520 77656E69 67206675 65722053  ' zu wenig fuer S'
41CC: 65697465 23201D23 6E657565 20446174  'eite# ?#neue Dat'
41DC: 65692320 20202020 20202020 20202020  'ei#             '
41EC: 20202020 20202020 20202020 20202020  '                '
41FC: 2020 '  '
41FE: 03     
41FF: FFFFFF 
4202: FFFFFF 
4205: FFFFFF 
4208: FFFFFF 
420B: FFFFFF 
420E: FF2233 
4211: A900   LDAim 00
4213: 854D   STAz 4D
4215: 854E   STAz 4E
4217: 203923 JSR 2339 hexedit.setCurs
421A: 00     BRK
421B: 01EA   ORAix EA
421D: A44C   LDYz 4C
421F: 20621F JSR 1F62 texteditor.sr2
4222: EA     NOP
4223: EA     NOP
4224: EA     NOP
4225: EA     NOP
4226: EA     NOP
4227: EA     NOP
4228: C8     INY
4229: EA     NOP
422A: EA     NOP
422B: EA     NOP
422C: C8     INY
422D: 98     TYA
422E: 18     CLC
422F: 654D   ADCz 4D
4231: 854D   STAz 4D
4233: 9002   BCC +2>37
4235: E64E   INCz 4E
4237: 209722 JSR 2297 hexedit.cursDown
423A: 201D23 JSR 231D hexedit.setCursSql
423D: A599   LDAz 99 hexedit.video2
423F: D0DC   BNE -36>1D
4241: 60     RTS
4242: FFFFFF 
4245: FFFFFF 
4248: FFFFFF 
424B: FFFFFF 
424E: FFFF00 
4251: 00     BRK
4252: A553   LDAz 53
4254: D028   BNE +40>7E
4256: 38     SEC
4257: A54D   LDAz 4D
4259: E520   SBCz 20
425B: 854D   STAz 4D
425D: A54E   LDAz 4E
425F: E521   SBCz 21
4261: 854E   STAz 4E
4263: 18     CLC
4264: A54D   LDAz 4D
4266: 652E   ADCz 2E
4268: 854D   STAz 4D
426A: A54E   LDAz 4E
426C: 652F   ADCz 2F
426E: 854E   STAz 4E
4270: 18     CLC
4271: A54D   LDAz 4D
4273: 65E8   ADCz E8 editor.CENDL
4275: 854F   STAz 4F
4277: A54E   LDAz 4E
4279: 65E9   ADCz E9 editor.CENDH
427B: 8550   STAz 50
427D: 60     RTS
427E: 18     CLC
427F: A52E   LDAz 2E
4281: 654D   ADCz 4D
4283: 854F   STAz 4F
4285: A52F   LDAz 2F
4287: 654E   ADCz 4E
4289: 8550   STAz 50
428B: 60     RTS
428C: FFFFFF 
428F: FFFF00 
4292: 00     BRK
4293: A520   LDAz 20
4295: 85CA   STAz CA bs.Transfer3.vonL
4297: A521   LDAz 21
4299: 85CB   STAz CB bs.Transfer3.vonH
429B: A5E8   LDAz E8 editor.CENDL
429D: 85CC   STAz CC bs.Transfer3.bisL
429F: A5E9   LDAz E9 editor.CENDH
42A1: 85CD   STAz CD bs.Transfer3.bisH
42A3: 18     CLC
42A4: A5CA   LDAz CA bs.Transfer3.vonL
42A6: 654D   ADCz 4D
42A8: 85CE   STAz CE bs.Transfer3.nachL
42AA: A5CB   LDAz CB bs.Transfer3.vonH
42AC: 654E   ADCz 4E
42AE: 85CF   STAz CF bs.Transfer3.nachH
42B0: 20861F JSR 1F86 texteditor.sr4
42B3: 60     RTS
42B4: FFFFFF 
42B7: 00     BRK
42B8: 00     BRK
42B9: A900   LDAim 00
42BB: 8524   STAz 24
42BD: A564   LDAz 64
42BF: C54F   CMPz 4F
42C1: A565   LDAz 65
42C3: E550   SBCz 50
42C5: B00B   BCS +11>D2
42C7: 205741 JSR 4157
42CA: B641   LDXzy 41 hexedit.da.nr
42CC: E624   INCz 24
42CE: EA     NOP
42CF: EA     NOP
42D0: EA     NOP
42D1: EA     NOP
42D2: 60     RTS
42D3: FFFFFF 
42D6: FFFFFF 
42D9: FFFF22 
42DC: 33     
42DD: A52E   LDAz 2E
42DF: 8566   STAz 66
42E1: A52F   LDAz 2F
42E3: 8567   STAz 67
42E5: A52A   LDAz 2A
42E7: 8551   STAz 51
42E9: A52B   LDAz 2B
42EB: 8552   STAz 52
42ED: 203923 JSR 2339 hexedit.setCurs
42F0: 00     BRK
42F1: 01EA   ORAix EA
42F3: EA     NOP
42F4: EA     NOP
42F5: EA     NOP
42F6: EA     NOP
42F7: EA     NOP
42F8: EA     NOP
42F9: EA     NOP
42FA: EA     NOP
42FB: EA     NOP
42FC: EA     NOP
42FD: A44C   LDYz 4C
42FF: 203D1F JSR 1F3D texteditor.sr1
4302: 18     CLC
4303: 9017   BCC +23>1C
4305: FFFFFF 
4308: FFFFFF 
430B: FFFFFF 
430E: FFFFFF 
4311: FFFFFF 
4314: FFFFFF 
4317: FFFFFF 
431A: 22     
431B: 33     
431C: A91D   LDAim 1D
431E: 200924 JSR 2409 hexedit.block.writeFile
4321: EA     NOP
4322: EA     NOP
4323: EA     NOP
4324: 20D424 JSR 24D4 hexedit.CR
4327: 203F41 JSR 413F
432A: A599   LDAz 99 hexedit.video2
432C: F003   BEQ +3>31
432E: 4CF342 JMP 42F3
4331: 60     RTS
4332: FF0000 
4335: A566   LDAz 66
4337: 8520   STAz 20
4339: A567   LDAz 67
433B: 8521   STAz 21
433D: A54F   LDAz 4F
433F: 85E8   STAz E8 editor.CENDL
4341: A550   LDAz 50
4343: 85E9   STAz E9 editor.CENDH
4345: A553   LDAz 53
4347: F012   BEQ +18>5B
4349: F8     SED
434A: 38     SEC
434B: A551   LDAz 51
434D: E901   SBCim 01
434F: 8522   STAz 22
4351: A552   LDAz 52
4353: E900   SBCim 00
4355: 8523   STAz 23
4357: D8     CLD
4358: 200944 JSR 4409
435B: A903   LDAim 03
435D: A000   LDYim 00
435F: 91E8   STAiy E8 editor.CENDL
4361: 202340 JSR 4023
4364: 60     RTS
4365: FFFF00 
4368: FFFF00 
436B: 00     BRK
436C: 205741 JSR 4157
436F: D3     
4370: 41EA   EORix EA
4372: EA     NOP
4373: EA     NOP
4374: EA     NOP
4375: EA     NOP
4376: A901   LDAim 01
4378: 8551   STAz 51
437A: 852A   STAz 2A
437C: A900   LDAim 00
437E: 8552   STAz 52
4380: 852B   STAz 2B
4382: 8522   STAz 22
4384: 8523   STAz 23
4386: A562   LDAz 62
4388: 8560   STAz 60
438A: 85E8   STAz E8 editor.CENDL
438C: 852E   STAz 2E
438E: A563   LDAz 63
4390: 8561   STAz 61
4392: 85E9   STAz E9 editor.CENDH
4394: 852F   STAz 2F
4396: A900   LDAim 00
4398: 8524   STAz 24
439A: A950   LDAim 50
439C: 854C   STAz 4C
439E: EA     NOP
439F: EA     NOP
43A0: EA     NOP
43A1: EA     NOP
43A2: EA     NOP
43A3: EA     NOP
43A4: EA     NOP
43A5: EA     NOP
43A6: EA     NOP
43A7: EA     NOP
43A8: EA     NOP
43A9: EA     NOP
43AA: EA     NOP
43AB: EA     NOP
43AC: A54C   LDAz 4C
43AE: 854D   STAz 4D
43B0: 20FE23 JSR 23FE hexedit.block.readFile
43B3: C91D   CMPim 1D
43B5: F017   BEQ +23>CE
43B7: C920   CMPim 20
43B9: B004   BCS +4>BF
43BB: E694   INCz 94 bs.helpActivate
43BD: D02B   BNE +43>EA
43BF: C64D   DECz 4D
43C1: D0ED   BNE -19>B0
43C3: 20FE23 JSR 23FE hexedit.block.readFile
43C6: C91D   CMPim 1D
43C8: F004   BEQ +4>CE
43CA: E624   INCz 24
43CC: D01C   BNE +28>EA
43CE: A560   LDAz 60
43D0: 85E8   STAz E8 editor.CENDL
43D2: 8564   STAz 64
43D4: A561   LDAz 61
43D6: 85E9   STAz E9 editor.CENDH
43D8: 8565   STAz 65
43DA: A551   LDAz 51
43DC: 8522   STAz 22
43DE: A552   LDAz 52
43E0: 8523   STAz 23
43E2: 203F41 JSR 413F
43E5: 4C9E43 JMP 439E
43E8: EA     NOP
43E9: EA     NOP
43EA: 200944 JSR 4409
43ED: 206040 JSR 4060
43F0: 60     RTS
43F1: FFFFFF 
43F4: FFFFFF 
43F7: FFFFFF 
43FA: FFFFFF 
43FD: FFFFFF 
4400: FFFFFF 
4403: FFFFFF 
4406: FF2233 
4409: A5E8   LDAz E8 editor.CENDL
440B: 8560   STAz 60
440D: A4E9   LDYz E9 editor.CENDH
440F: 88     DEY
4410: 8461   STYz 61
4412: A0FE   LDYim FE
4414: 209C1F JSR 1F9C bios.readfileSameBank
4417: 8A     TXAa
4418: C91D   CMPim 1D
441A: F001   BEQ +1>1D
441C: 60     RTS
441D: 38     SEC
441E: A5E8   LDAz E8 editor.CENDL
4420: E901   SBCim 01
4422: 85E8   STAz E8 editor.CENDL
4424: B002   BCS +2>28
4426: C6E9   DECz E9 editor.CENDH
4428: F8     SED
4429: 38     SEC
442A: A522   LDAz 22
442C: E901   SBCim 01
442E: 8522   STAz 22
4430: A523   LDAz 23
4432: E900   SBCim 00
4434: 8523   STAz 23
4436: D8     CLD
4437: A522   LDAz 22
4439: D0CE   BNE -50>09
443B: A523   LDAz 23
443D: D0CA   BNE -54>09
443F: 60     RTS
4440: 205741 JSR 4157
4443: 9941EA STAy EA41
4446: EA     NOP
4447: EA     NOP
4448: EA     NOP
4449: EA     NOP
444A: 201142 JSR 4211
444D: 205242 JSR 4252
4450: EA     NOP
4451: EA     NOP
4452: EA     NOP
4453: 20B942 JSR 42B9
4456: A524   LDAz 24
4458: F001   BEQ +1>5B
445A: 60     RTS
445B: A553   LDAz 53
445D: D003   BNE +3>62
445F: 209342 JSR 4293
4462: 20DD42 JSR 42DD
4465: 203543 JSR 4335
4468: 205741 JSR 4157
446B: E041   CPXim 41
446D: EA     NOP
446E: 60     RTS
446F: FFFFFF 
4472: FFFFFF 
4475: FFFFFF 
4478: FFFFFF 
447B: FFFFFF 
447E: FFFFFF 
4481: FFFFFF 
4484: FFFFFF 
4487: FFFFFF 
448A: FFFFFF 
448D: FF0000 
4490: 20CE24 JSR 24CE hexedit.Blank
4493: A5E9   LDAz E9 editor.CENDH
4495: 20EF24 JSR 24EF hexedit.byteDru
4498: A5E8   LDAz E8 editor.CENDL
449A: 20EF24 JSR 24EF hexedit.byteDru
449D: 20CE24 JSR 24CE hexedit.Blank
44A0: A54E   LDAz 4E
44A2: 20EF24 JSR 24EF hexedit.byteDru
44A5: A54D   LDAz 4D
44A7: 20EF24 JSR 24EF hexedit.byteDru
44AA: 20CE24 JSR 24CE hexedit.Blank
44AD: A550   LDAz 50
44AF: 20EF24 JSR 24EF hexedit.byteDru
44B2: A54F   LDAz 4F
44B4: 20EF24 JSR 24EF hexedit.byteDru
44B7: 60     RTS
44B8: FFFFFF 
44BB: FFFFFF 
44BE: 00     BRK
44BF: 00     BRK
44C0: 38     SEC
44C1: E930   SBCim 30
44C3: C90A   CMPim 0A
44C5: B001   BCS +1>C8
44C7: 60     RTS
44C8: 29DF   ANDim DF
44CA: E907   SBCim 07
44CC: C90A   CMPim 0A
44CE: B002   BCS +2>D2
44D0: 38     SEC
44D1: 60     RTS
44D2: C910   CMPim 10
44D4: 60     RTS
44D5: FFFFFF 
44D8: 00     BRK
44D9: 00     BRK
44DA: A900   LDAim 00
44DC: 8550   STAz 50
44DE: 854F   STAz 4F
44E0: A44D   LDYz 4D
44E2: B90008 LDAy 0800
44E5: 20C044 JSR 44C0
44E8: 9001   BCC +1>EB
44EA: 60     RTS
44EB: A004   LDYim 04
44ED: 064F   ASLz 4F
44EF: 2650   ROLz 50
44F1: 88     DEY
44F2: D0F9   BNE -7>ED
44F4: 054F   ORAz 4F
44F6: E64D   INCz 4D
44F8: 4CDE44 JMP 44DE
44FB: FFFF00 
44FE: 00     BRK
44FF: A900   LDAim 00
4501: 852D   STAz 2D
4503: 852C   STAz 2C
4505: A44D   LDYz 4D
4507: B90008 LDAy 0800
450A: 38     SEC
450B: E930   SBCim 30
450D: C90A   CMPim 0A
450F: 9001   BCC +1>12
4511: 60     RTS
4512: E64D   INCz 4D
4514: A004   LDYim 04
4516: 062C   ASLz 2C
4518: 262D   ROLz 2D
451A: 88     DEY
451B: D0F9   BNE -7>16
451D: 052C   ORAz 2C
451F: 4C0345 JMP 4503
4522: FFFFFF 
4525: FFFFFF 
4528: FFFFFF 
452B: 22     
452C: 33     
452D: FFFF02 ---- text data
4530: 23737973 74656D66 65686C65 72232020  '#systemfehler#  '
4540: 20202020 20202020 20202020  '            '
454C: 03     
454D: 00     BRK
454E: 22     
454F: 33     
4550: A900   LDAim 00
4552: 852E   STAz 2E
4554: A563   LDAz 63
4556: 852F   STAz 2F
4558: A462   LDYz 62
455A: D002   BNE +2>5E
455C: C62F   DECz 2F
455E: 88     DEY
455F: A52C   LDAz 2C
4561: 852A   STAz 2A
4563: A52D   LDAz 2D
4565: 852B   STAz 2B
4567: F8     SED
4568: 38     SEC
4569: A52C   LDAz 2C
456B: E901   SBCim 01
456D: 852C   STAz 2C
456F: A52D   LDAz 2D
4571: E900   SBCim 00
4573: 852D   STAz 2D
4575: D8     CLD
4576: F8     SED
4577: 38     SEC
4578: A52C   LDAz 2C
457A: E901   SBCim 01
457C: 852C   STAz 2C
457E: A52D   LDAz 2D
4580: E900   SBCim 00
4582: 852D   STAz 2D
4584: D8     CLD
4585: 9006   BCC +6>8D
4587: 20731F JSR 1F73 texteditor.sr3
458A: 18     CLC
458B: 90E9   BCC -23>76
458D: C8     INY
458E: D002   BNE +2>92
4590: E62F   INCz 2F
4592: 842E   STYz 2E
4594: 60     RTS
4595: FFFFFF 
4598: FFFFFF 
459B: FFFF22 
459E: 33     
459F: C964   CMPim 64
45A1: D003   BNE +3>A6
45A3: 4CF847 JMP 47F8
45A6: C96D   CMPim 6D
45A8: D003   BNE +3>AD
45AA: 4C706A JMP 6A70
45AD: 38     SEC
45AE: E930   SBCim 30
45B0: C90A   CMPim 0A
45B2: B068   BCS +104>1C
45B4: 4C7846 JMP 4678
45B7: FFFFFF 
45BA: FFFFFF 
45BD: 00     BRK
45BE: 00     BRK
45BF: AD0008 LDA 0800
45C2: C92B   CMPim 2B
45C4: D01B   BNE +27>E1
45C6: AD0108 LDA 0801
45C9: C92B   CMPim 2B
45CB: D003   BNE +3>D0
45CD: 4CAF46 JMP 46AF
45D0: C920   CMPim 20
45D2: D003   BNE +3>D7
45D4: 4CD546 JMP 46D5
45D7: 38     SEC
45D8: E930   SBCim 30
45DA: C90A   CMPim 0A
45DC: B03E   BCS +62>1C
45DE: 4CED46 JMP 46ED
45E1: C92D   CMPim 2D
45E3: D01B   BNE +27>00
45E5: AD0108 LDA 0801
45E8: C92D   CMPim 2D
45EA: D003   BNE +3>EF
45EC: 4CA046 JMP 46A0
45EF: C920   CMPim 20
45F1: D003   BNE +3>F6
45F3: 4C1047 JMP 4710
45F6: 38     SEC
45F7: E930   SBCim 30
45F9: C90A   CMPim 0A
45FB: B01F   BCS +31>1C
45FD: 4C3647 JMP 4736
4600: C965   CMPim 65
4602: D003   BNE +3>07
4604: 4C6347 JMP 4763
4607: C961   CMPim 61
4609: D003   BNE +3>0E
460B: 4C8F47 JMP 478F
460E: C963   CMPim 63
4610: D003   BNE +3>15
4612: 4CAA4A JMP 4AAA
4615: C969   CMPim 69
4617: D086   BNE -122>9F
4619: 4C006A JMP 6A00
461C: 205741 JSR 4157
461F: 2546   ANDz 46 hexedit.da.zweites
4621: 60     RTS
4622: FFFF02 ---- text data
4625: 2346616C 73636865 73204B6F 6D6D616E  '#Falsches Komman'
4635: 646F2320 20202020 202020 'do#        '
4640: 03     
4641: FFFFFF 
4644: FFFFFF 
4647: FFFFFF 
464A: FF0000 
464D: A522   LDAz 22
464F: C52C   CMPz 2C
4651: A523   LDAz 23
4653: E52D   SBCz 2D
4655: B008   BCS +8>5F
4657: A522   LDAz 22
4659: 852C   STAz 2C
465B: A523   LDAz 23
465D: 852D   STAz 2D
465F: 60     RTS
4660: FFFFFF 
4663: FF0000 
4666: A554   LDAz 54
4668: F003   BEQ +3>6D
466A: 204044 JSR 4440
466D: A524   LDAz 24
466F: D006   BNE +6>77
4671: 205045 JSR 4550
4674: 206040 JSR 4060
4677: 60     RTS
4678: A900   LDAim 00
467A: 854D   STAz 4D
467C: 20FF44 JSR 44FF
467F: 204D46 JSR 464D
4682: A52C   LDAz 2C
4684: D007   BNE +7>8D
4686: A52D   LDAz 2D
4688: D003   BNE +3>8D
468A: 4CA046 JMP 46A0
468D: 206646 JSR 4666
4690: 60     RTS
4691: FFFFFF 
4694: FFFFFF 
4697: FFFFFF 
469A: FFFFFF 
469D: FF0000 
46A0: A001   LDYim 01
46A2: 842C   STYz 2C
46A4: 88     DEY
46A5: 842D   STYz 2D
46A7: 206646 JSR 4666
46AA: 60     RTS
46AB: FFFF00 
46AE: 00     BRK
46AF: A924   LDAim 24
46B1: C522   CMPz 22
46B3: A900   LDAim 00
46B5: E523   SBCz 23
46B7: 9003   BCC +3>BC
46B9: 4CA046 JMP 46A0
46BC: F8     SED
46BD: 38     SEC
46BE: A522   LDAz 22
46C0: E923   SBCim 23
46C2: 852C   STAz 2C
46C4: A523   LDAz 23
46C6: E900   SBCim 00
46C8: 852D   STAz 2D
46CA: D8     CLD
46CB: 206646 JSR 4666
46CE: 60     RTS
46CF: FFFFFF 
46D2: FF0000 
46D5: F8     SED
46D6: 18     CLC
46D7: A52A   LDAz 2A
46D9: 6923   ADCim 23
46DB: 852C   STAz 2C
46DD: A52B   LDAz 2B
46DF: 6900   ADCim 00
46E1: 852D   STAz 2D
46E3: D8     CLD
46E4: 204D46 JSR 464D
46E7: 206646 JSR 4666
46EA: 60     RTS
46EB: 00     BRK
46EC: 00     BRK
46ED: A901   LDAim 01
46EF: 854D   STAz 4D
46F1: 20FF44 JSR 44FF
46F4: F8     SED
46F5: 18     CLC
46F6: A52A   LDAz 2A
46F8: 652C   ADCz 2C
46FA: 852C   STAz 2C
46FC: A52B   LDAz 2B
46FE: 652D   ADCz 2D
4700: 852D   STAz 2D
4702: D8     CLD
4703: 204D46 JSR 464D
4706: 206646 JSR 4666
4709: 60     RTS
470A: FFFFFF 
470D: FF2233 
4710: A925   LDAim 25
4712: C52A   CMPz 2A
4714: A900   LDAim 00
4716: E52B   SBCz 2B
4718: 9003   BCC +3>1D
471A: 4CA046 JMP 46A0
471D: F8     SED
471E: 38     SEC
471F: A52A   LDAz 2A
4721: E923   SBCim 23
4723: 852C   STAz 2C
4725: A52B   LDAz 2B
4727: E900   SBCim 00
4729: 852D   STAz 2D
472B: D8     CLD
472C: 206646 JSR 4666
472F: 60     RTS
4730: FFFFFF 
4733: FF2233 
4736: A901   LDAim 01
4738: 854D   STAz 4D
473A: 20FF44 JSR 44FF
473D: F8     SED
473E: 38     SEC
473F: A52A   LDAz 2A
4741: E52C   SBCz 2C
4743: 852C   STAz 2C
4745: A52B   LDAz 2B
4747: E52D   SBCz 2D
4749: 852D   STAz 2D
474B: D8     CLD
474C: 9008   BCC +8>56
474E: A52C   LDAz 2C
4750: D007   BNE +7>59
4752: A52D   LDAz 2D
4754: D003   BNE +3>59
4756: 4CA046 JMP 46A0
4759: 206646 JSR 4666
475C: 60     RTS
475D: FFFFFF 
4760: FF2233 
4763: A901   LDAim 01
4765: 854D   STAz 4D
4767: 20DA44 JSR 44DA
476A: A54F   LDAz 4F
476C: C5E8   CMPz E8 editor.CENDL
476E: A550   LDAz 50
4770: E5E9   SBCz E9 editor.CENDH
4772: 900B   BCC +11>7F
4774: A54F   LDAz 4F
4776: 8564   STAz 64
4778: A550   LDAz 50
477A: 8565   STAz 65
477C: 202340 JSR 4023
477F: A004   LDYim 04
4781: A920   LDAim 20
4783: 990008 STAy 0800
4786: 88     DEY
4787: 10FA   BPL -6>83
4789: 206423 JSR 2364 hexedit.Home
478C: 60     RTS
478D: 22     
478E: 33     
478F: A901   LDAim 01
4791: 854D   STAz 4D
4793: 20DA44 JSR 44DA
4796: A54F   LDAz 4F
4798: 8562   STAz 62
479A: A550   LDAz 50
479C: 8563   STAz 63
479E: 206C43 JSR 436C
47A1: 60     RTS
47A2: FFFFFF 
47A5: 22     
47A6: 33     
47A7: 20D038 JSR 38D0 rkv.initBs
47AA: 206624 JSR 2466 hexedit.openOutVideo
47AD: 208B24 JSR 248B hexedit.openInHexKb
47B0: 206C43 JSR 436C
47B3: 206024 JSR 2460 hexedit.read
47B6: 48     PHA
47B7: AD1B08 LDA 081B
47BA: C920   CMPim 20
47BC: F009   BEQ +9>C7
47BE: 205741 JSR 4157
47C1: E041   CPXim 41
47C3: EA     NOP
47C4: EA     NOP
47C5: EA     NOP
47C6: EA     NOP
47C7: 68     PLA
47C8: 20D447 JSR 47D4
47CB: 4CB347 JMP 47B3
47CE: FFFFFF 
47D1: FF2233 
47D4: C920   CMPim 20
47D6: B008   BCS +8>E0
47D8: C908   CMPim 08
47DA: 900A   BCC +10>E6
47DC: C90D   CMPim 0D
47DE: B006   BCS +6>E6
47E0: E654   INCz 54
47E2: 206324 JSR 2463 hexedit.write
47E5: 60     RTS
47E6: C91D   CMPim 1D
47E8: D008   BNE +8>F2
47EA: A499   LDYz 99 hexedit.video2
47EC: D0F4   BNE -12>E2
47EE: 20BF45 JSR 45BF
47F1: 60     RTS
47F2: 4C0049 JMP 4900
47F5: FF2233 
47F8: 205741 JSR 4157
47FB: 2648   ROLz 48 hexedit.da.adrL
47FD: A52E   LDAz 2E
47FF: A62F   LDXz 2F
4801: 8560   STAz 60
4803: 8661   STXz 61
4805: 206F24 JSR 246F hexedit.openOutStarTty
4808: 205848 JSR 4858
480B: 206924 JSR 2469 hexedit.openOutVideo2
480E: 205741 JSR 4157
4811: E041   CPXim 41
4813: A920   LDAim 20
4815: 8D0008 STA 0800
4818: 206423 JSR 2364 hexedit.Home
481B: 60     RTS
481C: FFFFFF 
481F: FFFF22 
4822: 33     
4823: FFFF02 ---- text data
4826: 44727563 6B65726B 6F706965 20202020  'Druckerkopie    '
4836: 20202020 20202020 20202020 20 '             '
4843: 03     
4844: 03     
4845: 03     
4846: 03     
4847: 03     
4848: A560   LDAz 60
484A: C5E8   CMPz E8 editor.CENDL
484C: A561   LDAz 61
484E: E5E9   SBCz E9 editor.CENDH
4850: 08     PHP
4851: 20FE23 JSR 23FE hexedit.block.readFile
4854: 28     PLP
4855: 60     RTS
4856: 22     
4857: 33     
4858: 204848 JSR 4848
485B: 9001   BCC +1>5E
485D: 60     RTS
485E: C940   CMPim 40
4860: F006   BEQ +6>68
4862: 206324 JSR 2463 hexedit.write
4865: 4C5848 JMP 4858
4868: 204848 JSR 4848
486B: B053   BCS +83>C0
486D: C927   CMPim 27
486F: F00D   BEQ +13>7E
4871: 48     PHA
4872: A940   LDAim 40
4874: 206324 JSR 2463 hexedit.write
4877: 68     PLA
4878: 206324 JSR 2463 hexedit.write
487B: 4C5848 JMP 4858
487E: 204848 JSR 4848
4881: B043   BCS +67>C6
4883: C920   CMPim 20
4885: F0F7   BEQ -9>7E
4887: C91D   CMPim 1D
4889: F0F3   BEQ -13>7E
488B: C927   CMPim 27
488D: F0C9   BEQ -55>58
488F: 20C044 JSR 44C0
4892: B020   BCS +32>B4
4894: 8533   STAz 33
4896: 204848 JSR 4848
4899: B036   BCS +54>D1
489B: C927   CMPim 27
489D: F0B9   BEQ -71>58
489F: 20C044 JSR 44C0
48A2: B010   BCS +16>B4
48A4: 0633   ASLz 33
48A6: 0633   ASLz 33
48A8: 0633   ASLz 33
48AA: 0633   ASLz 33
48AC: 0533   ORAz 33
48AE: 205C20 JSR 205C drucker.outStar
48B1: 4C7E48 JMP 487E
48B4: 204848 JSR 4848
48B7: 9001   BCC +1>BA
48B9: 60     RTS
48BA: C927   CMPim 27
48BC: D0F6   BNE -10>B4
48BE: F098   BEQ -104>58
48C0: A940   LDAim 40
48C2: 206324 JSR 2463 hexedit.write
48C5: 60     RTS
48C6: A940   LDAim 40
48C8: 206324 JSR 2463 hexedit.write
48CB: A927   LDAim 27
48CD: 206324 JSR 2463 hexedit.write
48D0: 60     RTS
48D1: 20C648 JSR 48C6
48D4: A533   LDAz 33
48D6: 20E224 JSR 24E2 hexedit.Nibble
48D9: 60     RTS
48DA: FFFFFF 
48DD: FFFFFF 
48E0: FFFFFF 
48E3: FFFFFF 
48E6: FFFFFF 
48E9: FFFFFF 
48EC: FFFFFF 
48EF: FFFFFF 
48F2: FFFFFF 
48F5: FFFFFF 
48F8: FFFFFF 
48FB: FFFFFF 
48FE: 22     
48FF: 33     
4900: C905   CMPim 05
4902: F01A   BEQ +26>1E
4904: C906   CMPim 06
4906: F037   BEQ +55>3F
4908: C911   CMPim 11
490A: F051   BEQ +81>5D
490C: C912   CMPim 12
490E: D003   BNE +3>13
4910: 4CF149 JMP 49F1
4913: 60     RTS
4914: FFFFFF 
4917: FFFFFF 
491A: FFFF22 
491D: 33     
491E: A54C   LDAz 4C
4920: 18     CLC
4921: E598   SBCz 98 hexedit.videoSpa
4923: A8     TAY
4924: 88     DEY
4925: 300B   BMI +11>32
4927: 20911F JSR 1F91 texteditor.sr5
492A: 8A     TXAa
492B: C8     INY
492C: 919A   STAiy 9A hexedit.video3
492E: 88     DEY
492F: 88     DEY
4930: 10F5   BPL -11>27
4932: A920   LDAim 20
4934: C8     INY
4935: 919A   STAiy 9A hexedit.video3
4937: 60     RTS
4938: FFFFFF 
493B: FFFF22 
493E: 33     
493F: A54C   LDAz 4C
4941: 38     SEC
4942: E598   SBCz 98 hexedit.videoSpa
4944: 852C   STAz 2C
4946: A001   LDYim 01
4948: 20911F JSR 1F91 texteditor.sr5
494B: 8A     TXAa
494C: 88     DEY
494D: 919A   STAiy 9A hexedit.video3
494F: C8     INY
4950: C8     INY
4951: C42C   CPYz 2C
4953: 90F3   BCC -13>48
4955: A920   LDAim 20
4957: 88     DEY
4958: 919A   STAiy 9A hexedit.video3
495A: 60     RTS
495B: 22     
495C: 33     
495D: A599   LDAz 99 hexedit.video2
495F: 48     PHA
4960: A52B   LDAz 2B
4962: 48     PHA
4963: A52A   LDAz 2A
4965: 48     PHA
4966: A599   LDAz 99 hexedit.video2
4968: F009   BEQ +9>73
496A: 38     SEC
496B: E901   SBCim 01
496D: C90A   CMPim 0A
496F: 9002   BCC +2>73
4971: 6905   ADCim 05
4973: EA     NOP
4974: EA     NOP
4975: 48     PHA
4976: EA     NOP
4977: EA     NOP
4978: EA     NOP
4979: EA     NOP
497A: 204044 JSR 4440
497D: A524   LDAz 24
497F: F005   BEQ +5>86
4981: 68     PLA
4982: 68     PLA
4983: 68     PLA
4984: 68     PLA
4985: 60     RTS
4986: 68     PLA
4987: F8     SED
4988: 18     CLC
4989: 652A   ADCz 2A
498B: 852C   STAz 2C
498D: A900   LDAim 00
498F: 652B   ADCz 2B
4991: 852D   STAz 2D
4993: D8     CLD
4994: 205045 JSR 4550
4997: A901   LDAim 01
4999: A200   LDXim 00
499B: 854D   STAz 4D
499D: 864E   STXz 4E
499F: 207042 JSR 4270
49A2: 20B942 JSR 42B9
49A5: A524   LDAz 24
49A7: D030   BNE +48>D9
49A9: A52E   LDAz 2E
49AB: A62F   LDXz 2F
49AD: 85CA   STAz CA bs.Transfer3.vonL
49AF: 86CB   STXz CB bs.Transfer3.vonH
49B1: A5E8   LDAz E8 editor.CENDL
49B3: C5CA   CMPz CA bs.Transfer3.vonL
49B5: A5E9   LDAz E9 editor.CENDH
49B7: E5CB   SBCz CB bs.Transfer3.vonH
49B9: 901E   BCC +30>D9
49BB: 209B42 JSR 429B
49BE: A91D   LDAim 1D
49C0: A000   LDYim 00
49C2: 912E   STAiy 2E
49C4: F8     SED
49C5: 18     CLC
49C6: A522   LDAz 22
49C8: 6901   ADCim 01
49CA: 8522   STAz 22
49CC: A523   LDAz 23
49CE: 6900   ADCim 00
49D0: 8523   STAz 23
49D2: D8     CLD
49D3: E6E8   INCz E8 editor.CENDL
49D5: D002   BNE +2>D9
49D7: E6E9   INCz E9 editor.CENDH
49D9: 68     PLA
49DA: 852C   STAz 2C
49DC: 68     PLA
49DD: 852D   STAz 2D
49DF: 205045 JSR 4550
49E2: 206040 JSR 4060
49E5: 68     PLA
49E6: 8599   STAz 99 hexedit.video2
49E8: 20FD22 JSR 22FD hexedit.cursAdrSql
49EB: 60     RTS
49EC: FFFFFF 
49EF: 22     
49F0: 33     
49F1: A59B   LDAz 9B hexedit.video4
49F3: 48     PHA
49F4: A59A   LDAz 9A hexedit.video3
49F6: 48     PHA
49F7: 38     SEC
49F8: E598   SBCz 98 hexedit.videoSpa
49FA: 859A   STAz 9A hexedit.video3
49FC: B002   BCS +2>00
49FE: C69B   DECz 9B hexedit.video4
4A00: A44C   LDYz 4C
4A02: 88     DEY
4A03: A920   LDAim 20
4A05: 919A   STAiy 9A hexedit.video3
4A07: 88     DEY
4A08: 10FB   BPL -5>05
4A0A: 68     PLA
4A0B: 859A   STAz 9A hexedit.video3
4A0D: 68     PLA
4A0E: 859B   STAz 9B hexedit.video4
4A10: A599   LDAz 99 hexedit.video2
4A12: 48     PHA
4A13: A52B   LDAz 2B
4A15: 48     PHA
4A16: A52A   LDAz 2A
4A18: 48     PHA
4A19: A599   LDAz 99 hexedit.video2
4A1B: C900   CMPim 00
4A1D: F009   BEQ +9>28
4A1F: 38     SEC
4A20: E901   SBCim 01
4A22: C90A   CMPim 0A
4A24: 9002   BCC +2>28
4A26: 6905   ADCim 05
4A28: 48     PHA
4A29: EA     NOP
4A2A: EA     NOP
4A2B: EA     NOP
4A2C: EA     NOP
4A2D: 204044 JSR 4440
4A30: A524   LDAz 24
4A32: F005   BEQ +5>39
4A34: 68     PLA
4A35: 68     PLA
4A36: 68     PLA
4A37: 68     PLA
4A38: 60     RTS
4A39: 68     PLA
4A3A: F8     SED
4A3B: 18     CLC
4A3C: 652A   ADCz 2A
4A3E: 852C   STAz 2C
4A40: A900   LDAim 00
4A42: 652B   ADCz 2B
4A44: 852D   STAz 2D
4A46: D8     CLD
4A47: 205045 JSR 4550
4A4A: A62E   LDXz 2E
4A4C: A42F   LDYz 2F
4A4E: 86CE   STXz CE bs.Transfer3.nachL
4A50: 84CF   STYz CF bs.Transfer3.nachH
4A52: E8     INX
4A53: D001   BNE +1>56
4A55: C8     INY
4A56: 86CA   STXz CA bs.Transfer3.vonL
4A58: 84CB   STYz CB bs.Transfer3.vonH
4A5A: A5E8   LDAz E8 editor.CENDL
4A5C: A6E9   LDXz E9 editor.CENDH
4A5E: 85CC   STAz CC bs.Transfer3.bisL
4A60: 86CD   STXz CD bs.Transfer3.bisH
4A62: C5CA   CMPz CA bs.Transfer3.vonL
4A64: 8A     TXAa
4A65: E5CB   SBCz CB bs.Transfer3.vonH
4A67: 901A   BCC +26>83
4A69: 20861F JSR 1F86 texteditor.sr4
4A6C: F8     SED
4A6D: 38     SEC
4A6E: A522   LDAz 22
4A70: E901   SBCim 01
4A72: 8522   STAz 22
4A74: A523   LDAz 23
4A76: E900   SBCim 00
4A78: 8523   STAz 23
4A7A: D8     CLD
4A7B: A5E8   LDAz E8 editor.CENDL
4A7D: D002   BNE +2>81
4A7F: C6E9   DECz E9 editor.CENDH
4A81: C6E8   DECz E8 editor.CENDL
4A83: 68     PLA
4A84: 852C   STAz 2C
4A86: 68     PLA
4A87: 852D   STAz 2D
4A89: 205045 JSR 4550
4A8C: 206040 JSR 4060
4A8F: 68     PLA
4A90: 8599   STAz 99 hexedit.video2
4A92: 20FD22 JSR 22FD hexedit.cursAdrSql
4A95: 60     RTS
4A96: FFFFFF 
4A99: FFFFFF 
4A9C: FFFFFF 
4A9F: FFFFFF 
4AA2: FFFFFF 
4AA5: FFFFFF 
4AA8: 22     
4AA9: 33     
4AAA: A907   LDAim 07
4AAC: 20E01F JSR 1FE0 bios.activate EPROM segments(AC)
4AAF: A901   LDAim 01
4AB1: 8D081A STA 1A08 bs.param.ROMStatusMaster
4AB4: 4CF0D3 JMP D3F0
4AB7: FFFFFF 
4ABA: FFFFFF 
4ABD: FFFFFF 
4AC0: FFFFFF 
4AC3: FFFFFF 
4AC6: FFFFFF 
4AC9: FFFFFF 
4ACC: FFFFFF 
4ACF: FFFFFF 
4AD2: FFFFFF 
4AD5: FFFFFF 
4AD8: FFFFFF 
4ADB: FFFFFF 
4ADE: FFFFFF 
4AE1: FFFFFF 
4AE4: FFFFFF 
4AE7: FFFFFF 
4AEA: FFFFFF 
4AED: FFFFFF 
4AF0: FFFFFF 
4AF3: FFFFFF 
4AF6: FFFFFF 
4AF9: FFFFFF 
4AFC: FFFF22 
4AFF: 33     
4B00: A900   LDAim 00
4B02: 8524   STAz 24
4B04: A901   LDAim 01
4B06: 854D   STAz 4D
4B08: 20FF44 JSR 44FF
4B0B: A52C   LDAz 2C
4B0D: A62D   LDXz 2D
4B0F: 8526   STAz 26
4B11: 8627   STXz 27
4B13: A44D   LDYz 4D
4B15: B90008 LDAy 0800
4B18: C92D   CMPim 2D
4B1A: F003   BEQ +3>1F
4B1C: E624   INCz 24
4B1E: 60     RTS
4B1F: E64D   INCz 4D
4B21: 20FF44 JSR 44FF
4B24: F8     SED
4B25: 18     CLC
4B26: A52C   LDAz 2C
4B28: 6901   ADCim 01
4B2A: 8528   STAz 28
4B2C: A52D   LDAz 2D
4B2E: 6900   ADCim 00
4B30: 8529   STAz 29
4B32: D8     CLD
4B33: A44D   LDYz 4D
4B35: B90008 LDAy 0800
4B38: C92D   CMPim 2D
4B3A: F003   BEQ +3>3F
4B3C: E624   INCz 24
4B3E: 60     RTS
4B3F: E64D   INCz 4D
4B41: 20FF44 JSR 44FF
4B44: 60     RTS
4B45: FFFFFF 
4B48: FFFFFE 
4B4B: 22     
4B4C: 33     
4B4D: A900   LDAim 00
4B4F: 8524   STAz 24
4B51: A626   LDXz 26
4B53: A527   LDAz 27
4B55: E428   CPXz 28
4B57: E529   SBCz 29
4B59: 9003   BCC +3>5E
4B5B: E624   INCz 24
4B5D: 60     RTS
4B5E: A527   LDAz 27
4B60: E42C   CPXz 2C
4B62: E52D   SBCz 2D
4B64: B00D   BCS +13>73
4B66: A62C   LDXz 2C
4B68: A52D   LDAz 2D
4B6A: E428   CPXz 28
4B6C: E529   SBCz 29
4B6E: B003   BCS +3>73
4B70: E624   INCz 24
4B72: 60     RTS
4B73: F8     SED
4B74: 18     CLC
4B75: A522   LDAz 22
4B77: 6901   ADCim 01
4B79: AA     TAX
4B7A: A523   LDAz 23
4B7C: 6900   ADCim 00
4B7E: D8     CLD
4B7F: 48     PHA
4B80: E428   CPXz 28
4B82: E529   SBCz 29
4B84: 68     PLA
4B85: B003   BCS +3>8A
4B87: E624   INCz 24
4B89: 60     RTS
4B8A: E42C   CPXz 2C
4B8C: E52D   SBCz 2D
4B8E: B002   BCS +2>92
4B90: E624   INCz 24
4B92: 60     RTS
4B93: FFFFFF 
4B96: FFFFFF 
4B99: FFFFFF 
4B9C: FFFFFF 
4B9F: FFFFFF 
4BA2: FFFFFF 
4BA5: FFFFFF 
4BA8: FFFFFF 
4BAB: FFFFFF 
4BAE: FFFFFF 
4BB1: FFFFFF 
4BB4: FFFFFF 
4BB7: FFFFFF 
4BBA: FFFFFF 
4BBD: FFFFFF 
4BC0: FFFFFF 
4BC3: FFFFFF 
4BC6: FFFFFF 
4BC9: FFFFFF 
4BCC: FFFFFF 
4BCF: FFFFFF 
4BD2: FFFFFF 
4BD5: FFFFFF 
4BD8: FFFFFF 
4BDB: FFFFFF 
4BDE: FFFFFF 
4BE1: FFFFFF 
4BE4: FFFFFF 
4BE7: FFFFFF 
4BEA: FFFFFF 
4BED: FFFFFF 
4BF0: FFFFFF 
4BF3: FFFFFF 
4BF6: FFFFFF 
4BF9: FFFFFF 
4BFC: FFFF22 
4BFF: 33     
4C00: 4C6D4D JMP 4D6D
4C03: 4C2B4E JMP 4E2B
4C06: FFFFFF 
4C09: 22     
4C0A: 33     
4C0B: 290F   ANDim 0F
4C0D: 48     PHA
4C0E: A9FF   LDAim FF
4C10: 8D0214 STA 1402 VIA.DDRB
4C13: 68     PLA
4C14: 8D0014 STA 1400 VIA.ORB/IRB
4C17: 0990   ORAim 90
4C19: 8D0014 STA 1400 VIA.ORB/IRB
4C1C: 291F   ANDim 1F
4C1E: 8D0014 STA 1400 VIA.ORB/IRB
4C21: 60     RTS
4C22: FFFF22 
4C25: 33     
4C26: 200B4C JSR 4C0B
4C29: 48     PHA
4C2A: A2F0   LDXim F0
4C2C: 8E0214 STX 1402 VIA.DDRB
4C2F: 68     PLA
4C30: 0950   ORAim 50
4C32: 8D0014 STA 1400 VIA.ORB/IRB
4C35: AD0014 LDA 1400 VIA.ORB/IRB
4C38: 290F   ANDim 0F
4C3A: 8D0014 STA 1400 VIA.ORB/IRB
4C3D: 60     RTS
4C3E: 33     
4C3F: 200B4C JSR 4C0B
4C42: 8A     TXAa
4C43: 290F   ANDim 0F
4C45: 0910   ORAim 10
4C47: 8D0014 STA 1400 VIA.ORB/IRB
4C4A: 0930   ORAim 30
4C4C: 8D0014 STA 1400 VIA.ORB/IRB
4C4F: 290F   ANDim 0F
4C51: 8D0014 STA 1400 VIA.ORB/IRB
4C54: A2F0   LDXim F0
4C56: 8E0214 STX 1402 VIA.DDRB
4C59: 60     RTS
4C5A: 33     
4C5B: A000   LDYim 00
4C5D: 98     TYA
4C5E: 20264C JSR 4C26
4C61: 99501A STAy 1A50
4C64: C8     INY
4C65: C00D   CPYim 0D
4C67: D0F4   BNE -12>5D
4C69: A900   LDAim 00
4C6B: 20264C JSR 4C26
4C6E: CD501A CMP 1A50
4C71: D0E8   BNE -24>5B
4C73: 60     RTS
4C74: FFFFFF 
4C77: FF2233 
4C7A: 08     PHP
4C7B: 78     SEI
4C7C: A90D   LDAim 0D
4C7E: 200B4C JSR 4C0B
4C81: A000   LDYim 00
4C83: BE501A LDXy 1A50
4C86: 98     TYA
4C87: 203F4C JSR 4C3F
4C8A: C8     INY
4C8B: C00D   CPYim 0D
4C8D: D0F4   BNE -12>83
4C8F: 28     PLP
4C90: 60     RTS
4C91: FFFFFF 
4C94: FFFFFF 
4C97: 22     
4C98: 33     
4C99: 205B4C JSR 4C5B
4C9C: A200   LDXim 00
4C9E: A000   LDYim 00
4CA0: BD511A LDAx 1A51
4CA3: 0A     ASLa
4CA4: 0A     ASLa
4CA5: 0A     ASLa
4CA6: 0A     ASLa
4CA7: 1D501A ORAx 1A50
4CAA: 99501A STAy 1A50
4CAD: C8     INY
4CAE: E8     INX
4CAF: E8     INX
4CB0: E006   CPXim 06
4CB2: D001   BNE +1>B5
4CB4: E8     INX
4CB5: E00D   CPXim 0D
4CB7: D0E7   BNE -25>A0
4CB9: AD521A LDA 1A52
4CBC: 297F   ANDim 7F
4CBE: 8D521A STA 1A52
4CC1: 60     RTS
4CC2: FFFFFF 
4CC5: FFFFFF 
4CC8: FFFF22 
4CCB: 33     
4CCC: AE561A LDX 1A56
4CCF: BDE44D LDAx 4DE4
4CD2: 206324 JSR 2463 hexedit.write
4CD5: AE561A LDX 1A56
4CD8: BDDD4D LDAx 4DDD
4CDB: 206324 JSR 2463 hexedit.write
4CDE: 60     RTS
4CDF: FFFFFF 
4CE2: FFFFFF 
4CE5: FFFFFF 
4CE8: FFFFFF 
4CEB: FF2233 
4CEE: A906   LDAim 06
4CF0: 20264C JSR 4C26
4CF3: 85FB   STAz FB monitor.POINTH
4CF5: A901   LDAim 01
4CF7: 85F6   STAz F6 monitor.BYTES
4CF9: 208E1D JSR 1D8E monitor.SCANDS
4CFC: 60     RTS
4CFD: FF2233 
4D00: A905   LDAim 05
4D02: A6EC   LDXz EC
4D04: F002   BEQ +2>08
4D06: A90C   LDAim 0C
4D08: 85EE   STAz EE
4D0A: A002   LDYim 02
4D0C: 20264C JSR 4C26
4D0F: 0A     ASLa
4D10: 0A     ASLa
4D11: 0A     ASLa
4D12: 0A     ASLa
4D13: 99F900 STAy 00F9 monitor.INH
4D16: C6EE   DECz EE
4D18: A5EE   LDAz EE
4D1A: 20264C JSR 4C26
4D1D: 19F900 ORAy 00F9 monitor.INH
4D20: 99F900 STAy 00F9 monitor.INH
4D23: C6EE   DECz EE
4D25: A5EE   LDAz EE
4D27: 88     DEY
4D28: 10E2   BPL -30>0C
4D2A: A903   LDAim 03
4D2C: 85F6   STAz F6 monitor.BYTES
4D2E: 208E1D JSR 1D8E monitor.SCANDS
4D31: 60     RTS
4D32: FFFFFF 
4D35: FF2233 
4D38: A5EC   LDAz EC
4D3A: C901   CMPim 01
4D3C: D003   BNE +3>41
4D3E: 4CEE4C JMP 4CEE
4D41: 4C004D JMP 4D00
4D44: FFFFFF 
4D47: FF2233 
4D4A: 20384D JSR 4D38
4D4D: D0FB   BNE -5>4A
4D4F: 20384D JSR 4D38
4D52: F0FB   BEQ -5>4F
4D54: 20384D JSR 4D38
4D57: F0F6   BEQ -10>4F
4D59: 20F91D JSR 1DF9 monitor.GETKEY
4D5C: 60     RTS
4D5D: FFFFFF 
4D60: FFFFFF 
4D63: FFFF22 
4D66: 33     
4D67: 0506   ORAz 06
4D69: 0C     
4D6A: FF2233 
4D6D: A903   LDAim 03
4D6F: 8D081A STA 1A08 bs.param.ROMStatusMaster
4D72: 20DD1F JSR 1FDD bios.activate EPROM segments(1A08)
4D75: A900   LDAim 00
4D77: 8D0214 STA 1402 VIA.DDRB
4D7A: 8D0014 STA 1400 VIA.ORB/IRB
4D7D: 85EC   STAz EC
4D7F: A9F0   LDAim F0
4D81: 8D0214 STA 1402 VIA.DDRB
4D84: 204A4D JSR 4D4A
4D87: C910   CMPim 10
4D89: F004   BEQ +4>8F
4D8B: B0F7   BCS -9>84
4D8D: 9011   BCC +17>A0
4D8F: A6EC   LDXz EC
4D91: CA     DEX
4D92: 1002   BPL +2>96
4D94: A202   LDXim 02
4D96: 86EC   STXz EC
4D98: BD674D LDAx 4D67
4D9B: 85ED   STAz ED
4D9D: 18     CLC
4D9E: 90E4   BCC -28>84
4DA0: AA     TAX
4DA1: A5ED   LDAz ED
4DA3: 203F4C JSR 4C3F
4DA6: A6ED   LDXz ED
4DA8: BDC04D LDAx 4DC0
4DAB: 85ED   STAz ED
4DAD: 18     CLC
4DAE: 90D4   BCC -44>84
4DB0: FFFFFF 
4DB3: FFFFFF 
4DB6: FFFFFF 
4DB9: FFFFFF 
4DBC: FFFF22 
4DBF: 33     
4DC0: 0500   ORAz 00
4DC2: 0102   ORAix 02
4DC4: 03     
4DC5: 04     
4DC6: 060C   ASLz 0C
4DC8: 07     
4DC9: 08     PHP
4DCA: 090A   ORAim 0A
4DCC: 0B     
4DCD: FFFF6D 
4DD0: 4D037A EOR 7A03
4DD3: 6569   ADCz 69
4DD5: 74     
4DD6: 20FFFF JSR FFFF bios.flag EPROM Bank
4DD9: FFFF22 
4DDC: 33     
4DDD: 6F     
4DDE: 6969   ADCim 69
4DE0: 6F     
4DE1: 72     
4DE2: 616F   ADCix 6F
4DE4: 4D444D EOR 4D44
4DE7: 44     
4DE8: 4653   LSRz 53
4DEA: 53     
4DEB: FF2233 
4DEE: AD531A LDA 1A53
4DF1: 20EF24 JSR 24EF hexedit.byteDru
4DF4: A92E   LDAim 2E
4DF6: 206324 JSR 2463 hexedit.write
4DF9: AD541A LDA 1A54
4DFC: 20EF24 JSR 24EF hexedit.byteDru
4DFF: A92E   LDAim 2E
4E01: 206324 JSR 2463 hexedit.write
4E04: AD551A LDA 1A55
4E07: 20EF24 JSR 24EF hexedit.byteDru
4E0A: 60     RTS
4E0B: AD521A LDA 1A52
4E0E: 20EF24 JSR 24EF hexedit.byteDru
4E11: A93A   LDAim 3A
4E13: 206324 JSR 2463 hexedit.write
4E16: AD511A LDA 1A51
4E19: 20EF24 JSR 24EF hexedit.byteDru
4E1C: A93A   LDAim 3A
4E1E: 206324 JSR 2463 hexedit.write
4E21: AD501A LDA 1A50
4E24: 20EF24 JSR 24EF hexedit.byteDru
4E27: 60     RTS
4E28: FF2233 
4E2B: A903   LDAim 03
4E2D: 8D081A STA 1A08 bs.param.ROMStatusMaster
4E30: 20DD1F JSR 1FDD bios.activate EPROM segments(1A08)
4E33: 206624 JSR 2466 hexedit.openOutVideo
4E36: 20994C JSR 4C99
4E39: AD501A LDA 1A50
4E3C: 48     PHA
4E3D: 20EE4D JSR 4DEE
4E40: 20C924 JSR 24C9 hexedit.2Blanks
4E43: 20CC4C JSR 4CCC
4E46: 20C924 JSR 24C9 hexedit.2Blanks
4E49: 200B4E JSR 4E0B
4E4C: 20D424 JSR 24D4 hexedit.CR
4E4F: 20994C JSR 4C99
4E52: 68     PLA
4E53: 48     PHA
4E54: CD501A CMP 1A50
4E57: F0F6   BEQ -10>4F
4E59: 68     PLA
4E5A: 18     CLC
4E5B: 90DC   BCC -36>39
4E5D: FFFFFF 
4E60: FF2233 
4E63: A2F6   LDXim F6
4E65: A9FF   LDAim FF
4E67: 8660   STXz 60
4E69: 8561   STAz 61
4E6B: 20DF4E JSR 4EDF
4E6E: 9001   BCC +1>71
4E70: 60     RTS
4E71: A005   LDYim 05
4E73: 84EA   STYz EA
4E75: 20BE1F JSR 1FBE bios.read 1 byte from EPROM
4E78: 8A     TXAa
4E79: C920   CMPim 20
4E7B: F009   BEQ +9>86
4E7D: 206324 JSR 2463 hexedit.write
4E80: A4EA   LDYz EA
4E82: C8     INY
4E83: 18     CLC
4E84: 90ED   BCC -19>73
4E86: 20CE24 JSR 24CE hexedit.Blank
4E89: A598   LDAz 98 hexedit.videoSpa
4E8B: 290F   ANDim 0F
4E8D: D0F7   BNE -9>86
4E8F: F0DA   BEQ -38>6B
4E91: FFFFFF 
4E94: 22     
4E95: 33     
4E96: A2F6   LDXim F6
4E98: A9FF   LDAim FF
4E9A: 8660   STXz 60
4E9C: 8561   STAz 61
4E9E: 20DF4E JSR 4EDF
4EA1: 9001   BCC +1>A4
4EA3: 60     RTS
4EA4: A005   LDYim 05
4EA6: 20BE1F JSR 1FBE bios.read 1 byte from EPROM
4EA9: 8A     TXAa
4EAA: D9D302 CMPy 02D3
4EAD: D0EF   BNE -17>9E
4EAF: C920   CMPim 20
4EB1: F005   BEQ +5>B8
4EB3: C8     INY
4EB4: C025   CPYim 25
4EB6: D0EE   BNE -18>A6
4EB8: A004   LDYim 04
4EBA: 20EA4F JSR 4FEA
4EBD: 8A     TXAa
4EBE: 48     PHA
4EBF: 88     DEY
4EC0: 20BE1F JSR 1FBE bios.read 1 byte from EPROM
4EC3: A5EA   LDAz EA
4EC5: 8D081A STA 1A08 bs.param.ROMStatusMaster
4EC8: 68     PLA
4EC9: EA     NOP
4ECA: EA     NOP
4ECB: CA     DEX
4ECC: E0FF   CPXim FF
4ECE: D003   BNE +3>D3
4ED0: 38     SEC
4ED1: E901   SBCim 01
4ED3: 48     PHA
4ED4: 8A     TXAa
4ED5: 48     PHA
4ED6: 4CC41F JMP 1FC4 bios.activate EPROM bank and segments(1A08)
4ED9: FFFFFF 
4EDC: FF2233 
4EDF: A001   LDYim 01
4EE1: 20BE1F JSR 1FBE bios.read 1 byte from EPROM
4EE4: 8A     TXAa
4EE5: 48     PHA
4EE6: 88     DEY
4EE7: 20BE1F JSR 1FBE bios.read 1 byte from EPROM
4EEA: 68     PLA
4EEB: 8660   STXz 60
4EED: 8561   STAz 61
4EEF: E0F0   CPXim F0
4EF1: E9FF   SBCim FF
4EF3: 60     RTS
4EF4: FFFFFF 
4EF7: FF2233 
4EFA: A200   LDXim 00
4EFC: 86EA   STXz EA
4EFE: 206024 JSR 2460 hexedit.read
4F01: 48     PHA
4F02: 206324 JSR 2463 hexedit.write
4F05: 68     PLA
4F06: C980   CMPim 80
4F08: B010   BCS +16>1A
4F0A: C920   CMPim 20
4F0C: 900C   BCC +12>1A
4F0E: A6EA   LDXz EA
4F10: 9DD802 STAx 02D8
4F13: E8     INX
4F14: E020   CPXim 20
4F16: 90E4   BCC -28>FC
4F18: B004   BCS +4>1E
4F1A: A6EA   LDXz EA
4F1C: F00A   BEQ +10>28
4F1E: A920   LDAim 20
4F20: 9DD802 STAx 02D8
4F23: E8     INX
4F24: E020   CPXim 20
4F26: 90F8   BCC -8>20
4F28: 60     RTS
4F29: FFFFFF 
4F2C: FFFF22 
4F2F: 33     
4F30: ------ Directory
4F30: A907   LDAim 07
4F32: 8D081A STA 1A08 bs.param.ROMStatusMaster
4F35: 20DD1F JSR 1FDD bios.activate EPROM segments(1A08)
4F38: 206624 JSR 2466 hexedit.openOutVideo
4F3B: 20D038 JSR 38D0 rkv.initBs
4F3E: 208B24 JSR 248B hexedit.openInHexKb
4F41: A907   LDAim 07
4F43: 8D091A STA 1A09 bs.param.ROMStatusSlave
4F46: 20634E JSR 4E63
4F49: A987   LDAim 87
4F4B: 8D091A STA 1A09 bs.param.ROMStatusSlave
4F4E: 20634E JSR 4E63
4F51: 203821 JSR 2138 drucker.writeplus
4F54: 07     
4F55: 1D4E61 ORAx 614E
4F58: 6D653A ADC 3A65
4F5B: 20EAEA JSR EAEA
4F5E: 20FA4E JSR 4EFA
4F61: A907   LDAim 07
4F63: 8D091A STA 1A09 bs.param.ROMStatusSlave
4F66: 20964E JSR 4E96
4F69: A987   LDAim 87
4F6B: 8D091A STA 1A09 bs.param.ROMStatusSlave
4F6E: 20964E JSR 4E96
4F71: A903   LDAim 03
4F73: 8D081A STA 1A08 bs.param.ROMStatusMaster
4F76: 20C41F JSR 1FC4 bios.activate EPROM bank and segments(1A08)
4F79: 203459 JSR 5934
4F7C: 20FE5B JSR 5BFE
4F7F: AD1C03 LDA 031C
4F82: D020   BNE +32>A4
4F84: 203821 JSR 2138 drucker.writeplus
4F87: 1020   BPL +32>A9
4F89: 6E6963 ROR 6369
4F8C: 68     PLA
4F8D: 74     
4F8E: 206765 JSR 6567
4F91: 6675   RORz 75
4F93: 6E6465 ROR 6564
4F96: 6E20EA ROR EA20
4F99: EA     NOP
4F9A: A901   LDAim 01
4F9C: 8D2016 STA 1620
4F9F: A901   LDAim 01
4FA1: 4C514F JMP 4F51
4FA4: 207565 JSR 6575
4FA7: A002   LDYim 02
4FA9: 200D56 JSR 560D
4FAC: 20A15C JSR 5CA1
4FAF: 48     PHA
4FB0: A020   LDYim 20
4FB2: B1EA   LDAiy EA
4FB4: AA     TAX
4FB5: 68     PLA
4FB6: 8D081A STA 1A08 bs.param.ROMStatusMaster
4FB9: 8DF8FF STA FFF8 bios.flag EPROM lo
4FBC: E00A   CPXim 0A
4FBE: D00C   BNE +12>CC
4FC0: A900   LDAim 00
4FC2: 8D081A STA 1A08 bs.param.ROMStatusMaster
4FC5: A6E2   LDXz E2 editor.BEGADL
4FC7: A5E3   LDAz E3 editor.BEGADH
4FC9: 4CCB4E JMP 4ECB
4FCC: 203821 JSR 2138 drucker.writeplus
4FCF: 0F     
4FD0: 206765 JSR 6567
4FD3: 6C6164 JMPi 6461
4FD6: 656E   ADCz 6E hexedit.zeiTty
4FD8: 2C2053 BIT 5320
4FDB: 54     
4FDC: 4F     
4FDD: 501D   BVC +29>FC
4FDF: EA     NOP
4FE0: EA     NOP
4FE1: 4C1D1C JMP 1C1D monitor.RESET
4FE4: FFFFFF 
4FE7: FF2233 
4FEA: 20BE1F JSR 1FBE bios.read 1 byte from EPROM
4FED: 86EA   STXz EA
4FEF: 88     DEY
4FF0: 20BE1F JSR 1FBE bios.read 1 byte from EPROM
4FF3: 60     RTS
4FF4: FFFFFF 
4FF7: FFFFFF 
4FFA: FFFFFF 
4FFD: FF2233 
5000: ------ Floppy
5000: 4CAD63 JMP 63AD
5003: FFFFFF 
5006: FFFFFF 
5009: FFFFFF 
500C: FF2233 
500F: 2C0016 BIT 1600 floppy.??
5012: 10FB   BPL -5>0F
5014: 8D0116 STA 1601 floppy.??
5017: 60     RTS
5018: FF2233 
501B: 0D6803 ORA 0368
501E: 200F50 JSR 500F
5021: AD6E03 LDA 036E
5024: 0A     ASLa
5025: 0A     ASLa
5026: 0D6903 ORA 0369
5029: 200F50 JSR 500F
502C: A26D   LDXim 6D
502E: A007   LDYim 07
5030: BD0003 LDAx 0300 serial.receive from PC
5033: 2C0016 BIT 1600 floppy.??
5036: 10FB   BPL -5>33
5038: 8D0116 STA 1601 floppy.??
503B: E8     INX
503C: 88     DEY
503D: D0F1   BNE -15>30
503F: 60     RTS
5040: FFFFFF 
5043: FF2233 
5046: A200   LDXim 00
5048: A007   LDYim 07
504A: 2C0016 BIT 1600 floppy.??
504D: 10FB   BPL -5>4A
504F: 5017   BVC +23>68
5051: AD0116 LDA 1601 floppy.??
5054: 9D6A03 STAx 036A
5057: E8     INX
5058: 88     DEY
5059: D0EF   BNE -17>4A
505B: 2C0016 BIT 1600 floppy.??
505E: 10FB   BPL -5>5B
5060: 5006   BVC +6>68
5062: AD0116 LDA 1601 floppy.??
5065: 18     CLC
5066: 90F3   BCC -13>5B
5068: 60     RTS
5069: FFFFFF 
506C: 22     
506D: 33     
506E: B500   LDAzx 00
5070: 48     PHA
5071: B501   LDAzx 01
5073: 20EF24 JSR 24EF hexedit.byteDru
5076: 68     PLA
5077: 20EF24 JSR 24EF hexedit.byteDru
507A: 60     RTS
507B: FFFFFF 
507E: FFFFFF 
5081: FFFFFF 
5084: FFFFFF 
5087: FFFFFF 
508A: FFFFFF 
508D: FFFFFF 
5090: FFFFFF 
5093: FFFFFF 
5096: FFFFFF 
5099: FFFFFF 
509C: FFFFFF 
509F: FFFFFF 
50A2: FFFFFF 
50A5: FFFFFF 
50A8: FFFFFF 
50AB: FFFFFF 
50AE: FFFFFF 
50B1: FFFFFF 
50B4: FFFFFF 
50B7: FFFFFF 
50BA: FFFFFF 
50BD: FFFFFF 
50C0: FFFFFF 
50C3: FFFFFF 
50C6: FFFFFF 
50C9: FFFFFF 
50CC: FFFFFF 
50CF: FFFFFF 
50D2: FFFFFF 
50D5: FFFFFF 
50D8: FFFFFF 
50DB: FFFFFF 
50DE: FFFFFF 
50E1: FFFFFF 
50E4: FFFFFF 
50E7: FFFFFF 
50EA: FFFFFF 
50ED: FFFFFF 
50F0: FFFFFF 
50F3: FFFFFF 
50F6: FFFFFF 
50F9: FFFFFF 
50FC: FFFFFF 
50FF: FFFFFF 
5102: FF2233 
5105: AD7A03 LDA 037A
5108: AE7B03 LDX 037B
510B: 85EA   STAz EA
510D: 86EB   STXz EB
510F: A900   LDAim 00
5111: 85EC   STAz EC
5113: 85ED   STAz ED
5115: 85EE   STAz EE
5117: 60     RTS
5118: FF2233 
511B: 200551 JSR 5105
511E: AD081A LDA 1A08 bs.param.ROMStatusMaster
5121: 0902   ORAim 02
5123: 8D081A STA 1A08 bs.param.ROMStatusMaster
5126: AE6303 LDX 0363
5129: F013   BEQ +19>3E
512B: A906   LDAim 06
512D: CA     DEX
512E: F007   BEQ +7>37
5130: 201B50 JSR 501B
5133: 20EE1C JSR 1CEE floppy.vglExec
5136: 60     RTS
5137: 201B50 JSR 501B
513A: 20231E JSR 1E23 floppy.readExec
513D: 60     RTS
513E: A905   LDAim 05
5140: 201B50 JSR 501B
5143: 20BB1C JSR 1CBB floppy.writeExec
5146: 60     RTS
5147: FFFFFF 
514A: FFFFFF 
514D: FFFFFF 
5150: FFFF22 
5153: 33     
5154: 200551 JSR 5105
5157: AD7403 LDA 0374
515A: 8D7103 STA 0371
515D: A902   LDAim 02
515F: 08     PHP
5160: 78     SEI
5161: 201B50 JSR 501B
5164: 206C50 JSR 506C
5167: 204650 JSR 5046
516A: 28     PLP
516B: 60     RTS
516C: FF2233 
516F: A90A   LDAim 0A
5171: 0D6803 ORA 0368
5174: 200F50 JSR 500F
5177: AD6E03 LDA 036E
517A: 0A     ASLa
517B: 0A     ASLa
517C: 0D6903 ORA 0369
517F: 08     PHP
5180: 78     SEI
5181: 200F50 JSR 500F
5184: 204650 JSR 5046
5187: 28     PLP
5188: 60     RTS
5189: FF2233 
518C: A90D   LDAim 0D
518E: 0D6803 ORA 0368
5191: 200F50 JSR 500F
5194: AD6E03 LDA 036E
5197: 0A     ASLa
5198: 0A     ASLa
5199: 0D6903 ORA 0369
519C: 200F50 JSR 500F
519F: AD7003 LDA 0370
51A2: 200F50 JSR 500F
51A5: 08     PHP
51A6: 78     SEI
51A7: A274   LDXim 74
51A9: A003   LDYim 03
51AB: 203050 JSR 5030
51AE: A901   LDAim 01
51B0: 8D6F03 STA 036F
51B3: A26D   LDXim 6D
51B5: A004   LDYim 04
51B7: A920   LDAim 20
51B9: 2C0016 BIT 1600 floppy.??
51BC: 10FB   BPL -5>B9
51BE: F009   BEQ +9>C9
51C0: 203050 JSR 5030
51C3: EE6F03 INC 036F
51C6: 18     CLC
51C7: 90EA   BCC -22>B3
51C9: AE6F03 LDX 036F
51CC: CA     DEX
51CD: EC7403 CPX 0374
51D0: F002   BEQ +2>D4
51D2: E6EE   INCz EE
51D4: A200   LDXim 00
51D6: A003   LDYim 03
51D8: 204A50 JSR 504A
51DB: A207   LDXim 07
51DD: 28     PLP
51DE: 60     RTS
51DF: FF2233 
51E2: A908   LDAim 08
51E4: 200F50 JSR 500F
51E7: A200   LDXim 00
51E9: A002   LDYim 02
51EB: 204A50 JSR 504A
51EE: 60     RTS
51EF: FFFFFF 
51F2: FF2233 
51F5: A904   LDAim 04
51F7: 200F50 JSR 500F
51FA: AD6E03 LDA 036E
51FD: 0A     ASLa
51FE: 0A     ASLa
51FF: 0D6903 ORA 0369
5202: 200F50 JSR 500F
5205: A200   LDXim 00
5207: A001   LDYim 01
5209: 204A50 JSR 504A
520C: 60     RTS
520D: FFFFFF 
5210: FF2233 
5213: A903   LDAim 03
5215: 200F50 JSR 500F
5218: AD7803 LDA 0378
521B: 200F50 JSR 500F
521E: AD7903 LDA 0379
5221: 200F50 JSR 500F
5224: A200   LDXim 00
5226: 60     RTS
5227: FFFFFF 
522A: FF2233 
522D: 203052 JSR 5230
5230: A907   LDAim 07
5232: 200F50 JSR 500F
5235: AD6903 LDA 0369
5238: 08     PHP
5239: 78     SEI
523A: 200F50 JSR 500F
523D: 20E251 JSR 51E2
5240: CA     DEX
5241: F0FA   BEQ -6>3D
5243: E8     INX
5244: AD6A03 LDA 036A
5247: 2920   ANDim 20
5249: F0F2   BEQ -14>3D
524B: 28     PLP
524C: 60     RTS
524D: A90F   LDAim 0F
524F: 200F50 JSR 500F
5252: AD6E03 LDA 036E
5255: 0A     ASLa
5256: 0A     ASLa
5257: 0D6903 ORA 0369
525A: 200F50 JSR 500F
525D: AD6D03 LDA 036D
5260: 4C3852 JMP 5238
5263: FFFFFF 
5266: FFFFFF 
5269: FFFF22 
526C: 33     
526D: A900   LDAim 00
526F: 85EE   STAz EE
5271: 20F551 JSR 51F5
5274: AD6A03 LDA 036A
5277: 29E0   ANDim E0
5279: C920   CMPim 20
527B: F003   BEQ +3>80
527D: E6EE   INCz EE
527F: 60     RTS
5280: 202D52 JSR 522D
5283: A200   LDXim 00
5285: 8E6D03 STX 036D
5288: 204D52 JSR 524D
528B: A900   LDAim 00
528D: 8D6E03 STA 036E
5290: 20AE52 JSR 52AE
5293: A5EE   LDAz EE
5295: F001   BEQ +1>98
5297: 60     RTS
5298: EE6E03 INC 036E
529B: 20AE52 JSR 52AE
529E: AE6D03 LDX 036D
52A1: E8     INX
52A2: EC7703 CPX 0377
52A5: D0DE   BNE -34>85
52A7: 202D52 JSR 522D
52AA: 60     RTS
52AB: FF2233 
52AE: 208C51 JSR 518C
52B1: AD6A03 LDA 036A
52B4: 29C0   ANDim C0
52B6: F002   BEQ +2>BA
52B8: E6EE   INCz EE
52BA: 60     RTS
52BB: FFFFFF 
52BE: FF2233 
52C1: A211   LDXim 11
52C3: BDD352 LDAx 52D3
52C6: 9D6803 STAx 0368
52C9: CA     DEX
52CA: 10F7   BPL -9>C3
52CC: 201352 JSR 5213
52CF: 60     RTS
52D0: FF2233 
52D3: 40     RTI
52D4: 00     BRK
52D5: 00     BRK
52D6: 00     BRK
52D7: 00     BRK
52D8: 00     BRK
52D9: 00     BRK
52DA: 0101   ORAix 01
52DC: 1020   BPL +32>FE
52DE: FF1032 
52E1: 40     RTI
52E2: 50EF   BVC -17>D3
52E4: 13     
52E5: FFFFFF 
52E8: FFFF22 
52EB: 33     
52EC: AD1703 LDA 0317
52EF: F010   BEQ +16>01
52F1: A21E   LDXim 1E
52F3: BDF802 LDAx 02F8
52F6: 9D980F STAx 0F98
52F9: CA     DEX
52FA: 10F7   BPL -9>F3
52FC: A200   LDXim 00
52FE: 8E1703 STX 0317
5301: 60     RTS
5302: FF2233 
5305: A94F   LDAim 4F
5307: A253   LDXim 53
5309: D004   BNE +4>0F
530B: A96F   LDAim 6F
530D: A253   LDXim 53
530F: 85EA   STAz EA
5311: 86EB   STXz EB
5313: AD1703 LDA 0317
5316: F001   BEQ +1>19
5318: 60     RTS
5319: A21E   LDXim 1E
531B: BD980F LDAx 0F98
531E: 9DF802 STAx 02F8
5321: CA     DEX
5322: 10F7   BPL -9>1B
5324: EE1703 INC 0317
5327: A01E   LDYim 1E
5329: B1EA   LDAiy EA
532B: 99980F STAy 0F98
532E: 88     DEY
532F: 10F8   BPL -8>29
5331: 60     RTS
5332: 33     
5333: A900   LDAim 00
5335: 8D2016 STA 1620
5338: 20F551 JSR 51F5
533B: AD6A03 LDA 036A
533E: 2920   ANDim 20
5340: D006   BNE +6>48
5342: 200553 JSR 5305
5345: 18     CLC
5346: 90F0   BCC -16>38
5348: 20EC52 JSR 52EC
534B: 60     RTS
534C: FFFF02 ---- text data
534F: 20202020 20202020 466C6F70 7079206E  '        Floppy n'
535F: 6F742072 65616479 20202020 2020201D  'ot ready       ?'
536F: 20466C6F 70707920 4C657365 2F536368  ' Floppy Lese/Sch'
537F: 722D4665 686C6572 2C205354 4F502E20  'r-Fehler, STOP. '
538F: 6164723D  'adr='
5393: 03     
5394: 22     
5395: 33     
5396: 60     RTS
5397: EA     NOP
5398: EA     NOP
5399: EA     NOP
539A: EA     NOP
539B: A928   LDAim 28
539D: 206324 JSR 2463 hexedit.write
53A0: AD6303 LDA 0363
53A3: 20E224 JSR 24E2 hexedit.Nibble
53A6: 20CE24 JSR 24CE hexedit.Blank
53A9: AD2B03 LDA 032B
53AC: 20E224 JSR 24E2 hexedit.Nibble
53AF: AD2A03 LDA 032A
53B2: 20EF24 JSR 24EF hexedit.byteDru
53B5: 20CE24 JSR 24CE hexedit.Blank
53B8: AD7B03 LDA 037B
53BB: 20EF24 JSR 24EF hexedit.byteDru
53BE: AD7A03 LDA 037A
53C1: 20EF24 JSR 24EF hexedit.byteDru
53C4: A929   LDAim 29
53C6: 206324 JSR 2463 hexedit.write
53C9: 60     RTS
53CA: FFFFFF 
53CD: FFFFFF 
53D0: FFFFFF 
53D3: FF2233 
53D6: 08     PHP
53D7: 78     SEI
53D8: EA     NOP
53D9: EA     NOP
53DA: EA     NOP
53DB: EA     NOP
53DC: 203353 JSR 5333
53DF: 209653 JSR 5396
53E2: AD2A03 LDA 032A
53E5: D003   BNE +3>EA
53E7: CE2B03 DEC 032B
53EA: 38     SEC
53EB: E901   SBCim 01
53ED: 8D2A03 STA 032A
53F0: 290F   ANDim 0F
53F2: AA     TAX
53F3: E8     INX
53F4: 8E6F03 STX 036F
53F7: 8E7103 STX 0371
53FA: AD2B03 LDA 032B
53FD: 0E2A03 ASL 032A
5400: 2A     ROLa
5401: 0E2A03 ASL 032A
5404: 2A     ROLa
5405: 0E2A03 ASL 032A
5408: 2A     ROLa
5409: 297F   ANDim 7F
540B: 8D6D03 STA 036D
540E: A903   LDAim 03
5410: 48     PHA
5411: A901   LDAim 01
5413: 8D7003 STA 0370
5416: AD2A03 LDA 032A
5419: 0A     ASLa
541A: A900   LDAim 00
541C: 2A     ROLa
541D: 8D6E03 STA 036E
5420: 204D52 JSR 524D
5423: AD6303 LDA 0363
5426: C903   CMPim 03
5428: B021   BCS +33>4B
542A: 201B51 JSR 511B
542D: 204650 JSR 5046
5430: A5EE   LDAz EE
5432: D01A   BNE +26>4E
5434: AD6A03 LDA 036A
5437: 29FB   ANDim FB
5439: C940   CMPim 40
543B: D011   BNE +17>4E
543D: AD6B03 LDA 036B
5440: 2937   ANDim 37
5442: D00A   BNE +10>4E
5444: AD6C03 LDA 036C
5447: 2973   ANDim 73
5449: D003   BNE +3>4E
544B: 68     PLA
544C: 28     PLP
544D: 60     RTS
544E: 68     PLA
544F: 38     SEC
5450: E901   SBCim 01
5452: 48     PHA
5453: F006   BEQ +6>5B
5455: 202D52 JSR 522D
5458: 18     CLC
5459: 90B6   BCC -74>11
545B: EA     NOP
545C: EA     NOP
545D: EA     NOP
545E: A901   LDAim 01
5460: 8DF8FF STA FFF8 bios.flag EPROM lo
5463: 200325 JSR 2503 hexedit.lwriteVonBis
5466: 6F     
5467: 53     
5468: 92     
5469: 53     
546A: A2EA   LDXim EA
546C: 206E50 JSR 506E
546F: 20C924 JSR 24C9 hexedit.2Blanks
5472: 208354 JSR 5483
5475: A901   LDAim 01
5477: 8D2016 STA 1620
547A: A901   LDAim 01
547C: 4C1D1C JMP 1C1D monitor.RESET
547F: FFFF22 
5482: 33     
5483: A200   LDXim 00
5485: 86EA   STXz EA
5487: 20CE24 JSR 24CE hexedit.Blank
548A: A6EA   LDXz EA
548C: BD6A03 LDAx 036A
548F: 20EF24 JSR 24EF hexedit.byteDru
5492: A6EA   LDXz EA
5494: E8     INX
5495: E007   CPXim 07
5497: D0EC   BNE -20>85
5499: 20C924 JSR 24C9 hexedit.2Blanks
549C: AD0016 LDA 1600 floppy.??
549F: 20EF24 JSR 24EF hexedit.byteDru
54A2: 20CE24 JSR 24CE hexedit.Blank
54A5: 60     RTS
54A6: FFFFFF 
54A9: FFFFFF 
54AC: FFFFFF 
54AF: FF2233 
54B2: AD2303 LDA 0323
54B5: 0A     ASLa
54B6: A8     TAY
54B7: B94F03 LDAy 034F
54BA: 3001   BMI +1>BD
54BC: 60     RTS
54BD: 297F   ANDim 7F
54BF: 8D2B03 STA 032B
54C2: AE6303 LDX 0363
54C5: F003   BEQ +3>CA
54C7: 994F03 STAy 034F
54CA: B94E03 LDAy 034E
54CD: 8D2A03 STA 032A
54D0: A200   LDXim 00
54D2: 8E7A03 STX 037A
54D5: 20D653 JSR 53D6
54D8: AE6303 LDX 0363
54DB: F004   BEQ +4>E1
54DD: A6EE   LDXz EE
54DF: D004   BNE +4>E5
54E1: 60     RTS
54E2: FF2233 
54E5: A901   LDAim 01
54E7: 8DF8FF STA FFF8 bios.flag EPROM lo
54EA: 200325 JSR 2503 hexedit.lwriteVonBis
54ED: 1B     
54EE: 553E   EORzx 3E
54F0: 55EA   EORzx EA
54F2: 208354 JSR 5483
54F5: 4C1D1C JMP 1C1D monitor.RESET
54F8: AC2303 LDY 0323
54FB: B93903 LDAy 0339
54FE: 8D7B03 STA 037B
5501: C920   CMPim 20
5503: D0AD   BNE -83>B2
5505: 20B254 JSR 54B2
5508: EE2303 INC 0323
550B: 20F854 JSR 54F8
550E: CE2303 DEC 0323
5511: 60     RTS
5512: FFFFFF 
5515: FF2233 
5518: FFFF02 ---- text data
551B: 20212121 20466C6F 7070792D 56657269  ' !!! Floppy-Veri'
552B: 66792066 65686C65 72686166 742C2053  'fy fehlerhaft, S'
553B: 544F5020 1D 'TOP ?'
5540: 03     
5541: FF2233 
5544: A900   LDAim 00
5546: 8D6303 STA 0363
5549: 205755 JSR 5557
554C: A902   LDAim 02
554E: 8D6303 STA 0363
5551: 205755 JSR 5557
5554: 4C3F56 JMP 563F
5557: A200   LDXim 00
5559: 8E2303 STX 0323
555C: 20F854 JSR 54F8
555F: AE2303 LDX 0323
5562: D001   BNE +1>65
5564: E8     INX
5565: E8     INX
5566: E008   CPXim 08
5568: D0EF   BNE -17>59
556A: 60     RTS
556B: AD2303 LDA 0323
556E: EA     NOP
556F: EA     NOP
5570: EA     NOP
5571: 0A     ASLa
5572: AA     TAX
5573: BD4E03 LDAx 034E
5576: CD1803 CMP 0318
5579: D00B   BNE +11>86
557B: BD4F03 LDAx 034F
557E: 297F   ANDim 7F
5580: CD1903 CMP 0319
5583: D001   BNE +1>86
5585: 60     RTS
5586: A900   LDAim 00
5588: 8D6303 STA 0363
558B: 20F854 JSR 54F8
558E: A902   LDAim 02
5590: 8D6303 STA 0363
5593: 20F854 JSR 54F8
5596: AD2303 LDA 0323
5599: 0A     ASLa
559A: AA     TAX
559B: AD1803 LDA 0318
559E: 9D4E03 STAx 034E
55A1: AD1903 LDA 0319
55A4: 0980   ORAim 80
55A6: 9D4F03 STAx 034F
55A9: A901   LDAim 01
55AB: 8D6303 STA 0363
55AE: 20F854 JSR 54F8
55B1: 60     RTS
55B2: FFFFFF 
55B5: FFFFFF 
55B8: FFFF22 
55BB: 33     
55BC: AD2303 LDA 0323
55BF: EA     NOP
55C0: EA     NOP
55C1: EA     NOP
55C2: 0A     ASLa
55C3: 48     PHA
55C4: AA     TAX
55C5: BD4E03 LDAx 034E
55C8: CD1803 CMP 0318
55CB: D00A   BNE +10>D7
55CD: BD4F03 LDAx 034F
55D0: 297F   ANDim 7F
55D2: CD1903 CMP 0319
55D5: F010   BEQ +16>E7
55D7: A900   LDAim 00
55D9: 8D6303 STA 0363
55DC: 20F854 JSR 54F8
55DF: A902   LDAim 02
55E1: 8D6303 STA 0363
55E4: 20F854 JSR 54F8
55E7: 200A56 JSR 560A
55EA: A900   LDAim 00
55EC: A000   LDYim 00
55EE: 91EA   STAiy EA
55F0: C8     INY
55F1: D0FB   BNE -5>EE
55F3: 68     PLA
55F4: AA     TAX
55F5: AD1803 LDA 0318
55F8: 9D4E03 STAx 034E
55FB: AD1903 LDA 0319
55FE: 0980   ORAim 80
5600: 9D4F03 STAx 034F
5603: 60     RTS
5604: FFFFFF 
5607: FF2233 
560A: AC2303 LDY 0323
560D: B93903 LDAy 0339
5610: A200   LDXim 00
5612: 86EA   STXz EA
5614: 85EB   STAz EB
5616: 60     RTS
5617: FFFFFF 
561A: FFFFFF 
561D: 22     
561E: 33     
561F: AD2303 LDA 0323
5622: 0A     ASLa
5623: AA     TAX
5624: D00D   BNE +13>33
5626: 203356 JSR 5633
5629: AD5103 LDA 0351
562C: 0980   ORAim 80
562E: 8D5103 STA 0351
5631: 60     RTS
5632: 33     
5633: BD4F03 LDAx 034F
5636: 0980   ORAim 80
5638: 9D4F03 STAx 034F
563B: 60     RTS
563C: FF2233 
563F: A901   LDAim 01
5641: 8D2016 STA 1620
5644: A901   LDAim 01
5646: 60     RTS
5647: FFFFFF 
564A: FFFFFF 
564D: FF2233 
5650: 8D2A03 STA 032A
5653: 8E2B03 STX 032B
5656: 20D653 JSR 53D6
5659: EE7B03 INC 037B
565C: 60     RTS
565D: FFFFFF 
5660: FFFFFF 
5663: FF2233 
5666: A002   LDYim 02
5668: 200D56 JSR 560D
566B: A024   LDYim 24
566D: A203   LDXim 03
566F: 18     CLC
5670: B1EA   LDAiy EA
5672: E900   SBCim 00
5674: 991203 STAy 0312
5677: C8     INY
5678: CA     DEX
5679: D0F5   BNE -11>70
567B: B001   BCS +1>7E
567D: 60     RTS
567E: 20C65C JSR 5CC6
5681: AD2403 LDA 0324
5684: AE2503 LDX 0325
5687: 8D2603 STA 0326
568A: 8E2703 STX 0327
568D: A938   LDAim 38
568F: 8D2403 STA 0324
5692: 20815F JSR 5F81
5695: EE7B03 INC 037B
5698: AD2403 LDA 0324
569B: CD2603 CMP 0326
569E: D001   BNE +1>A1
56A0: 60     RTS
56A1: 18     CLC
56A2: 6902   ADCim 02
56A4: C9D8   CMPim D8
56A6: 90E7   BCC -25>8F
56A8: 8D2403 STA 0324
56AB: A900   LDAim 00
56AD: 8D2503 STA 0325
56B0: 20815F JSR 5F81
56B3: 18     CLC
56B4: 9006   BCC +6>BC
56B6: 201D5D JSR 5D1D
56B9: 20845F JSR 5F84
56BC: EE7B03 INC 037B
56BF: AC2503 LDY 0325
56C2: AE2403 LDX 0324
56C5: EC2603 CPX 0326
56C8: 9005   BCC +5>CF
56CA: CC2703 CPY 0327
56CD: B00E   BCS +14>DD
56CF: C8     INY
56D0: C8     INY
56D1: 8C2503 STY 0325
56D4: D0E0   BNE -32>B6
56D6: E8     INX
56D7: E8     INX
56D8: 8E2403 STX 0324
56DB: D0CE   BNE -50>AB
56DD: 60     RTS
56DE: FFFFFF 
56E1: FFFFFF 
56E4: FFFFFF 
56E7: FFFFFF 
56EA: FFFFFF 
56ED: FFFFFF 
56F0: FFFFFF 
56F3: FFFFFF 
56F6: FFFFFF 
56F9: FFFFFF 
56FC: FFFFFF 
56FF: FFFFFF 
5702: FFFFFF 
5705: FFFFFF 
5708: FFFFFF 
570B: FFFFFF 
570E: FF2233 
5711: 08     PHP
5712: 78     SEI
5713: 20A15C JSR 5CA1
5716: 48     PHA
5717: 206656 JSR 5666
571A: 68     PLA
571B: 8D081A STA 1A08 bs.param.ROMStatusMaster
571E: 8DF8FF STA FFF8 bios.flag EPROM lo
5721: 28     PLP
5722: 60     RTS
5723: FFFFFF 
5726: FFFFFF 
5729: FF2233 
572C: A900   LDAim 00
572E: AEFF3F LDX 3FFF
5731: EEFF3F INC 3FFF
5734: ECFF3F CPX 3FFF
5737: F008   BEQ +8>41
5739: 0901   ORAim 01
573B: E033   CPXim 33
573D: F002   BEQ +2>41
573F: 0980   ORAim 80
5741: CEFF3F DEC 3FFF
5744: AEFF9F LDX 9FFF
5747: EEFF9F INC 9FFF
574A: ECFF9F CPX 9FFF
574D: F002   BEQ +2>51
574F: 0902   ORAim 02
5751: CEFF9F DEC 9FFF
5754: AEF7FF LDX FFF7
5757: EEF7FF INC FFF7
575A: ECF7FF CPX FFF7
575D: F002   BEQ +2>61
575F: 0904   ORAim 04
5761: CEF7FF DEC FFF7
5764: 8D081A STA 1A08 bs.param.ROMStatusMaster
5767: 60     RTS
5768: FFFFFF 
576B: FFFFFF 
576E: FFFFFF 
5771: FFFFFF 
5774: FF2233 
5777: 206624 JSR 2466 hexedit.openOutVideo
577A: 20C152 JSR 52C1
577D: 200325 JSR 2503 hexedit.lwriteVonBis
5780: 64     
5781: 58     CLI
5782: 97     
5783: 58     CLI
5784: EA     NOP
5785: EA     NOP
5786: 206024 JSR 2460 hexedit.read
5789: 48     PHA
578A: 206324 JSR 2463 hexedit.write
578D: 68     PLA
578E: C931   CMPim 31
5790: D00B   BNE +11>9D
5792: 203353 JSR 5333
5795: 206D52 JSR 526D
5798: A901   LDAim 01
579A: 8D2016 STA 1620
579D: A901   LDAim 01
579F: 200325 JSR 2503 hexedit.lwriteVonBis
57A2: 98     TYA
57A3: 58     CLI
57A4: A8     TAY
57A5: 58     CLI
57A6: A200   LDXim 00
57A8: 86EA   STXz EA
57AA: 206024 JSR 2460 hexedit.read
57AD: 48     PHA
57AE: 206324 JSR 2463 hexedit.write
57B1: 68     PLA
57B2: A6EA   LDXz EA
57B4: C921   CMPim 21
57B6: 9008   BCC +8>C0
57B8: 9D0020 STAx 2000 drucker.writeStarTty
57BB: E8     INX
57BC: E020   CPXim 20
57BE: D0E8   BNE -24>A8
57C0: A920   LDAim 20
57C2: 9D0020 STAx 2000 drucker.writeStarTty
57C5: 200325 JSR 2503 hexedit.lwriteVonBis
57C8: A958   LDAim 58
57CA: B7     
57CB: 58     CLI
57CC: 200059 JSR 5900
57CF: 8D2020 STA 2020
57D2: 20994C JSR 4C99
57D5: A202   LDXim 02
57D7: BD531A LDAx 1A53
57DA: 9D2220 STAx 2022
57DD: CA     DEX
57DE: 10F7   BPL -9>D7
57E0: 300B   BMI +11>ED
57E2: FFFFFF 
57E5: FFFFFF 
57E8: FFFFFF 
57EB: 22     
57EC: 33     
57ED: A208   LDXim 08
57EF: BD5258 LDAx 5852
57F2: 9D2520 STAx 2025
57F5: CA     DEX
57F6: 10F7   BPL -9>EF
57F8: A93F   LDAim 3F
57FA: 8D4020 STA 2040
57FD: A9FF   LDAim FF
57FF: A23E   LDXim 3E
5801: 9D4120 STAx 2041
5804: CA     DEX
5805: 10FA   BPL -6>01
5807: 9D8020 STAx 2080
580A: CA     DEX
580B: D0FA   BNE -6>07
580D: 8D8020 STA 2080
5810: A900   LDAim 00
5812: A27F   LDXim 7F
5814: 9D8021 STAx 2180
5817: CA     DEX
5818: 10FA   BPL -6>14
581A: A201   LDXim 01
581C: A980   LDAim 80
581E: 8E4E03 STX 034E
5821: 8D4F03 STA 034F
5824: E8     INX
5825: 8E5003 STX 0350
5828: 8D5103 STA 0351
582B: A900   LDAim 00
582D: A20B   LDXim 0B
582F: 9D5203 STAx 0352
5832: CA     DEX
5833: 10FA   BPL -6>2F
5835: EA     NOP
5836: 203353 JSR 5333
5839: 202D52 JSR 522D
583C: 204455 JSR 5544
583F: A901   LDAim 01
5841: 8D2016 STA 1620
5844: A901   LDAim 01
5846: 200325 JSR 2503 hexedit.lwriteVonBis
5849: CA     DEX
584A: 58     CLI
584B: E8     INX
584C: 58     CLI
584D: 60     RTS
584E: FFFF22 
5851: 33     
5852: A150   LDAix 50
5854: 1020   BPL +32>76
5856: FE0900 INCx 0009
5859: 00     BRK
585A: 00     BRK
585B: FFFFFF 
585E: FF2233 
5861: FFFF02 ---- text data
5864: 20202020 20202050 726F6772 616D6D20  '       Programm '
5874: 3A206E65 75652046 6C6F7070 791D1D46  ': neue Floppy??F'
5884: 6F726D61 74696572 656E203F 2028302F  'ormatieren ? (0/'
5894: 31293A20 1D1D4E61 6D652028 6D617820  '1): ??Name (max '
58A4: 3332293A 201D1D4E 72202830 302E2E39  '32): ??Nr (00..9'
58B4: 39293A20 1D1D2B2B 2B2B2B2B 2B2B2B2B  '9): ??++++++++++'
58C4: 2B2B2B2B 2B2B1D1D 1D202020 20202020  '++++++???       '
58D4: 46657274 69672E20 50726F67 72616D6D  'Fertig. Programm'
58E4: 656E6465 1D 'ende?'
58E9: 03     
58EA: FFFFFF 
58ED: FFFFFF 
58F0: FF2233 
58F3: 203459 JSR 5934
58F6: 4C3F56 JMP 563F
58F9: FFFFFF 
58FC: FFFF22 
58FF: 33     
5900: 206024 JSR 2460 hexedit.read
5903: C930   CMPim 30
5905: 90F9   BCC -7>00
5907: C93A   CMPim 3A
5909: B0F5   BCS -11>00
590B: 48     PHA
590C: 206324 JSR 2463 hexedit.write
590F: 68     PLA
5910: 0A     ASLa
5911: 0A     ASLa
5912: 0A     ASLa
5913: 0A     ASLa
5914: 85EA   STAz EA
5916: 206024 JSR 2460 hexedit.read
5919: C930   CMPim 30
591B: 90F9   BCC -7>16
591D: C93A   CMPim 3A
591F: B0F5   BCS -11>16
5921: 48     PHA
5922: 206324 JSR 2463 hexedit.write
5925: 68     PLA
5926: 290F   ANDim 0F
5928: 05EA   ORAz EA
592A: 85EA   STAz EA
592C: 60     RTS
592D: FFFFFF 
5930: FFFF22 
5933: 33     
5934: A900   LDAim 00
5936: 8D1703 STA 0317
5939: 20C152 JSR 52C1
593C: 203353 JSR 5333
593F: A203   LDXim 03
5941: BD9B59 LDAx 599B
5944: 9D4E03 STAx 034E
5947: CA     DEX
5948: 10F7   BPL -9>41
594A: A20B   LDXim 0B
594C: A900   LDAim 00
594E: 9D5203 STAx 0352
5951: CA     DEX
5952: 10FA   BPL -6>4E
5954: A20E   LDXim 0E
5956: BD9F59 LDAx 599F
5959: 9D3203 STAx 0332
595C: CA     DEX
595D: 10F7   BPL -9>56
595F: A900   LDAim 00
5961: 8D4403 STA 0344
5964: 8D2303 STA 0323
5967: A901   LDAim 01
5969: 8D6303 STA 0363
596C: 20F854 JSR 54F8
596F: 60     RTS
5970: FFFFFF 
5973: FFFFFF 
5976: FFFFFF 
5979: FF2233 
597C: AD1E03 LDA 031E
597F: 0A     ASLa
5980: AA     TAX
5981: BD8021 LDAx 2180
5984: 8D1803 STA 0318
5987: BD8121 LDAx 2181 drucker.manuellDruckeVideoSchirm
598A: 8D1903 STA 0319
598D: 60     RTS
598E: FFFFFF 
5991: FFFFFF 
5994: FFFFFF 
5997: FFFF22 
599A: 33     
599B: 0180   ORAix 80 bs.KPUe.savePCL
599D: 02     
599E: 80     
599F: 00     BRK
59A0: 00     BRK
59A1: 00     BRK
59A2: 00     BRK
59A3: 00     BRK
59A4: 00     BRK
59A5: 00     BRK
59A6: 202122 JSR 2221
59A9: 23     
59AA: 2425   BITz 25
59AC: 2627   ROLz 27
59AE: FFFFFF 
59B1: FF2233 
59B4: A205   LDXim 05
59B6: BD5203 LDAx 0352
59B9: BC5803 LDYx 0358
59BC: 9D5803 STAx 0358
59BF: 98     TYA
59C0: 9D5203 STAx 0352
59C3: CA     DEX
59C4: 10F0   BPL -16>B6
59C6: 60     RTS
59C7: FFFFFF 
59CA: FFFFFF 
59CD: FFFFFF 
59D0: 22     
59D1: 33     
59D2: 202125 JSR 2521
59D5: 2627   ROLz 27
59D7: 22     
59D8: 23     
59D9: 24FF   BITz FF monitor.MODE
59DB: FFFFFF 
59DE: FFFF22 
59E1: 33     
59E2: 2901   ANDim 01
59E4: CD3203 CMP 0332
59E7: D001   BNE +1>EA
59E9: 60     RTS
59EA: 8D3203 STA 0332
59ED: 48     PHA
59EE: A203   LDXim 03
59F0: BD3503 LDAx 0335
59F3: BC4403 LDYx 0344
59F6: 9D4403 STAx 0344
59F9: 98     TYA
59FA: 9D3503 STAx 0335
59FD: CA     DEX
59FE: 10F0   BPL -16>F0
5A00: A207   LDXim 07
5A02: 68     PLA
5A03: F002   BEQ +2>07
5A05: A233   LDXim 33
5A07: A007   LDYim 07
5A09: BDA659 LDAx 59A6
5A0C: 993903 STAy 0339
5A0F: CA     DEX
5A10: 88     DEY
5A11: 10F6   BPL -10>09
5A13: 4CB459 JMP 59B4
5A16: FFFFFF 
5A19: FFFF22 
5A1C: 33     
5A1D: 204455 JSR 5544
5A20: A900   LDAim 00
5A22: 8D3503 STA 0335
5A25: 60     RTS
5A26: 33     
5A27: 20A15C JSR 5CA1
5A2A: 48     PHA
5A2B: A200   LDXim 00
5A2D: F004   BEQ +4>33
5A2F: AE1E03 LDX 031E
5A32: E8     INX
5A33: 8E1E03 STX 031E
5A36: EC2B20 CPX 202B
5A39: F02E   BEQ +46>69
5A3B: 207C59 JSR 597C
5A3E: A902   LDAim 02
5A40: 8D2303 STA 0323
5A43: 206B55 JSR 556B
5A46: A002   LDYim 02
5A48: 200D56 JSR 560D
5A4B: A000   LDYim 00
5A4D: B1EA   LDAiy EA
5A4F: D9D802 CMPy 02D8
5A52: D0DB   BNE -37>2F
5A54: C920   CMPim 20
5A56: F023   BEQ +35>7B
5A58: C8     INY
5A59: C020   CPYim 20
5A5B: D0F0   BNE -16>4D
5A5D: F01C   BEQ +28>7B
5A5F: FFFFFF 
5A62: FFFFFF 
5A65: FFFF22 
5A68: 33     
5A69: A901   LDAim 01
5A6B: 8D1C03 STA 031C
5A6E: A900   LDAim 00
5A70: 8D3503 STA 0335
5A73: 68     PLA
5A74: 8D081A STA 1A08 bs.param.ROMStatusMaster
5A77: 8DF8FF STA FFF8 bios.flag EPROM lo
5A7A: 60     RTS
5A7B: A901   LDAim 01
5A7D: 8D3503 STA 0335
5A80: 20994C JSR 4C99
5A83: A202   LDXim 02
5A85: A02C   LDYim 2C
5A87: BD531A LDAx 1A53
5A8A: 91EA   STAiy EA
5A8C: 88     DEY
5A8D: CA     DEX
5A8E: 10F7   BPL -9>87
5A90: A902   LDAim 02
5A92: 8D2303 STA 0323
5A95: 201F56 JSR 561F
5A98: A900   LDAim 00
5A9A: 8D3603 STA 0336
5A9D: 8D3703 STA 0337
5AA0: 8D3803 STA 0338
5AA3: 8D1C03 STA 031C
5AA6: 4CB45C JMP 5CB4
5AA9: 22     
5AAA: 33     
5AAB: 20A15C JSR 5CA1
5AAE: 48     PHA
5AAF: 4C7B5A JMP 5A7B
5AB2: 33     
5AB3: 20A15C JSR 5CA1
5AB6: 48     PHA
5AB7: AD2920 LDA 2029
5ABA: 0D2A20 ORA 202A
5ABD: D00D   BNE +13>CC
5ABF: A901   LDAim 01
5AC1: 8D1C03 STA 031C
5AC4: 68     PLA
5AC5: AD081A LDA 1A08 bs.param.ROMStatusMaster
5AC8: 8DF8FF STA FFF8 bios.flag EPROM lo
5ACB: 60     RTS
5ACC: A240   LDXim 40
5ACE: AD2D20 LDA 202D
5AD1: 0920   ORAim 20
5AD3: 86EA   STXz EA
5AD5: 85EB   STAz EB
5AD7: AC2C20 LDY 202C
5ADA: B1EA   LDAiy EA
5ADC: F00A   BEQ +10>E8
5ADE: A200   LDXim 00
5AE0: 0A     ASLa
5AE1: B04B   BCS +75>2E
5AE3: E8     INX
5AE4: E008   CPXim 08
5AE6: D0F8   BNE -8>E0
5AE8: C8     INY
5AE9: D002   BNE +2>ED
5AEB: E6EB   INCz EB
5AED: C040   CPYim 40
5AEF: D0E9   BNE -23>DA
5AF1: A5EB   LDAz EB
5AF3: C921   CMPim 21
5AF5: D0E3   BNE -29>DA
5AF7: A901   LDAim 01
5AF9: 8DF8FF STA FFF8 bios.flag EPROM lo
5AFC: 200325 JSR 2503 hexedit.lwriteVonBis
5AFF: 0B     
5B00: 5B     
5B01: 265B   ROLz 5B bs.neueZeitH
5B03: EA     NOP
5B04: EA     NOP
5B05: 4C1D1C JMP 1C1D monitor.RESET
5B08: FFFF02 ---- text data
5B0B: 20212121 20466C6F 7070792D 42414D20  ' !!! Floppy-BAM '
5B1B: 66616C73 63682C20 53544F50  'falsch, STOP'
5B27: 03     
5B28: FFFFFF 
5B2B: FF2233 
5B2E: B1EA   LDAiy EA
5B30: 3D7D5B ORAx 5B7D
5B33: 91EA   STAiy EA
5B35: 8C2C20 STY 202C
5B38: A5EB   LDAz EB
5B3A: 2901   ANDim 01
5B3C: 8D2D20 STA 202D
5B3F: 8D1903 STA 0319
5B42: 98     TYA
5B43: 0A     ASLa
5B44: 2E1903 ROL 0319
5B47: 0A     ASLa
5B48: 2E1903 ROL 0319
5B4B: 0A     ASLa
5B4C: 2E1903 ROL 0319
5B4F: 85EA   STAz EA
5B51: 8A     TXAa
5B52: 38     SEC
5B53: 65EA   ADCz EA
5B55: 8D1803 STA 0318
5B58: 9003   BCC +3>5D
5B5A: EE1903 INC 0319
5B5D: AE2920 LDX 2029
5B60: D003   BNE +3>65
5B62: CE2A20 DEC 202A
5B65: CE2920 DEC 2029
5B68: A900   LDAim 00
5B6A: 8D2303 STA 0323
5B6D: 201F56 JSR 561F
5B70: A900   LDAim 00
5B72: 8D1C03 STA 031C
5B75: 68     PLA
5B76: 8DF8FF STA FFF8 bios.flag EPROM lo
5B79: 8D081A STA 1A08 bs.param.ROMStatusMaster
5B7C: 60     RTS
5B7D: 7F     
5B7E: BF     
5B7F: DF     
5B80: EF     
5B81: F7     
5B82: FB     
5B83: FDFE80 SBCx 80FE
5B86: 40     RTI
5B87: 201008 JSR 0810
5B8A: 04     
5B8B: 02     
5B8C: 01FF   ORAix FF monitor.MODE
5B8E: FFFFFF 
5B91: FF2233 
5B94: 20A15C JSR 5CA1
5B97: 48     PHA
5B98: EA     NOP
5B99: AE1803 LDX 0318
5B9C: D003   BNE +3>A1
5B9E: CE1903 DEC 0319
5BA1: CA     DEX
5BA2: 8A     TXAa
5BA3: A8     TAY
5BA4: 2907   ANDim 07
5BA6: AA     TAX
5BA7: 98     TYA
5BA8: 4E1903 LSR 0319
5BAB: 6A     RORa
5BAC: 4E1903 LSR 0319
5BAF: 6A     RORa
5BB0: 4E1903 LSR 0319
5BB3: 6A     RORa
5BB4: A8     TAY
5BB5: BD855B LDAx 5B85
5BB8: 4E1903 LSR 0319
5BBB: B008   BCS +8>C5
5BBD: 194020 ORAy 2040
5BC0: 994020 STAy 2040
5BC3: 9006   BCC +6>CB
5BC5: 194021 ORAy 2140
5BC8: 994021 STAy 2140
5BCB: A900   LDAim 00
5BCD: 2A     ROLa
5BCE: AA     TAX
5BCF: CC2C20 CPY 202C
5BD2: ED2D20 SBC 202D
5BD5: B006   BCS +6>DD
5BD7: 8C2C20 STY 202C
5BDA: 8E2D20 STX 202D
5BDD: EE2920 INC 2029
5BE0: D003   BNE +3>E5
5BE2: EE2A20 INC 202A
5BE5: A900   LDAim 00
5BE7: 8D2303 STA 0323
5BEA: 201F56 JSR 561F
5BED: 68     PLA
5BEE: 8D081A STA 1A08 bs.param.ROMStatusMaster
5BF1: 8DF8FF STA FFF8 bios.flag EPROM lo
5BF4: 60     RTS
5BF5: FFFFFF 
5BF8: FFFFFF 
5BFB: FF2233 
5BFE: 20275A JSR 5A27
5C01: AD1C03 LDA 031C
5C04: 4901   EORim 01
5C06: 8D1C03 STA 031C
5C09: F001   BEQ +1>0C
5C0B: 60     RTS
5C0C: 20A15C JSR 5CA1
5C0F: 48     PHA
5C10: AD2B20 LDA 202B
5C13: C940   CMPim 40
5C15: D00B   BNE +11>22
5C17: 68     PLA
5C18: 8D081A STA 1A08 bs.param.ROMStatusMaster
5C1B: 8DF8FF STA FFF8 bios.flag EPROM lo
5C1E: EE1C03 INC 031C
5C21: 60     RTS
5C22: AD2B20 LDA 202B
5C25: 48     PHA
5C26: 20B35A JSR 5AB3
5C29: AD1C03 LDA 031C
5C2C: F009   BEQ +9>37
5C2E: 68     PLA
5C2F: 68     PLA
5C30: 8D081A STA 1A08 bs.param.ROMStatusMaster
5C33: 8DF8FF STA FFF8 bios.flag EPROM lo
5C36: 60     RTS
5C37: 68     PLA
5C38: AA     TAX
5C39: E8     INX
5C3A: 8E2B20 STX 202B
5C3D: 0A     ASLa
5C3E: AA     TAX
5C3F: AD1803 LDA 0318
5C42: 9D8021 STAx 2180
5C45: AD1903 LDA 0319
5C48: 9D8121 STAx 2181 drucker.manuellDruckeVideoSchirm
5C4B: A902   LDAim 02
5C4D: 8D2303 STA 0323
5C50: 20BC55 JSR 55BC
5C53: AD3B03 LDA 033B
5C56: EA     NOP
5C57: EA     NOP
5C58: A200   LDXim 00
5C5A: 86EA   STXz EA
5C5C: 85EB   STAz EB
5C5E: 4C655C JMP 5C65
5C61: FFFF22 
5C64: 33     
5C65: A01F   LDYim 1F
5C67: B9D802 LDAy 02D8
5C6A: 91EA   STAiy EA
5C6C: 88     DEY
5C6D: 10F8   BPL -8>67
5C6F: 20994C JSR 4C99
5C72: A029   LDYim 29
5C74: A202   LDXim 02
5C76: BD531A LDAx 1A53
5C79: 91EA   STAiy EA
5C7B: 88     DEY
5C7C: CA     DEX
5C7D: 10F7   BPL -9>76
5C7F: 20AB5A JSR 5AAB
5C82: A900   LDAim 00
5C84: 8D2303 STA 0323
5C87: 201F56 JSR 561F
5C8A: A902   LDAim 02
5C8C: 8D2303 STA 0323
5C8F: 201F56 JSR 561F
5C92: 68     PLA
5C93: 8D081A STA 1A08 bs.param.ROMStatusMaster
5C96: 8DF8FF STA FFF8 bios.flag EPROM lo
5C99: 60     RTS
5C9A: FFFFFF 
5C9D: FFFF22 
5CA0: 33     
5CA1: A900   LDAim 00
5CA3: 8DF8FF STA FFF8 bios.flag EPROM lo
5CA6: AD081A LDA 1A08 bs.param.ROMStatusMaster
5CA9: AA     TAX
5CAA: 29FE   ANDim FE
5CAC: 8D081A STA 1A08 bs.param.ROMStatusMaster
5CAF: 8A     TXAa
5CB0: 60     RTS
5CB1: FF2233 
5CB4: 68     PLA
5CB5: 8D081A STA 1A08 bs.param.ROMStatusMaster
5CB8: 8DF8FF STA FFF8 bios.flag EPROM lo
5CBB: 60     RTS
5CBC: 68     PLA
5CBD: 8D081A STA 1A08 bs.param.ROMStatusMaster
5CC0: 8DF8FF STA FFF8 bios.flag EPROM lo
5CC3: 28     PLP
5CC4: 60     RTS
5CC5: 33     
5CC6: 20A15C JSR 5CA1
5CC9: 48     PHA
5CCA: A002   LDYim 02
5CCC: 200D56 JSR 560D
5CCF: A024   LDYim 24
5CD1: AD3603 LDA 0336
5CD4: D1EA   CMPiy EA
5CD6: C8     INY
5CD7: AD3703 LDA 0337
5CDA: F1EA   SBCiy EA
5CDC: C8     INY
5CDD: AD3803 LDA 0338
5CE0: F1EA   SBCiy EA
5CE2: A900   LDAim 00
5CE4: 2A     ROLa
5CE5: 8D1C03 STA 031C
5CE8: AD3703 LDA 0337
5CEB: AE3803 LDX 0338
5CEE: D009   BNE +9>F9
5CF0: C950   CMPim 50
5CF2: B005   BCS +5>F9
5CF4: 0A     ASLa
5CF5: 6938   ADCim 38
5CF7: D010   BNE +16>09
5CF9: 38     SEC
5CFA: E950   SBCim 50
5CFC: B001   BCS +1>FF
5CFE: CA     DEX
5CFF: 0A     ASLa
5D00: 8D2503 STA 0325
5D03: 8A     TXAa
5D04: 2A     ROLa
5D05: 0A     ASLa
5D06: 18     CLC
5D07: 69D8   ADCim D8
5D09: 8D2403 STA 0324
5D0C: 68     PLA
5D0D: 8DF8FF STA FFF8 bios.flag EPROM lo
5D10: 8D081A STA 1A08 bs.param.ROMStatusMaster
5D13: 60     RTS
5D14: FFFFFF 
5D17: FFFFFF 
5D1A: FF2233 
5D1D: 20A15C JSR 5CA1
5D20: 48     PHA
5D21: 4C725D JMP 5D72
5D24: FFFFFF 
5D27: 22     
5D28: 33     
5D29: 20A15C JSR 5CA1
5D2C: 48     PHA
5D2D: A002   LDYim 02
5D2F: 200D56 JSR 560D
5D32: AC2403 LDY 0324
5D35: B1EA   LDAiy EA
5D37: 8D1803 STA 0318
5D3A: C8     INY
5D3B: B1EA   LDAiy EA
5D3D: 8D1903 STA 0319
5D40: D005   BNE +5>47
5D42: AD1803 LDA 0318
5D45: F055   BEQ +85>9C
5D47: AD2403 LDA 0324
5D4A: C9D8   CMPim D8
5D4C: B003   BCS +3>51
5D4E: 4CB45C JMP 5CB4
5D51: AD6303 LDA 0363
5D54: 48     PHA
5D55: AD7B03 LDA 037B
5D58: 48     PHA
5D59: AD7A03 LDA 037A
5D5C: 48     PHA
5D5D: A903   LDAim 03
5D5F: 8D2303 STA 0323
5D62: 206B55 JSR 556B
5D65: 68     PLA
5D66: 8D7A03 STA 037A
5D69: 68     PLA
5D6A: 8D7B03 STA 037B
5D6D: 68     PLA
5D6E: 8D6303 STA 0363
5D71: EA     NOP
5D72: A003   LDYim 03
5D74: 200D56 JSR 560D
5D77: AC2503 LDY 0325
5D7A: B1EA   LDAiy EA
5D7C: 8D1803 STA 0318
5D7F: C8     INY
5D80: B1EA   LDAiy EA
5D82: 8D1903 STA 0319
5D85: D005   BNE +5>8C
5D87: AD1803 LDA 0318
5D8A: F003   BEQ +3>8F
5D8C: 4CB45C JMP 5CB4
5D8F: AD6303 LDA 0363
5D92: 2903   ANDim 03
5D94: F058   BEQ +88>EE
5D96: 4C615F JMP 5F61
5D99: FF2233 
5D9C: AD6303 LDA 0363
5D9F: 2903   ANDim 03
5DA1: F003   BEQ +3>A6
5DA3: 4C615F JMP 5F61
5DA6: 20B35A JSR 5AB3
5DA9: A002   LDYim 02
5DAB: 200D56 JSR 560D
5DAE: AC2403 LDY 0324
5DB1: AD1803 LDA 0318
5DB4: 91EA   STAiy EA
5DB6: C8     INY
5DB7: AD1903 LDA 0319
5DBA: 91EA   STAiy EA
5DBC: A204   LDXim 04
5DBE: 203356 JSR 5633
5DC1: AD2403 LDA 0324
5DC4: C9D8   CMPim D8
5DC6: B006   BCS +6>CE
5DC8: 4CB45C JMP 5CB4
5DCB: FF2233 
5DCE: AD6303 LDA 0363
5DD1: 48     PHA
5DD2: AD7B03 LDA 037B
5DD5: 48     PHA
5DD6: AD7A03 LDA 037A
5DD9: 48     PHA
5DDA: A903   LDAim 03
5DDC: 8D2303 STA 0323
5DDF: 20BC55 JSR 55BC
5DE2: 68     PLA
5DE3: 8D7A03 STA 037A
5DE6: 68     PLA
5DE7: 8D7B03 STA 037B
5DEA: 68     PLA
5DEB: 8D6303 STA 0363
5DEE: 20B35A JSR 5AB3
5DF1: A003   LDYim 03
5DF3: 200D56 JSR 560D
5DF6: AC2503 LDY 0325
5DF9: AD1803 LDA 0318
5DFC: 91EA   STAiy EA
5DFE: C8     INY
5DFF: AD1903 LDA 0319
5E02: 91EA   STAiy EA
5E04: A206   LDXim 06
5E06: 203356 JSR 5633
5E09: 4CB45C JMP 5CB4
5E0C: FFFF22 
5E0F: 33     
5E10: B1EA   LDAiy EA
5E12: 8D1803 STA 0318
5E15: C8     INY
5E16: B1EA   LDAiy EA
5E18: 8D1903 STA 0319
5E1B: 60     RTS
5E1C: FFFFFF 
5E1F: 22     
5E20: 33     
5E21: 20A15C JSR 5CA1
5E24: 48     PHA
5E25: AD3503 LDA 0335
5E28: D003   BNE +3>2D
5E2A: 4CF65E JMP 5EF6
5E2D: A002   LDYim 02
5E2F: 200D56 JSR 560D
5E32: A024   LDYim 24
5E34: B1EA   LDAiy EA
5E36: 38     SEC
5E37: E901   SBCim 01
5E39: C8     INY
5E3A: B1EA   LDAiy EA
5E3C: E900   SBCim 00
5E3E: 8D3703 STA 0337
5E41: C8     INY
5E42: B1EA   LDAiy EA
5E44: E900   SBCim 00
5E46: 8D3803 STA 0338
5E49: 20C65C JSR 5CC6
5E4C: AD1C03 LDA 031C
5E4F: F003   BEQ +3>54
5E51: 4CB45C JMP 5CB4
5E54: AD2403 LDA 0324
5E57: C9D8   CMPim D8
5E59: 904E   BCC +78>A9
5E5B: A002   LDYim 02
5E5D: 200D56 JSR 560D
5E60: AC2403 LDY 0324
5E63: B1EA   LDAiy EA
5E65: 8D1803 STA 0318
5E68: 48     PHA
5E69: C8     INY
5E6A: B1EA   LDAiy EA
5E6C: 8D1903 STA 0319
5E6F: 48     PHA
5E70: A903   LDAim 03
5E72: 8D2303 STA 0323
5E75: 206B55 JSR 556B
5E78: A003   LDYim 03
5E7A: 200D56 JSR 560D
5E7D: AC2503 LDY 0325
5E80: 84EC   STYz EC
5E82: 20105E JSR 5E10
5E85: 20945B JSR 5B94
5E88: A4EC   LDYz EC
5E8A: F005   BEQ +5>91
5E8C: 88     DEY
5E8D: 88     DEY
5E8E: 18     CLC
5E8F: 90EF   BCC -17>80
5E91: A0FE   LDYim FE
5E93: 8C2503 STY 0325
5E96: 68     PLA
5E97: 8D1903 STA 0319
5E9A: 68     PLA
5E9B: 8D1803 STA 0318
5E9E: 20945B JSR 5B94
5EA1: CE2403 DEC 0324
5EA4: CE2403 DEC 0324
5EA7: D0AB   BNE -85>54
5EA9: A002   LDYim 02
5EAB: 200D56 JSR 560D
5EAE: AC2403 LDY 0324
5EB1: 84EC   STYz EC
5EB3: 20105E JSR 5E10
5EB6: 20945B JSR 5B94
5EB9: A4EC   LDYz EC
5EBB: 88     DEY
5EBC: 88     DEY
5EBD: C038   CPYim 38
5EBF: B0F0   BCS -16>B1
5EC1: A900   LDAim 00
5EC3: A038   LDYim 38
5EC5: 91EA   STAiy EA
5EC7: C8     INY
5EC8: D0FB   BNE -5>C5
5ECA: A026   LDYim 26
5ECC: 91EA   STAiy EA
5ECE: 88     DEY
5ECF: C024   CPYim 24
5ED1: B0F9   BCS -7>CC
5ED3: 8D3603 STA 0336
5ED6: 8D3703 STA 0337
5ED9: 8D3803 STA 0338
5EDC: A204   LDXim 04
5EDE: 203356 JSR 5633
5EE1: A900   LDAim 00
5EE3: A203   LDXim 03
5EE5: 9D5403 STAx 0354
5EE8: CA     DEX
5EE9: 10FA   BPL -6>E5
5EEB: 4CB45C JMP 5CB4
5EEE: FFFFFF 
5EF1: FFFFFF 
5EF4: 22     
5EF5: 33     
5EF6: A901   LDAim 01
5EF8: 8DF8FF STA FFF8 bios.flag EPROM lo
5EFB: 200325 JSR 2503 hexedit.lwriteVonBis
5EFE: 0B     
5EFF: 5F     
5F00: 265F   ROLz 5F bs.breakZeitH
5F02: EA     NOP
5F03: EA     NOP
5F04: EA     NOP
5F05: 4C1D1C JMP 1C1D monitor.RESET
5F08: FFFF02 ---- text data
5F0B: 20212121 2046696C 65206E69 63687420  ' !!! File nicht '
5F1B: 6F666665 6E202C20 53544F50 1D202121  'offen , STOP? !!'
5F2B: 21204C65 73657A75 67726966 66206175  '! Lesezugriff au'
5F3B: 6620756E 62656B2E 20726563 6F72642C  'f unbek. record,'
5F4B: 2053544F 501D ' STOP?'
5F51: 03     
5F52: FFFFFF 
5F55: FFFFFF 
5F58: FFFFFF 
5F5B: FFFFFF 
5F5E: FF2233 
5F61: A901   LDAim 01
5F63: 8D081A STA 1A08 bs.param.ROMStatusMaster
5F66: 8DF8FF STA FFF8 bios.flag EPROM lo
5F69: 200325 JSR 2503 hexedit.lwriteVonBis
5F6C: 28     PLP
5F6D: 5F     
5F6E: 4F     
5F6F: 5F     
5F70: EA     NOP
5F71: EA     NOP
5F72: 4C1D1C JMP 1C1D monitor.RESET
5F75: FFFFFF 
5F78: FFFFFF 
5F7B: FFFFFF 
5F7E: FF2233 
5F81: 20295D JSR 5D29
5F84: AD6303 LDA 0363
5F87: C904   CMPim 04
5F89: D001   BNE +1>8C
5F8B: 60     RTS
5F8C: AD1803 LDA 0318
5F8F: AE1903 LDX 0319
5F92: 8D2A03 STA 032A
5F95: 8E2B03 STX 032B
5F98: 20A15C JSR 5CA1
5F9B: 48     PHA
5F9C: 20D653 JSR 53D6
5F9F: 4CB45C JMP 5CB4
5FA2: FFFFFF 
5FA5: FFFFFF 
5FA8: FFFF22 
5FAB: 33     
5FAC: A001   LDYim 01
5FAE: 200D56 JSR 560D
5FB1: A200   LDXim 00
5FB3: A080   LDYim 80
5FB5: B1EA   LDAiy EA
5FB7: CD5203 CMP 0352
5FBA: F003   BEQ +3>BF
5FBC: C8     INY
5FBD: D00A   BNE +10>C9
5FBF: C8     INY
5FC0: B1EA   LDAiy EA
5FC2: 4D5303 EOR 0353
5FC5: 297F   ANDim 7F
5FC7: F00A   BEQ +10>D3
5FC9: C8     INY
5FCA: E8     INX
5FCB: EC2B20 CPX 202B
5FCE: 90E5   BCC -27>B5
5FD0: 4CF65E JMP 5EF6
5FD3: E8     INX
5FD4: EC2B20 CPX 202B
5FD7: B014   BCS +20>ED
5FD9: C8     INY
5FDA: B1EA   LDAiy EA
5FDC: 88     DEY
5FDD: 88     DEY
5FDE: 91EA   STAiy EA
5FE0: C8     INY
5FE1: C8     INY
5FE2: C8     INY
5FE3: B1EA   LDAiy EA
5FE5: 88     DEY
5FE6: 88     DEY
5FE7: 91EA   STAiy EA
5FE9: C8     INY
5FEA: C8     INY
5FEB: D0E6   BNE -26>D3
5FED: A900   LDAim 00
5FEF: 91EA   STAiy EA
5FF1: 88     DEY
5FF2: 91EA   STAiy EA
5FF4: CE2B20 DEC 202B
5FF7: AE5203 LDX 0352
5FFA: AD5303 LDA 0353
5FFD: 2907   ANDim 07
5FFF: 8E1803 STX 0318
6002: 8D1903 STA 0319
6005: 20945B JSR 5B94
6008: A900   LDAim 00
600A: 8D5203 STA 0352
600D: 8D5303 STA 0353
6010: A900   LDAim 00
6012: 8D3503 STA 0335
6015: 60     RTS
6016: FFFFFF 
6019: FFFFFF 
601C: FFFFFF 
601F: FFFFFF 
6022: FFFFFF 
6025: 22     
6026: 33     
6027: 20215E JSR 5E21
602A: 20A15C JSR 5CA1
602D: 48     PHA
602E: 20AC5F JSR 5FAC
6031: 204455 JSR 5544
6034: 4CB45C JMP 5CB4
6037: FFFFFF 
603A: FFFFFF 
603D: FFFFFF 
6040: FFFFFF 
6043: FFFFFF 
6046: FFFFFF 
6049: FFFFFF 
604C: 22     
604D: 33     
604E: A901   LDAim 01
6050: D002   BNE +2>54
6052: A902   LDAim 02
6054: 8D6303 STA 0363
6057: AD3503 LDA 0335
605A: D003   BNE +3>5F
605C: 4CF65E JMP 5EF6
605F: A900   LDAim 00
6061: 8D2016 STA 1620
6064: 20A15C JSR 5CA1
6067: 48     PHA
6068: A002   LDYim 02
606A: 200D56 JSR 560D
606D: A021   LDYim 21
606F: B1EA   LDAiy EA
6071: 8D7A03 STA 037A
6074: 85E2   STAz E2 editor.BEGADL
6076: C8     INY
6077: B1EA   LDAiy EA
6079: 8D7B03 STA 037B
607C: 85E3   STAz E3 editor.BEGADH
607E: 201157 JSR 5711
6081: A901   LDAim 01
6083: 8D2016 STA 1620
6086: A901   LDAim 01
6088: A002   LDYim 02
608A: 200D56 JSR 560D
608D: A024   LDYim 24
608F: B1EA   LDAiy EA
6091: 18     CLC
6092: 65E2   ADCz E2 editor.BEGADL
6094: 85E8   STAz E8 editor.CENDL
6096: C8     INY
6097: B1EA   LDAiy EA
6099: 65E3   ADCz E3 editor.BEGADH
609B: 85E9   STAz E9 editor.CENDH
609D: 4CB45C JMP 5CB4
60A0: FFFFFF 
60A3: FFFFFF 
60A6: FFFFFF 
60A9: FFFFFF 
60AC: FFFFFF 
60AF: FFFFFF 
60B2: FFFFFF 
60B5: FFFFFF 
60B8: FFFFFF 
60BB: FFFFFF 
60BE: FFFFFF 
60C1: FFFFFF 
60C4: FFFFFF 
60C7: FFFFFF 
60CA: FFFFFF 
60CD: FFFFFF 
60D0: FFFFFF 
60D3: FFFFFF 
60D6: FFFFFF 
60D9: FFFFFF 
60DC: FFFFFF 
60DF: FFFFFF 
60E2: FFFFFF 
60E5: FFFFFF 
60E8: FFFFFF 
60EB: FFFFFF 
60EE: FFFFFF 
60F1: FFFFFF 
60F4: FFFFFF 
60F7: FFFFFF 
60FA: FFFFFF 
60FD: FF2233 
6100: AD3503 LDA 0335
6103: D003   BNE +3>08
6105: 4CF65E JMP 5EF6
6108: A900   LDAim 00
610A: 8D2016 STA 1620
610D: 20215E JSR 5E21
6110: A002   LDYim 02
6112: 200D56 JSR 560D
6115: A024   LDYim 24
6117: 38     SEC
6118: A5E8   LDAz E8 editor.CENDL
611A: E5E2   SBCz E2 editor.BEGADL
611C: 91EA   STAiy EA
611E: C8     INY
611F: A5E9   LDAz E9 editor.CENDH
6121: E5E3   SBCz E3 editor.BEGADH
6123: 91EA   STAiy EA
6125: C8     INY
6126: A900   LDAim 00
6128: 91EA   STAiy EA
612A: A002   LDYim 02
612C: 200D56 JSR 560D
612F: A5E2   LDAz E2 editor.BEGADL
6131: 8D7A03 STA 037A
6134: A021   LDYim 21
6136: 91EA   STAiy EA
6138: C8     INY
6139: A5E3   LDAz E3 editor.BEGADH
613B: 8D7B03 STA 037B
613E: 91EA   STAiy EA
6140: C8     INY
6141: AD081A LDA 1A08 bs.param.ROMStatusMaster
6144: 91EA   STAiy EA
6146: A904   LDAim 04
6148: 8D6303 STA 0363
614B: 201157 JSR 5711
614E: A5E2   LDAz E2 editor.BEGADL
6150: A6E3   LDXz E3 editor.BEGADH
6152: 8D7A03 STA 037A
6155: 8E7B03 STX 037B
6158: A900   LDAim 00
615A: 8D6303 STA 0363
615D: 201157 JSR 5711
6160: A5E2   LDAz E2 editor.BEGADL
6162: A6E3   LDXz E3 editor.BEGADH
6164: 8D7A03 STA 037A
6167: 8E7B03 STX 037B
616A: A902   LDAim 02
616C: 8D6303 STA 0363
616F: 201157 JSR 5711
6172: 204455 JSR 5544
6175: A901   LDAim 01
6177: 8D2016 STA 1620
617A: A901   LDAim 01
617C: 60     RTS
617D: FFFFFF 
6180: FFFFFF 
6183: FFFFFF 
6186: FFFFFF 
6189: FFFFFF 
618C: FFFFFF 
618F: FFFFFF 
6192: FFFFFF 
6195: FFFF22 
6198: 33     
6199: 20C65C JSR 5CC6
619C: AD1C03 LDA 031C
619F: F001   BEQ +1>A2
61A1: 60     RTS
61A2: A901   LDAim 01
61A4: 8D6303 STA 0363
61A7: 20295D JSR 5D29
61AA: A904   LDAim 04
61AC: 8D2303 STA 0323
61AF: 206B55 JSR 556B
61B2: A004   LDYim 04
61B4: 200D56 JSR 560D
61B7: AC3603 LDY 0336
61BA: 20DF61 JSR 61DF
61BD: EE3603 INC 0336
61C0: D008   BNE +8>CA
61C2: EE3703 INC 0337
61C5: D003   BNE +3>CA
61C7: EE3803 INC 0338
61CA: 60     RTS
61CB: FFFFFF 
61CE: FFFFFF 
61D1: FFFFFF 
61D4: FFFFFF 
61D7: FFFFFF 
61DA: FF2233 
61DD: A000   LDYim 00
61DF: 08     PHP
61E0: 78     SEI
61E1: A900   LDAim 00
61E3: 8DF8FF STA FFF8 bios.flag EPROM lo
61E6: B1EA   LDAiy EA
61E8: AE081A LDX 1A08 bs.param.ROMStatusMaster
61EB: 8EF8FF STX FFF8 bios.flag EPROM lo
61EE: 28     PLP
61EF: 60     RTS
61F0: FFFFFF 
61F3: FFFFFF 
61F6: FFFFFF 
61F9: FF2233 
61FC: 48     PHA
61FD: 20C65C JSR 5CC6
6200: AD1C03 LDA 031C
6203: F01F   BEQ +31>24
6205: A002   LDYim 02
6207: 200D56 JSR 560D
620A: A024   LDYim 24
620C: 18     CLC
620D: AD3603 LDA 0336
6210: 6901   ADCim 01
6212: 91EA   STAiy EA
6214: C8     INY
6215: AD3703 LDA 0337
6218: 6900   ADCim 00
621A: 91EA   STAiy EA
621C: C8     INY
621D: AD3803 LDA 0338
6220: 6900   ADCim 00
6222: 91EA   STAiy EA
6224: A904   LDAim 04
6226: 8D6303 STA 0363
6229: 20295D JSR 5D29
622C: AD1803 LDA 0318
622F: CD5603 CMP 0356
6232: D008   BNE +8>3C
6234: AD1903 LDA 0319
6237: 4D5703 EOR 0357
623A: 297F   ANDim 7F
623C: F003   BEQ +3>41
623E: 20BC55 JSR 55BC
6241: 4C6B62 JMP 626B
6244: FFFFFF 
6247: FFFFFF 
624A: FFFFFF 
624D: FF2233 
6250: 48     PHA
6251: 20C65C JSR 5CC6
6254: AD1C03 LDA 031C
6257: F002   BEQ +2>5B
6259: 68     PLA
625A: 60     RTS
625B: A904   LDAim 04
625D: 8D6303 STA 0363
6260: 20295D JSR 5D29
6263: A904   LDAim 04
6265: 8D2303 STA 0323
6268: 206B55 JSR 556B
626B: A004   LDYim 04
626D: 200D56 JSR 560D
6270: 68     PLA
6271: AC3603 LDY 0336
6274: 91EA   STAiy EA
6276: EE3603 INC 0336
6279: D008   BNE +8>83
627B: EE3703 INC 0337
627E: D003   BNE +3>83
6280: EE3803 INC 0338
6283: 60     RTS
6284: FFFFFF 
6287: FFFFFF 
628A: FFFFFF 
628D: FFFFFF 
6290: FFFFFF 
6293: FFFFFF 
6296: FFFFFF 
6299: FFFFFF 
629C: FFFFFF 
629F: FFFFFF 
62A2: FFFFFF 
62A5: FFFFFF 
62A8: FFFFFF 
62AB: FFFFFF 
62AE: FFFFFF 
62B1: FFFFFF 
62B4: FFFFFF 
62B7: FFFFFF 
62BA: FFFFFF 
62BD: FFFFFF 
62C0: FFFFFF 
62C3: FFFFFF 
62C6: FFFFFF 
62C9: FFFFFF 
62CC: FFFFFF 
62CF: FFFFFF 
62D2: FFFFFF 
62D5: FFFFFF 
62D8: FFFFFF 
62DB: FFFFFF 
62DE: FFFFFF 
62E1: FFFFFF 
62E4: FFFFFF 
62E7: FFFFFF 
62EA: FFFFFF 
62ED: FFFFFF 
62F0: FFFFFF 
62F3: FFFFFF 
62F6: FFFFFF 
62F9: FFFFFF 
62FC: FFFFFF 
62FF: FFFFFF 
6302: FFFFFF 
6305: FFFFFF 
6308: FFFFFF 
630B: FFFFFF 
630E: 22     
630F: 33     
6310: E007   CPXim 07
6312: F00E   BEQ +14>22
6314: E002   CPXim 02
6316: F04E   BEQ +78>66
6318: E001   CPXim 01
631A: F02F   BEQ +47>4B
631C: D01A   BNE +26>38
631E: FFFF22 
6321: 33     
6322: A200   LDXim 00
6324: 86EA   STXz EA
6326: 20CE24 JSR 24CE hexedit.Blank
6329: A6EA   LDXz EA
632B: BD6A03 LDAx 036A
632E: 20EF24 JSR 24EF hexedit.byteDru
6331: A6EA   LDXz EA
6333: E8     INX
6334: E007   CPXim 07
6336: D0EC   BNE -20>24
6338: 20C924 JSR 24C9 hexedit.2Blanks
633B: AD0016 LDA 1600 floppy.??
633E: 20EF24 JSR 24EF hexedit.byteDru
6341: 20C924 JSR 24C9 hexedit.2Blanks
6344: 60     RTS
6345: FFFFFF 
6348: FF2233 
634B: 20CE24 JSR 24CE hexedit.Blank
634E: AD6A03 LDA 036A
6351: 20EF24 JSR 24EF hexedit.byteDru
6354: 18     CLC
6355: 90E1   BCC -31>38
6357: FFFFFF 
635A: FFFFFF 
635D: FFFFFF 
6360: FFFFFF 
6363: FF2233 
6366: EA     NOP
6367: 20CE24 JSR 24CE hexedit.Blank
636A: AD6A03 LDA 036A
636D: 20EF24 JSR 24EF hexedit.byteDru
6370: 20CE24 JSR 24CE hexedit.Blank
6373: AD6B03 LDA 036B
6376: 20EF24 JSR 24EF hexedit.byteDru
6379: 18     CLC
637A: 90BC   BCC -68>38
637C: FFFF22 
637F: 33     
6380: 7064   BCS +100>E6
6382: 60     RTS
6383: 64     
6384: 3965F3 ANDy F365
6387: 58     CLI
6388: 6965   ADCim 65
638A: 89     
638B: 65A9   ADCz A9
638D: 65C9   ADCz C9
638F: 652D   ADCz 2D
6391: 52     
6392: E965   SBCim 65
6394: 6F     
6395: 5177   EORiy 77
6397: 57     
6398: 28     PLP
6399: 661B   RORz 1B
639B: 68     PLA
639C: 44     
639D: 557E   EORzx 7E
639F: 68     PLA
63A0: FFFFFF 
63A3: FFFFFF 
63A6: FFFFFF 
63A9: FFFF22 
63AC: 33     
63AD: A903   LDAim 03
63AF: 8D081A STA 1A08 bs.param.ROMStatusMaster
63B2: 20DD1F JSR 1FDD bios.activate EPROM segments(1A08)
63B5: 206624 JSR 2466 hexedit.openOutVideo
63B8: 20D038 JSR 38D0 rkv.initBs
63BB: 208B24 JSR 248B hexedit.openInHexKb
63BE: 206024 JSR 2460 hexedit.read
63C1: C93A   CMPim 3A
63C3: 9002   BCC +2>C7
63C5: E907   SBCim 07
63C7: 290F   ANDim 0F
63C9: 0A     ASLa
63CA: AA     TAX
63CB: BD8063 LDAx 6380
63CE: 8D001A STA 1A00 bs.help1
63D1: BD8163 LDAx 6381
63D4: 8D011A STA 1A01
63D7: A900   LDAim 00
63D9: 85EE   STAz EE
63DB: 20F463 JSR 63F4
63DE: 48     PHA
63DF: 8A     TXAa
63E0: 48     PHA
63E1: A5EE   LDAz EE
63E3: 095E   ORAim 5E
63E5: 206324 JSR 2463 hexedit.write
63E8: 68     PLA
63E9: AA     TAX
63EA: 68     PLA
63EB: 201063 JSR 6310
63EE: 20D424 JSR 24D4 hexedit.CR
63F1: 18     CLC
63F2: 90CA   BCC -54>BE
63F4: 6C001A JMPi 1A00 bs.help1
63F7: FFFFFF 
63FA: FFFFFF 
63FD: FF2233 
6400: 206024 JSR 2460 hexedit.read
6403: C93A   CMPim 3A
6405: 9002   BCC +2>09
6407: E907   SBCim 07
6409: 290F   ANDim 0F
640B: 60     RTS
640C: FFFF22 
640F: 33     
6410: 200064 JSR 6400
6413: 0A     ASLa
6414: 0A     ASLa
6415: 0A     ASLa
6416: 0A     ASLa
6417: 85EA   STAz EA
6419: 200064 JSR 6400
641C: 05EA   ORAz EA
641E: 85EA   STAz EA
6420: 20EF24 JSR 24EF hexedit.byteDru
6423: A5EA   LDAz EA
6425: 60     RTS
6426: FFFFFF 
6429: FFFFFF 
642C: FFFF22 
642F: 33     
6430: 201064 JSR 6410
6433: A200   LDXim 00
6435: 8E7A03 STX 037A
6438: 8D7B03 STA 037B
643B: 60     RTS
643C: FFFFFF 
643F: FFFFFF 
6442: FFFFFF 
6445: FFFFFF 
6448: FFFFFF 
644B: FFFFFF 
644E: FFFFFF 
6451: FFFFFF 
6454: FFFFFF 
6457: FFFFFF 
645A: FFFFFF 
645D: FF2233 
6460: A901   LDAim 01
6462: D002   BNE +2>66
6464: A900   LDAim 00
6466: 8D2016 STA 1620
6469: A94D   LDAim 4D
646B: 206324 JSR 2463 hexedit.write
646E: 60     RTS
646F: 33     
6470: 200064 JSR 6400
6473: 2907   ANDim 07
6475: 8D2303 STA 0323
6478: 206624 JSR 2466 hexedit.openOutVideo
647B: 20C924 JSR 24C9 hexedit.2Blanks
647E: AD2303 LDA 0323
6481: 20E224 JSR 24E2 hexedit.Nibble
6484: 20C924 JSR 24C9 hexedit.2Blanks
6487: AC2303 LDY 0323
648A: 200D56 JSR 560D
648D: A5EB   LDAz EB
648F: 20EF24 JSR 24EF hexedit.byteDru
6492: A5EA   LDAz EA
6494: 20EF24 JSR 24EF hexedit.byteDru
6497: 20C924 JSR 24C9 hexedit.2Blanks
649A: AD2303 LDA 0323
649D: 0A     ASLa
649E: AA     TAX
649F: 48     PHA
64A0: BD4F03 LDAx 034F
64A3: 48     PHA
64A4: 0A     ASLa
64A5: A918   LDAim 18
64A7: 2A     ROLa
64A8: 206324 JSR 2463 hexedit.write
64AB: 20CE24 JSR 24CE hexedit.Blank
64AE: 68     PLA
64AF: 297F   ANDim 7F
64B1: 20EF24 JSR 24EF hexedit.byteDru
64B4: 68     PLA
64B5: AA     TAX
64B6: BD4E03 LDAx 034E
64B9: 20EF24 JSR 24EF hexedit.byteDru
64BC: 20C924 JSR 24C9 hexedit.2Blanks
64BF: AD3203 LDA 0332
64C2: 20E224 JSR 24E2 hexedit.Nibble
64C5: 20CE24 JSR 24CE hexedit.Blank
64C8: 200A56 JSR 560A
64CB: A9FF   LDAim FF
64CD: 85EC   STAz EC
64CF: 20D424 JSR 24D4 hexedit.CR
64D2: E6EC   INCz EC
64D4: 20D424 JSR 24D4 hexedit.CR
64D7: A5EC   LDAz EC
64D9: 20E224 JSR 24E2 hexedit.Nibble
64DC: A93A   LDAim 3A
64DE: 206324 JSR 2463 hexedit.write
64E1: 20C924 JSR 24C9 hexedit.2Blanks
64E4: 20DD61 JSR 61DD
64E7: 20EF24 JSR 24EF hexedit.byteDru
64EA: 20CE24 JSR 24CE hexedit.Blank
64ED: E6EA   INCz EA
64EF: A5EA   LDAz EA
64F1: EA     NOP
64F2: EA     NOP
64F3: 290F   ANDim 0F
64F5: F00A   BEQ +10>01
64F7: 2907   ANDim 07
64F9: D0E9   BNE -23>E4
64FB: 20CE24 JSR 24CE hexedit.Blank
64FE: 18     CLC
64FF: 90E3   BCC -29>E4
6501: 20C924 JSR 24C9 hexedit.2Blanks
6504: 20C924 JSR 24C9 hexedit.2Blanks
6507: 38     SEC
6508: A5EA   LDAz EA
650A: E910   SBCim 10
650C: 85EA   STAz EA
650E: 20DD61 JSR 61DD
6511: C920   CMPim 20
6513: B002   BCS +2>17
6515: A92E   LDAim 2E
6517: 206324 JSR 2463 hexedit.write
651A: E6EA   INCz EA
651C: A5EA   LDAz EA
651E: F00E   BEQ +14>2E
6520: 290F   ANDim 0F
6522: F0AE   BEQ -82>D2
6524: 2907   ANDim 07
6526: D003   BNE +3>2B
6528: 20CE24 JSR 24CE hexedit.Blank
652B: 18     CLC
652C: 90E0   BCC -32>0E
652E: 20D424 JSR 24D4 hexedit.CR
6531: 60     RTS
6532: FFFFFF 
6535: FFFF22 
6538: 33     
6539: 203821 JSR 2138 drucker.writeplus
653C: 0620   ASLz 20
653E: 68     PLA
653F: 6F     
6540: 6C20EA JMPi EA20
6543: EA     NOP
6544: 200064 JSR 6400
6547: 2907   ANDim 07
6549: 8D2303 STA 0323
654C: 20E224 JSR 24E2 hexedit.Nibble
654F: 20CE24 JSR 24CE hexedit.Blank
6552: 200064 JSR 6400
6555: 290F   ANDim 0F
6557: 8D1903 STA 0319
655A: 20E224 JSR 24E2 hexedit.Nibble
655D: 201064 JSR 6410
6560: 8D1803 STA 0318
6563: 206B55 JSR 556B
6566: A207   LDXim 07
6568: 60     RTS
6569: 203821 JSR 2138 drucker.writeplus
656C: 0620   ASLz 20
656E: 6C6F61 JMPi 616F
6571: 64     
6572: 20EAEA JSR EAEA
6575: 204E60 JSR 604E
6578: A900   LDAim 00
657A: 8D5603 STA 0356
657D: 8D5703 STA 0357
6580: A207   LDXim 07
6582: 60     RTS
6583: FFFFFF 
6586: FF2233 
6589: 203821 JSR 2138 drucker.writeplus
658C: 0620   ASLz 20
658E: 73     
658F: 6176   ADCix 76
6591: 6520   ADCz 20
6593: EA     NOP
6594: EA     NOP
6595: A002   LDYim 02
6597: 200D56 JSR 560D
659A: 200061 JSR 6100
659D: AD1C03 LDA 031C
65A0: 85EE   STAz EE
65A2: A207   LDXim 07
65A4: 60     RTS
65A5: FFFF22 
65A8: 33     
65A9: 203821 JSR 2138 drucker.writeplus
65AC: 08     PHP
65AD: 207665 JSR 6576
65B0: 72     
65B1: 6966   ADCim 66
65B3: 7920EA ADCy EA20
65B6: EA     NOP
65B7: 205260 JSR 6052
65BA: A900   LDAim 00
65BC: 8D5603 STA 0356
65BF: 8D5703 STA 0357
65C2: A207   LDXim 07
65C4: 60     RTS
65C5: FFFF22 
65C8: 33     
65C9: 203821 JSR 2138 drucker.writeplus
65CC: 07     
65CD: 20636C JSR 6C63
65D0: 6561   ADCz 61
65D2: 72     
65D3: 20EAEA JSR EAEA
65D6: 202760 JSR 6027
65D9: A901   LDAim 01
65DB: 8D2016 STA 1620
65DE: A901   LDAim 01
65E0: A207   LDXim 07
65E2: 60     RTS
65E3: FFFFFF 
65E6: FF2233 
65E9: 203821 JSR 2138 drucker.writeplus
65EC: 08     PHP
65ED: 207374 JSR 7473
65F0: 6174   ADCix 74
65F2: 7573   ADCzx 73
65F4: 20EAEA JSR EAEA
65F7: 200064 JSR 6400
65FA: 2907   ANDim 07
65FC: 8D2303 STA 0323
65FF: 48     PHA
6600: 20E224 JSR 24E2 hexedit.Nibble
6603: 201064 JSR 6410
6606: A8     TAY
6607: 68     PLA
6608: 0A     ASLa
6609: 48     PHA
660A: AA     TAX
660B: 98     TYA
660C: 9D4F03 STAx 034F
660F: 201064 JSR 6410
6612: A8     TAY
6613: 68     PLA
6614: AA     TAX
6615: 98     TYA
6616: 9D4E03 STAx 034E
6619: 20CE24 JSR 24CE hexedit.Blank
661C: A201   LDXim 01
661E: 60     RTS
661F: FFFFFF 
6622: FFFFFF 
6625: FF2233 
6628: 203821 JSR 2138 drucker.writeplus
662B: 0920   ORAim 20
662D: 6E6577 ROR 7765
6630: 6669   RORz 69
6632: 6C6520 JMPi 2065
6635: EA     NOP
6636: EA     NOP
6637: A200   LDXim 00
6639: 86EA   STXz EA
663B: 206024 JSR 2460 hexedit.read
663E: 48     PHA
663F: 206324 JSR 2463 hexedit.write
6642: 68     PLA
6643: C980   CMPim 80
6645: B010   BCS +16>57
6647: C920   CMPim 20
6649: 900C   BCC +12>57
664B: A6EA   LDXz EA
664D: 9DD802 STAx 02D8
6650: E8     INX
6651: E020   CPXim 20
6653: 90E4   BCC -28>39
6655: B004   BCS +4>5B
6657: A6EA   LDXz EA
6659: F00D   BEQ +13>68
665B: A920   LDAim 20
665D: 9DD802 STAx 02D8
6660: E8     INX
6661: E020   CPXim 20
6663: 90F8   BCC -8>5D
6665: EA     NOP
6666: EA     NOP
6667: EA     NOP
6668: 20FE5B JSR 5BFE
666B: A002   LDYim 02
666D: 200D56 JSR 560D
6670: 20DD61 JSR 61DD
6673: 206324 JSR 2463 hexedit.write
6676: E6EA   INCz EA
6678: A4EA   LDYz EA
667A: C020   CPYim 20
667C: 90F2   BCC -14>70
667E: AD1C03 LDA 031C
6681: 85EE   STAz EE
6683: A207   LDXim 07
6685: A901   LDAim 01
6687: 8D2016 STA 1620
668A: A901   LDAim 01
668C: 60     RTS
668D: FFFFFF 
6690: FFFFFF 
6693: FFFFFF 
6696: FFFFFF 
6699: 22     
669A: 33     
669B: A220   LDXim 20
669D: 86EC   STXz EC
669F: 20DD61 JSR 61DD
66A2: C920   CMPim 20
66A4: F009   BEQ +9>AF
66A6: 206324 JSR 2463 hexedit.write
66A9: E6EA   INCz EA
66AB: C6EC   DECz EC
66AD: D0F0   BNE -16>9F
66AF: 20CE24 JSR 24CE hexedit.Blank
66B2: A598   LDAz 98 hexedit.videoSpa
66B4: C923   CMPim 23
66B6: D0F7   BNE -9>AF
66B8: A900   LDAim 00
66BA: 85EA   STAz EA
66BC: 60     RTS
66BD: FF2233 
66C0: A003   LDYim 03
66C2: 84EC   STYz EC
66C4: 86EA   STXz EA
66C6: EA     NOP
66C7: EA     NOP
66C8: 20DD61 JSR 61DD
66CB: 20EF24 JSR 24EF hexedit.byteDru
66CE: A6EA   LDXz EA
66D0: E8     INX
66D1: C6EC   DECz EC
66D3: D0EF   BNE -17>C4
66D5: 20C924 JSR 24C9 hexedit.2Blanks
66D8: A900   LDAim 00
66DA: 85EA   STAz EA
66DC: 60     RTS
66DD: FFFFFF 
66E0: FFFFFF 
66E3: 22     
66E4: 33     
66E5: A003   LDYim 03
66E7: 84EC   STYz EC
66E9: 86EA   STXz EA
66EB: EA     NOP
66EC: EA     NOP
66ED: 20DD61 JSR 61DD
66F0: 20EF24 JSR 24EF hexedit.byteDru
66F3: A6EA   LDXz EA
66F5: CA     DEX
66F6: C6EC   DECz EC
66F8: D0EF   BNE -17>E9
66FA: 20C924 JSR 24C9 hexedit.2Blanks
66FD: A900   LDAim 00
66FF: 85EA   STAz EA
6701: 60     RTS
6702: FFFFFF 
6705: 22     
6706: 33     
6707: 20D424 JSR 24D4 hexedit.CR
670A: EA     NOP
670B: EA     NOP
670C: EA     NOP
670D: EA     NOP
670E: 20FD68 JSR 68FD
6711: A002   LDYim 02
6713: 200D56 JSR 560D
6716: 209B66 JSR 669B
6719: A020   LDYim 20
671B: 20DF61 JSR 61DF
671E: 20E224 JSR 24E2 hexedit.Nibble
6721: 20C924 JSR 24C9 hexedit.2Blanks
6724: A222   LDXim 22
6726: A002   LDYim 02
6728: 20E766 JSR 66E7
672B: A226   LDXim 26
672D: 20E566 JSR 66E5
6730: A227   LDXim 27
6732: 20C066 JSR 66C0
6735: A22A   LDXim 2A
6737: 20C066 JSR 66C0
673A: AD5303 LDA 0353
673D: 297F   ANDim 7F
673F: 20EF24 JSR 24EF hexedit.byteDru
6742: AD5203 LDA 0352
6745: 20EF24 JSR 24EF hexedit.byteDru
6748: 60     RTS
6749: FFFFFF 
674C: FFFFFF 
674F: FFFFFF 
6752: FFFFFF 
6755: FFFFFF 
6758: FFFF22 
675B: 33     
675C: FF0002 
675F: 202020 JSR 2020
6762: 206669 JSR 6966
6765: 6C656E JMPi 6E65
6768: 616D   ADCix 6D hexedit.spaTty
676A: 6520   ADCz 20
676C: 202020 JSR 2020
676F: 202020 JSR 2020
6772: 202020 JSR 2020
6775: 202020 JSR 2020
6778: 202020 JSR 2020
677B: 202020 JSR 2020
677E: 202020 JSR 2020
6781: 74     
6782: 797020 ADCy 2070
6785: 6162   ADCix 62
6787: 73     
6788: 6F     
6789: 6C206C JMPi 6C20
678C: 6165   ADCix 65
678E: 6E6765 ROR 6567
6791: 202065 JSR 6520
6794: 72     
6795: 7A     
6796: 6575   ADCz 75
6798: 67     
6799: 74     
679A: 206265 JSR 6562
679D: 6E7574 ROR 7475
67A0: 7A     
67A1: 74     
67A2: 207365 JSR 6573
67A5: 63     
67A6: 1D2020 ORAx 2020
67A9: 20202D JSR 2D20
67AC: 2D2D2D AND 2D2D
67AF: 20456E JSR 6E45
67B2: 64     
67B3: 6520   ADCz 20
67B5: 2D2D2D AND 2D2D
67B8: 2D1D03 AND 031D
67BB: FFFFFF 
67BE: FFFFFF 
67C1: FFFF22 
67C4: 33     
67C5: 206624 JSR 2466 hexedit.openOutVideo
67C8: A000   LDYim 00
67CA: 200D56 JSR 560D
67CD: 209B66 JSR 669B
67D0: A020   LDYim 20
67D2: 20DF61 JSR 61DF
67D5: 20E224 JSR 24E2 hexedit.Nibble
67D8: 20C924 JSR 24C9 hexedit.2Blanks
67DB: A222   LDXim 22
67DD: 20C066 JSR 66C0
67E0: A22A   LDXim 2A
67E2: A002   LDYim 02
67E4: 20E766 JSR 66E7
67E7: 203821 JSR 2138 drucker.writeplus
67EA: 07     
67EB: 6672   RORz 72
67ED: 6569   ADCz 69
67EF: 3B     
67F0: 2020EA JSR EA20
67F3: EA     NOP
67F4: A02B   LDYim 2B
67F6: 20DF61 JSR 61DF
67F9: 20DA68 JSR 68DA
67FC: 20EF24 JSR 24EF hexedit.byteDru
67FF: 203821 JSR 2138 drucker.writeplus
6802: 0620   ASLz 20
6804: 6669   RORz 69
6806: 6C6573 JMPi 7365
6809: EA     NOP
680A: EA     NOP
680B: 60     RTS
680C: FFFFFF 
680F: FFFFFF 
6812: FFFFFF 
6815: FFFFFF 
6818: FF2233 
681B: 20C567 JSR 67C5
681E: 200325 JSR 2503 hexedit.lwriteVonBis
6821: 5F     
6822: 67     
6823: A567   LDAz 67
6825: 08     PHP
6826: 78     SEI
6827: 20A15C JSR 5CA1
682A: 48     PHA
682B: A200   LDXim 00
682D: F004   BEQ +4>33
682F: AE1E03 LDX 031E
6832: E8     INX
6833: 8E1E03 STX 031E
6836: EC2B20 CPX 202B
6839: F01C   BEQ +28>57
683B: 207C59 JSR 597C
683E: A902   LDAim 02
6840: 8D2303 STA 0323
6843: 206B55 JSR 556B
6846: 68     PLA
6847: 8D081A STA 1A08 bs.param.ROMStatusMaster
684A: 8DF8FF STA FFF8 bios.flag EPROM lo
684D: 200767 JSR 6707
6850: 20A15C JSR 5CA1
6853: 48     PHA
6854: 18     CLC
6855: 90D8   BCC -40>2F
6857: 68     PLA
6858: 8D081A STA 1A08 bs.param.ROMStatusMaster
685B: 8DF8FF STA FFF8 bios.flag EPROM lo
685E: 28     PLP
685F: 20D424 JSR 24D4 hexedit.CR
6862: 20FD68 JSR 68FD
6865: 200625 JSR 2506 hexedit.writeVonBis
6868: A8     TAY
6869: 67     
686A: B967EA LDAy EA67
686D: EA     NOP
686E: A901   LDAim 01
6870: 8D2016 STA 1620
6873: A901   LDAim 01
6875: 20FD68 JSR 68FD
6878: A207   LDXim 07
687A: 60     RTS
687B: FF2233 
687E: 203821 JSR 2138 drucker.writeplus
6881: 0920   ORAim 20
6883: 6669   RORz 69
6885: 6C6561 JMPi 6165
6888: 64     
6889: 72     
688A: 20EAEA JSR EAEA
688D: A5E3   LDAz E3 editor.BEGADH
688F: 20EF24 JSR 24EF hexedit.byteDru
6892: A5E2   LDAz E2 editor.BEGADL
6894: 20EF24 JSR 24EF hexedit.byteDru
6897: 20CE24 JSR 24CE hexedit.Blank
689A: A5E9   LDAz E9 editor.CENDH
689C: 20EF24 JSR 24EF hexedit.byteDru
689F: A5E8   LDAz E8 editor.CENDL
68A1: 20EF24 JSR 24EF hexedit.byteDru
68A4: 20C924 JSR 24C9 hexedit.2Blanks
68A7: 206024 JSR 2460 hexedit.read
68AA: C930   CMPim 30
68AC: B001   BCS +1>AF
68AE: 60     RTS
68AF: 200364 JSR 6403
68B2: 201364 JSR 6413
68B5: 85E3   STAz E3 editor.BEGADH
68B7: 201064 JSR 6410
68BA: 85E2   STAz E2 editor.BEGADL
68BC: 20CE24 JSR 24CE hexedit.Blank
68BF: 201064 JSR 6410
68C2: 85E9   STAz E9 editor.CENDH
68C4: 201064 JSR 6410
68C7: 85E8   STAz E8 editor.CENDL
68C9: A200   LDXim 00
68CB: 60     RTS
68CC: FFFFFF 
68CF: FFFFFF 
68D2: FFFFFF 
68D5: FFFFFF 
68D8: 22     
68D9: 33     
68DA: 48     PHA
68DB: 4A     LSRa
68DC: 4A     LSRa
68DD: 4A     LSRa
68DE: 4A     LSRa
68DF: AA     TAX
68E0: 68     PLA
68E1: 290F   ANDim 0F
68E3: C90A   CMPim 0A
68E5: 9002   BCC +2>E9
68E7: 6905   ADCim 05
68E9: F8     SED
68EA: 7DEF68 ADCx 68EF
68ED: D8     CLD
68EE: 60     RTS
68EF: 00     BRK
68F0: 1632   ASLzx 32
68F2: 48     PHA
68F3: 64     
68F4: 80     
68F5: 96FF   STXzy FF monitor.MODE
68F7: FFFFFF 
68FA: FF2233 
68FD: A599   LDAz 99 hexedit.video2
68FF: D00D   BNE +13>0E
6901: A901   LDAim 01
6903: 8D2016 STA 1620
6906: A901   LDAim 01
6908: 08     PHP
6909: 58     CLI
690A: 206024 JSR 2460 hexedit.read
690D: 28     PLP
690E: 60     RTS
690F: 22     
6910: 33     
6911: A900   LDAim 00
6913: 8524   STAz 24
6915: A52D   LDAz 2D
6917: 48     PHA
6918: A52C   LDAz 2C
691A: 48     PHA
691B: F8     SED
691C: 38     SEC
691D: A528   LDAz 28
691F: E526   SBCz 26
6921: 854F   STAz 4F
6923: A529   LDAz 29
6925: E527   SBCz 27
6927: 8550   STAz 50
6929: D8     CLD
692A: A526   LDAz 26
692C: A627   LDXz 27
692E: 852C   STAz 2C
6930: 862D   STXz 2D
6932: 205045 JSR 4550
6935: A52E   LDAz 2E
6937: A62F   LDXz 2F
6939: 8526   STAz 26
693B: 8627   STXz 27
693D: A528   LDAz 28
693F: A629   LDXz 29
6941: 852C   STAz 2C
6943: 862D   STXz 2D
6945: 205045 JSR 4550
6948: A52E   LDAz 2E
694A: A62F   LDXz 2F
694C: 8528   STAz 28
694E: 8629   STXz 29
6950: 68     PLA
6951: 852C   STAz 2C
6953: 68     PLA
6954: 852D   STAz 2D
6956: 205045 JSR 4550
6959: A52E   LDAz 2E
695B: A62F   LDXz 2F
695D: 852C   STAz 2C
695F: 862D   STXz 2D
6961: 38     SEC
6962: A528   LDAz 28
6964: E526   SBCz 26
6966: 854D   STAz 4D
6968: A529   LDAz 29
696A: E527   SBCz 27
696C: 854E   STAz 4E
696E: EA     NOP
696F: 18     CLC
6970: A54D   LDAz 4D
6972: 65E8   ADCz E8 editor.CENDL
6974: AA     TAX
6975: A54E   LDAz 4E
6977: 65E9   ADCz E9 editor.CENDH
6979: E464   CPXz 64
697B: E565   SBCz 65
697D: 9003   BCC +3>82
697F: E624   INCz 24
6981: 60     RTS
6982: A52C   LDAz 2C
6984: A62D   LDXz 2D
6986: 85CA   STAz CA bs.Transfer3.vonL
6988: 86CB   STXz CB bs.Transfer3.vonH
698A: 209B42 JSR 429B
698D: 18     CLC
698E: A54D   LDAz 4D
6990: 65E8   ADCz E8 editor.CENDL
6992: 85E8   STAz E8 editor.CENDL
6994: A54E   LDAz 4E
6996: 65E9   ADCz E9 editor.CENDH
6998: 85E9   STAz E9 editor.CENDH
699A: F8     SED
699B: 18     CLC
699C: A54F   LDAz 4F
699E: 6522   ADCz 22
69A0: 8522   STAz 22
69A2: A550   LDAz 50
69A4: 6523   ADCz 23
69A6: 8523   STAz 23
69A8: D8     CLD
69A9: EA     NOP
69AA: A626   LDXz 26
69AC: A527   LDAz 27
69AE: E42C   CPXz 2C
69B0: E52D   SBCz 2D
69B2: 9011   BCC +17>C5
69B4: 18     CLC
69B5: A528   LDAz 28
69B7: 8526   STAz 26
69B9: 654D   ADCz 4D
69BB: 8528   STAz 28
69BD: A529   LDAz 29
69BF: 8527   STAz 27
69C1: 654E   ADCz 4E
69C3: 8529   STAz 29
69C5: A526   LDAz 26
69C7: A627   LDXz 27
69C9: 85CA   STAz CA bs.Transfer3.vonL
69CB: 86CB   STXz CB bs.Transfer3.vonH
69CD: 38     SEC
69CE: A528   LDAz 28
69D0: E901   SBCim 01
69D2: 85CC   STAz CC bs.Transfer3.bisL
69D4: A529   LDAz 29
69D6: E900   SBCim 00
69D8: 85CD   STAz CD bs.Transfer3.bisH
69DA: A52C   LDAz 2C
69DC: A62D   LDXz 2D
69DE: 85CE   STAz CE bs.Transfer3.nachL
69E0: 86CF   STXz CF bs.Transfer3.nachH
69E2: 20861F JSR 1F86 texteditor.sr4
69E5: 60     RTS
69E6: FFFFFF 
69E9: FFFFFF 
69EC: FFFFFF 
69EF: FFFFFF 
69F2: FFFFFF 
69F5: FFFFFF 
69F8: FFFFFF 
69FB: FFFFFF 
69FE: 22     
69FF: 33     
6A00: 20004B JSR 4B00
6A03: A524   LDAz 24
6A05: D038   BNE +56>3F
6A07: EA     NOP
6A08: 204D4B JSR 4B4D
6A0B: A524   LDAz 24
6A0D: D030   BNE +48>3F
6A0F: EA     NOP
6A10: A554   LDAz 54
6A12: F008   BEQ +8>1C
6A14: 204044 JSR 4440
6A17: A524   LDAz 24
6A19: F001   BEQ +1>1C
6A1B: 60     RTS
6A1C: A52B   LDAz 2B
6A1E: 48     PHA
6A1F: A52A   LDAz 2A
6A21: 48     PHA
6A22: 201169 JSR 6911
6A25: 68     PLA
6A26: 852C   STAz 2C
6A28: 68     PLA
6A29: 852D   STAz 2D
6A2B: A524   LDAz 24
6A2D: 48     PHA
6A2E: 205045 JSR 4550
6A31: 206040 JSR 4060
6A34: 68     PLA
6A35: F007   BEQ +7>3E
6A37: 205741 JSR 4157
6A3A: 4A     LSRa
6A3B: 6A     RORa
6A3C: EA     NOP
6A3D: EA     NOP
6A3E: 60     RTS
6A3F: 205741 JSR 4157
6A42: 2546   ANDz 46 hexedit.da.zweites
6A44: EA     NOP
6A45: EA     NOP
6A46: 60     RTS
6A47: FFFF02 ---- text data
6A4A: 23416273 63686E69 7474207A 75206C61  '#Abschnitt zu la'
6A5A: 6E672066 20446174 65692323 1D 'ng f Datei##?'
6A67: 03     
6A68: FFFFFF 
6A6B: FFFFFF 
6A6E: 22     
6A6F: 33     
6A70: 20004B JSR 4B00
6A73: A524   LDAz 24
6A75: D0C8   BNE -56>3F
6A77: EA     NOP
6A78: 204D4B JSR 4B4D
6A7B: A524   LDAz 24
6A7D: D0C0   BNE -64>3F
6A7F: EA     NOP
6A80: A554   LDAz 54
6A82: F008   BEQ +8>8C
6A84: 204044 JSR 4440
6A87: A524   LDAz 24
6A89: F001   BEQ +1>8C
6A8B: 60     RTS
6A8C: A52B   LDAz 2B
6A8E: 48     PHA
6A8F: A52A   LDAz 2A
6A91: 48     PHA
6A92: 201169 JSR 6911
6A95: 20AAEA JSR EAAA
6A98: 4C256A JMP 6A25
6A9B: FFFFFF 
6A9E: FFFFFF 
6AA1: FFFFFF 
6AA4: FFFFFF 
6AA7: FF2233 
6AAA: A528   LDAz 28
6AAC: A629   LDXz 29
6AAE: 85CA   STAz CA bs.Transfer3.vonL
6AB0: 86CB   STXz CB bs.Transfer3.vonH
6AB2: A5E8   LDAz E8 editor.CENDL
6AB4: A6E9   LDXz E9 editor.CENDH
6AB6: 85CC   STAz CC bs.Transfer3.bisL
6AB8: 86CD   STXz CD bs.Transfer3.bisH
6ABA: A526   LDAz 26
6ABC: A627   LDXz 27
6ABE: 85CE   STAz CE bs.Transfer3.nachL
6AC0: 86CF   STXz CF bs.Transfer3.nachH
6AC2: 20861F JSR 1F86 texteditor.sr4
6AC5: 38     SEC
6AC6: A5E8   LDAz E8 editor.CENDL
6AC8: E54D   SBCz 4D
6ACA: 85E8   STAz E8 editor.CENDL
6ACC: A5E9   LDAz E9 editor.CENDH
6ACE: E54E   SBCz 4E
6AD0: 85E9   STAz E9 editor.CENDH
6AD2: F8     SED
6AD3: 38     SEC
6AD4: A522   LDAz 22
6AD6: E54F   SBCz 4F
6AD8: 8522   STAz 22
6ADA: A523   LDAz 23
6ADC: E550   SBCz 50
6ADE: 8523   STAz 23
6AE0: D8     CLD
6AE1: 60     RTS
6AE2: FFFFFF 
6AE5: FFFFFF 
6AE8: FFFFFF 
6AEB: FFFFFF 
6AEE: FFFFFF 
6AF1: FFFFFF 
6AF4: FFFFFF 
6AF7: FFFFFF 
6AFA: FFFFFF 
6AFD: FFFFFF 
6B00: FFFFFF 
6B03: FFFFFF 
6B06: FFFFFF 
6B09: FFFFFF 
6B0C: FFFFFF 
6B0F: FFFFFF 
6B12: FFFFFF 
6B15: FFFFFF 
6B18: FFFFFF 
6B1B: FFFFFF 
6B1E: FFFFFF 
6B21: FFFFFF 
6B24: FFFFFF 
6B27: FFFFFF 
6B2A: FFFFFF 
6B2D: FFFFFF 
6B30: FFFFFF 
6B33: FFFFFF 
6B36: FFFFFF 
6B39: FFFFFF 
6B3C: FFFFFF 
6B3F: FFFFFF 
6B42: FFFFFF 
6B45: FFFFFF 
6B48: FFFFFF 
6B4B: FFFFFF 
6B4E: FFFFFF 
6B51: FFFFFF 
6B54: FFFFFF 
6B57: FFFFFF 
6B5A: FFFFFF 
6B5D: FFFFFF 
6B60: FFFFFF 
6B63: FFFFFF 
6B66: FFFFFF 
6B69: FFFFFF 
6B6C: FFFFFF 
6B6F: FFFFFF 
6B72: FFFFFF 
6B75: FFFFFF 
6B78: FFFFFF 
6B7B: FFFFFF 
6B7E: FFFFFF 
6B81: FFFFFF 
6B84: FFFFFF 
6B87: FFFFFF 
6B8A: FFFFFF 
6B8D: FFFFFF 
6B90: FFFFFF 
6B93: FFFFFF 
6B96: FFFFFF 
6B99: FFFFFF 
6B9C: FFFFFF 
6B9F: FFFFFF 
6BA2: FFFFFF 
6BA5: FFFFFF 
6BA8: FFFFFF 
6BAB: FFFFFF 
6BAE: FFFFFF 
6BB1: FFFFFF 
6BB4: FFFFFF 
6BB7: FFFFFF 
6BBA: FFFFFF 
6BBD: FFFFFF 
6BC0: FFFFFF 
6BC3: FFFFFF 
6BC6: FFFFFF 
6BC9: FFFFFF 
6BCC: FFFFFF 
6BCF: FFFFFF 
6BD2: FFFFFF 
6BD5: FFFFFF 
6BD8: FFFFFF 
6BDB: FFFFFF 
6BDE: FFFFFF 
6BE1: FFFFFF 
6BE4: FFFFFF 
6BE7: FFFFFF 
6BEA: FFFFFF 
6BED: FFFFFF 
6BF0: FFFFFF 
6BF3: FFFFFF 
6BF6: FFFFFF 
6BF9: FFFFFF 
6BFC: FFFFFF 
6BFF: FFFFFF 
6C02: FFFFFF 
6C05: FFFFFF 
6C08: FFFFFF 
6C0B: FFFFFF 
6C0E: FFFFFF 
6C11: FFFFFF 
6C14: FFFFFF 
6C17: FFFFFF 
6C1A: FFFFFF 
6C1D: FFFFFF 
6C20: FFFFFF 
6C23: FFFFFF 
6C26: FFFFFF 
6C29: FFFFFF 
6C2C: FFFFFF 
6C2F: FFFFFF 
6C32: FFFFFF 
6C35: FFFFFF 
6C38: FFFFFF 
6C3B: FFFFFF 
6C3E: FFFFFF 
6C41: FFFFFF 
6C44: FFFFFF 
6C47: FFFFFF 
6C4A: FFFFFF 
6C4D: FFFFFF 
6C50: FFFFFF 
6C53: FFFFFF 
6C56: FFFFFF 
6C59: FFFFFF 
6C5C: FFFFFF 
6C5F: FFFFFF 
6C62: FFFFFF 
6C65: FFFFFF 
6C68: FFFFFF 
6C6B: FFFFFF 
6C6E: FFFFFF 
6C71: FFFFFF 
6C74: FFFFFF 
6C77: FFFFFF 
6C7A: FFFFFF 
6C7D: FFFFFF 
6C80: FFFFFF 
6C83: FFFFFF 
6C86: FFFFFF 
6C89: FFFFFF 
6C8C: FFFFFF 
6C8F: FFFFFF 
6C92: FFFFFF 
6C95: FFFFFF 
6C98: FFFFFF 
6C9B: FFFFFF 
6C9E: FFFFFF 
6CA1: FFFFFF 
6CA4: FFFFFF 
6CA7: FFFFFF 
6CAA: FFFFFF 
6CAD: FFFFFF 
6CB0: FFFFFF 
6CB3: FFFFFF 
6CB6: FFFFFF 
6CB9: FFFFFF 
6CBC: FFFFFF 
6CBF: FFFFFF 
6CC2: FFFFFF 
6CC5: FFFFFF 
6CC8: FFFFFF 
6CCB: FFFFFF 
6CCE: FFFFFF 
6CD1: FFFFFF 
6CD4: FFFFFF 
6CD7: FFFFFF 
6CDA: FFFFFF 
6CDD: FFFFFF 
6CE0: FFFFFF 
6CE3: FFFFFF 
6CE6: FFFFFF 
6CE9: FFFFFF 
6CEC: FFFFFF 
6CEF: FFFFFF 
6CF2: FFFFFF 
6CF5: FFFFFF 
6CF8: FFFFFF 
6CFB: FFFFFF 
6CFE: FFFFFF 
6D01: FFFFFF 
6D04: FFFFFF 
6D07: FFFFFF 
6D0A: FFFFFF 
6D0D: FFFFFF 
6D10: FFFFFF 
6D13: FFFFFF 
6D16: FFFFFF 
6D19: FFFFFF 
6D1C: FFFFFF 
6D1F: FFFFFF 
6D22: FFFFFF 
6D25: FFFFFF 
6D28: FFFFFF 
6D2B: FFFFFF 
6D2E: FFFFFF 
6D31: FFFFFF 
6D34: FFFFFF 
6D37: FFFFFF 
6D3A: FFFFFF 
6D3D: FFFFFF 
6D40: FFFFFF 
6D43: FFFFFF 
6D46: FFFFFF 
6D49: FFFFFF 
6D4C: FFFFFF 
6D4F: FFFFFF 
6D52: FFFFFF 
6D55: FFFFFF 
6D58: FFFFFF 
6D5B: FFFFFF 
6D5E: FFFFFF 
6D61: FFFFFF 
6D64: FFFFFF 
6D67: FFFFFF 
6D6A: FFFFFF 
6D6D: FFFFFF 
6D70: FFFFFF 
6D73: FFFFFF 
6D76: FFFFFF 
6D79: FFFFFF 
6D7C: FFFFFF 
6D7F: FFFFFF 
6D82: FFFFFF 
6D85: FFFFFF 
6D88: FFFFFF 
6D8B: FFFFFF 
6D8E: FFFFFF 
6D91: FFFFFF 
6D94: FFFFFF 
6D97: FFFFFF 
6D9A: FFFFFF 
6D9D: FFFFFF 
6DA0: FFFFFF 
6DA3: FFFFFF 
6DA6: FFFFFF 
6DA9: FFFFFF 
6DAC: FFFFFF 
6DAF: FFFFFF 
6DB2: FFFFFF 
6DB5: FFFFFF 
6DB8: FFFFFF 
6DBB: FFFFFF 
6DBE: FFFFFF 
6DC1: FFFFFF 
6DC4: FFFFFF 
6DC7: FFFFFF 
6DCA: FFFFFF 
6DCD: FFFFFF 
6DD0: FFFFFF 
6DD3: FFFFFF 
6DD6: FFFFFF 
6DD9: FFFFFF 
6DDC: FFFFFF 
6DDF: FFFFFF 
6DE2: FFFFFF 
6DE5: FFFFFF 
6DE8: FFFFFF 
6DEB: FFFFFF 
6DEE: FFFFFF 
6DF1: FFFFFF 
6DF4: FFFFFF 
6DF7: FFFFFF 
6DFA: FFFFFF 
6DFD: FFFFFF 
6E00: FFFFFF 
6E03: FFFFFF 
6E06: FFFFFF 
6E09: FFFFFF 
6E0C: FFFFFF 
6E0F: FFFFFF 
6E12: FFFFFF 
6E15: FFFFFF 
6E18: FFFFFF 
6E1B: FFFFFF 
6E1E: FFFFFF 
6E21: FFFFFF 
6E24: FFFFFF 
6E27: FFFFFF 
6E2A: FFFFFF 
6E2D: FFFFFF 
6E30: FFFFFF 
6E33: FFFFFF 
6E36: FFFFFF 
6E39: FFFFFF 
6E3C: FFFFFF 
6E3F: FFFFFF 
6E42: FFFFFF 
6E45: FFFFFF 
6E48: FFFFFF 
6E4B: FFFFFF 
6E4E: FFFFFF 
6E51: FFFFFF 
6E54: FFFFFF 
6E57: FFFFFF 
6E5A: FFFFFF 
6E5D: FFFFFF 
6E60: FFFFFF 
6E63: FFFFFF 
6E66: FFFFFF 
6E69: FFFFFF 
6E6C: FFFFFF 
6E6F: FFFFFF 
6E72: FFFFFF 
6E75: FFFFFF 
6E78: FFFFFF 
6E7B: FFFFFF 
6E7E: FFFFFF 
6E81: FFFFFF 
6E84: FFFFFF 
6E87: FFFFFF 
6E8A: FFFFFF 
6E8D: FFFFFF 
6E90: FFFFFF 
6E93: FFFFFF 
6E96: FFFFFF 
6E99: FFFFFF 
6E9C: FFFFFF 
6E9F: FFFFFF 
6EA2: FFFFFF 
6EA5: FFFFFF 
6EA8: FFFFFF 
6EAB: FFFFFF 
6EAE: FFFFFF 
6EB1: FFFFFF 
6EB4: FFFFFF 
6EB7: FFFFFF 
6EBA: FFFFFF 
6EBD: FFFFFF 
6EC0: FFFFFF 
6EC3: FFFFFF 
6EC6: FFFFFF 
6EC9: FFFFFF 
6ECC: FFFFFF 
6ECF: FFFFFF 
6ED2: FFFFFF 
6ED5: FFFFFF 
6ED8: FFFFFF 
6EDB: FFFFFF 
6EDE: FFFFFF 
6EE1: FFFFFF 
6EE4: FFFFFF 
6EE7: FFFFFF 
6EEA: FFFFFF 
6EED: FFFFFF 
6EF0: FFFFFF 
6EF3: FFFFFF 
6EF6: FFFFFF 
6EF9: FFFFFF 
6EFC: FFFFFF 
6EFF: FFFFFF 
6F02: FFFFFF 
6F05: FFFFFF 
6F08: FFFFFF 
6F0B: FFFFFF 
6F0E: FFFFFF 
6F11: FFFFFF 
6F14: FFFFFF 
6F17: FFFFFF 
6F1A: FFFFFF 
6F1D: FFFFFF 
6F20: FFFFFF 
6F23: FFFFFF 
6F26: FFFFFF 
6F29: FFFFFF 
6F2C: FFFFFF 
6F2F: FFFFFF 
6F32: FFFFFF 
6F35: FFFFFF 
6F38: FFFFFF 
6F3B: FFFFFF 
6F3E: FFFFFF 
6F41: FFFFFF 
6F44: FFFFFF 
6F47: FFFFFF 
6F4A: FFFFFF 
6F4D: FFFFFF 
6F50: FFFFFF 
6F53: FFFFFF 
6F56: FFFFFF 
6F59: FFFFFF 
6F5C: FFFFFF 
6F5F: FFFFFF 
6F62: FFFFFF 
6F65: FFFFFF 
6F68: FFFFFF 
6F6B: FFFFFF 
6F6E: FFFFFF 
6F71: FFFFFF 
6F74: FFFFFF 
6F77: FFFFFF 
6F7A: FFFFFF 
6F7D: FFFFFF 
6F80: FFFFFF 
6F83: FFFFFF 
6F86: FFFFFF 
6F89: FFFFFF 
6F8C: FFFFFF 
6F8F: FFFFFF 
6F92: FFFFFF 
6F95: FFFFFF 
6F98: FFFFFF 
6F9B: FFFFFF 
6F9E: FFFFFF 
6FA1: FFFFFF 
6FA4: FFFFFF 
6FA7: FFFFFF 
6FAA: FFFFFF 
6FAD: FFFFFF 
6FB0: FFFFFF 
6FB3: FFFFFF 
6FB6: FFFFFF 
6FB9: FFFFFF 
6FBC: FFFFFF 
6FBF: FFFFFF 
6FC2: FFFFFF 
6FC5: FFFFFF 
6FC8: FFFFFF 
6FCB: FFFFFF 
6FCE: FFFFFF 
6FD1: FFFFFF 
6FD4: FFFFFF 
6FD7: FFFFFF 
6FDA: FFFFFF 
6FDD: FFFFFF 
6FE0: FFFFFF 
6FE3: FFFFFF 
6FE6: FFFFFF 
6FE9: FFFFFF 
6FEC: FFFFFF 
6FEF: FFFFFF 
6FF2: FFFFFF 
6FF5: FFFFFF 
6FF8: FFFFFF 
6FFB: FFFFFF 
6FFE: FFFFFF 
7001: FFFFFF 
7004: FFFFFF 
7007: FFFFFF 
700A: FFFFFF 
700D: FFFFFF 
7010: FFFFFF 
7013: FFFFFF 
7016: FFFFFF 
7019: FFFFFF 
701C: FFFFFF 
701F: FFFFFF 
7022: FFFFFF 
7025: FFFFFF 
7028: FFFFFF 
702B: FFFFFF 
702E: FFFFFF 
7031: FFFFFF 
7034: FFFFFF 
7037: FFFFFF 
703A: FFFFFF 
703D: FFFFFF 
7040: FFFFFF 
7043: FFFFFF 
7046: FFFFFF 
7049: FFFFFF 
704C: FFFFFF 
704F: FFFFFF 
7052: FFFFFF 
7055: FFFFFF 
7058: FFFFFF 
705B: FFFFFF 
705E: FFFFFF 
7061: FFFFFF 
7064: FFFFFF 
7067: FFFFFF 
706A: FFFFFF 
706D: FFFFFF 
7070: FFFFFF 
7073: FFFFFF 
7076: FFFFFF 
7079: FFFFFF 
707C: FFFFFF 
707F: FFFFFF 
7082: FFFFFF 
7085: FFFFFF 
7088: FFFFFF 
708B: FFFFFF 
708E: FFFFFF 
7091: FFFFFF 
7094: FFFFFF 
7097: FFFFFF 
709A: FFFFFF 
709D: FFFFFF 
70A0: FFFFFF 
70A3: FFFFFF 
70A6: FFFFFF 
70A9: FFFFFF 
70AC: FFFFFF 
70AF: FFFFFF 
70B2: FFFFFF 
70B5: FFFFFF 
70B8: FFFFFF 
70BB: FFFFFF 
70BE: FFFFFF 
70C1: FFFFFF 
70C4: FFFFFF 
70C7: FFFFFF 
70CA: FFFFFF 
70CD: FFFFFF 
70D0: FFFFFF 
70D3: FFFFFF 
70D6: FFFFFF 
70D9: FFFFFF 
70DC: FFFFFF 
70DF: FFFFFF 
70E2: FFFFFF 
70E5: FFFFFF 
70E8: FFFFFF 
70EB: FFFFFF 
70EE: FFFFFF 
70F1: FFFFFF 
70F4: FFFFFF 
70F7: FFFFFF 
70FA: FFFFFF 
70FD: FFFFFF 
7100: FFFFFF 
7103: FFFFFF 
7106: FFFFFF 
7109: FFFFFF 
710C: FFFFFF 
710F: FFFFFF 
7112: FFFFFF 
7115: FFFFFF 
7118: FFFFFF 
711B: FFFFFF 
711E: FFFFFF 
7121: FFFFFF 
7124: FFFFFF 
7127: FFFFFF 
712A: FFFFFF 
712D: FFFFFF 
7130: FFFFFF 
7133: FFFFFF 
7136: FFFFFF 
7139: FFFFFF 
713C: FFFFFF 
713F: FFFFFF 
7142: FFFFFF 
7145: FFFFFF 
7148: FFFFFF 
714B: FFFFFF 
714E: FFFFFF 
7151: FFFFFF 
7154: FFFFFF 
7157: FFFFFF 
715A: FFFFFF 
715D: FFFFFF 
7160: FFFFFF 
7163: FFFFFF 
7166: FFFFFF 
7169: FFFFFF 
716C: FFFFFF 
716F: FFFFFF 
7172: FFFFFF 
7175: FFFFFF 
7178: FFFFFF 
717B: FFFFFF 
717E: FFFFFF 
7181: FFFFFF 
7184: FFFFFF 
7187: FFFFFF 
718A: FFFFFF 
718D: FFFFFF 
7190: FFFFFF 
7193: FFFFFF 
7196: FFFFFF 
7199: FFFFFF 
719C: FFFFFF 
719F: FFFFFF 
71A2: FFFFFF 
71A5: FFFFFF 
71A8: FFFFFF 
71AB: FFFFFF 
71AE: FFFFFF 
71B1: FFFFFF 
71B4: FFFFFF 
71B7: FFFFFF 
71BA: FFFFFF 
71BD: FFFFFF 
71C0: FFFFFF 
71C3: FFFFFF 
71C6: FFFFFF 
71C9: FFFFFF 
71CC: FFFFFF 
71CF: FFFFFF 
71D2: FFFFFF 
71D5: FFFFFF 
71D8: FFFFFF 
71DB: FFFFFF 
71DE: FFFFFF 
71E1: FFFFFF 
71E4: FFFFFF 
71E7: FFFFFF 
71EA: FFFFFF 
71ED: FFFFFF 
71F0: FFFFFF 
71F3: FFFFFF 
71F6: FFFFFF 
71F9: FFFFFF 
71FC: FFFFFF 
71FF: FFFFFF 
7202: FFFFFF 
7205: FFFFFF 
7208: FFFFFF 
720B: FFFFFF 
720E: FFFFFF 
7211: FFFFFF 
7214: FFFFFF 
7217: FFFFFF 
721A: FFFFFF 
721D: FFFFFF 
7220: FFFFFF 
7223: FFFFFF 
7226: FFFFFF 
7229: FFFFFF 
722C: FFFFFF 
722F: FFFFFF 
7232: FFFFFF 
7235: FFFFFF 
7238: FFFFFF 
723B: FFFFFF 
723E: FFFFFF 
7241: FFFFFF 
7244: FFFFFF 
7247: FFFFFF 
724A: FFFFFF 
724D: FFFFFF 
7250: FFFFFF 
7253: FFFFFF 
7256: FFFFFF 
7259: FFFFFF 
725C: FFFFFF 
725F: FFFFFF 
7262: FFFFFF 
7265: FFFFFF 
7268: FFFFFF 
726B: FFFFFF 
726E: FFFFFF 
7271: FFFFFF 
7274: FFFFFF 
7277: FFFFFF 
727A: FFFFFF 
727D: FFFFFF 
7280: FFFFFF 
7283: FFFFFF 
7286: FFFFFF 
7289: FFFFFF 
728C: FFFFFF 
728F: FFFFFF 
7292: FFFFFF 
7295: FFFFFF 
7298: FFFFFF 
729B: FFFFFF 
729E: FFFFFF 
72A1: FFFFFF 
72A4: FFFFFF 
72A7: FFFFFF 
72AA: FFFFFF 
72AD: FFFFFF 
72B0: FFFFFF 
72B3: FFFFFF 
72B6: FFFFFF 
72B9: FFFFFF 
72BC: FFFFFF 
72BF: FFFFFF 
72C2: FFFFFF 
72C5: FFFFFF 
72C8: FFFFFF 
72CB: FFFFFF 
72CE: FFFFFF 
72D1: FFFFFF 
72D4: FFFFFF 
72D7: FFFFFF 
72DA: FFFFFF 
72DD: FFFFFF 
72E0: FFFFFF 
72E3: FFFFFF 
72E6: FFFFFF 
72E9: FFFFFF 
72EC: FFFFFF 
72EF: FFFFFF 
72F2: FFFFFF 
72F5: FFFFFF 
72F8: FFFFFF 
72FB: FFFFFF 
72FE: FFFFFF 
7301: FFFFFF 
7304: FFFFFF 
7307: FFFFFF 
730A: FFFFFF 
730D: FFFFFF 
7310: FFFFFF 
7313: FFFFFF 
7316: FFFFFF 
7319: FFFFFF 
731C: FFFFFF 
731F: FFFFFF 
7322: FFFFFF 
7325: FFFFFF 
7328: FFFFFF 
732B: FFFFFF 
732E: FFFFFF 
7331: FFFFFF 
7334: FFFFFF 
7337: FFFFFF 
733A: FFFFFF 
733D: FFFFFF 
7340: FFFFFF 
7343: FFFFFF 
7346: FFFFFF 
7349: FFFFFF 
734C: FFFFFF 
734F: FFFFFF 
7352: FFFFFF 
7355: FFFFFF 
7358: FFFFFF 
735B: FFFFFF 
735E: FFFFFF 
7361: FFFFFF 
7364: FFFFFF 
7367: FFFFFF 
736A: FFFFFF 
736D: FFFFFF 
7370: FFFFFF 
7373: FFFFFF 
7376: FFFFFF 
7379: FFFFFF 
737C: FFFFFF 
737F: FFFFFF 
7382: FFFFFF 
7385: FFFFFF 
7388: FFFFFF 
738B: FFFFFF 
738E: FFFFFF 
7391: FFFFFF 
7394: FFFFFF 
7397: FFFFFF 
739A: FFFFFF 
739D: FFFFFF 
73A0: FFFFFF 
73A3: FFFFFF 
73A6: FFFFFF 
73A9: FFFFFF 
73AC: FFFFFF 
73AF: FFFFFF 
73B2: FFFFFF 
73B5: FFFFFF 
73B8: FFFFFF 
73BB: FFFFFF 
73BE: FFFFFF 
73C1: FFFFFF 
73C4: FFFFFF 
73C7: FFFFFF 
73CA: FFFFFF 
73CD: FFFFFF 
73D0: FFFFFF 
73D3: FFFFFF 
73D6: FFFFFF 
73D9: FFFFFF 
73DC: FFFFFF 
73DF: FFFFFF 
73E2: FFFFFF 
73E5: FFFFFF 
73E8: FFFFFF 
73EB: FFFFFF 
73EE: FFFFFF 
73F1: FFFFFF 
73F4: FFFFFF 
73F7: FFFFFF 
73FA: FFFFFF 
73FD: FFFFFF 
7400: FFFFFF 
7403: FFFFFF 
7406: FFFFFF 
7409: FFFFFF 
740C: FFFFFF 
740F: FFFFFF 
7412: FFFFFF 
7415: FFFFFF 
7418: FFFFFF 
741B: FFFFFF 
741E: FFFFFF 
7421: FFFFFF 
7424: FFFFFF 
7427: FFFFFF 
742A: FFFFFF 
742D: FFFFFF 
7430: FFFFFF 
7433: FFFFFF 
7436: FFFFFF 
7439: FFFFFF 
743C: FFFFFF 
743F: FFFFFF 
7442: FFFFFF 
7445: FFFFFF 
7448: FFFFFF 
744B: FFFFFF 
744E: FFFFFF 
7451: FFFFFF 
7454: FFFFFF 
7457: FFFFFF 
745A: FFFFFF 
745D: FFFFFF 
7460: FFFFFF 
7463: FFFFFF 
7466: FFFFFF 
7469: FFFFFF 
746C: FFFFFF 
746F: FFFFFF 
7472: FFFFFF 
7475: FFFFFF 
7478: FFFFFF 
747B: FFFFFF 
747E: FFFFFF 
7481: FFFFFF 
7484: FFFFFF 
7487: FFFFFF 
748A: FFFFFF 
748D: FFFFFF 
7490: FFFFFF 
7493: FFFFFF 
7496: FFFFFF 
7499: FFFFFF 
749C: FFFFFF 
749F: FFFFFF 
74A2: FFFFFF 
74A5: FFFFFF 
74A8: FFFFFF 
74AB: FFFFFF 
74AE: FFFFFF 
74B1: FFFFFF 
74B4: FFFFFF 
74B7: FFFFFF 
74BA: FFFFFF 
74BD: FFFFFF 
74C0: FFFFFF 
74C3: FFFFFF 
74C6: FFFFFF 
74C9: FFFFFF 
74CC: FFFFFF 
74CF: FFFFFF 
74D2: FFFFFF 
74D5: FFFFFF 
74D8: FFFFFF 
74DB: FFFFFF 
74DE: FFFFFF 
74E1: FFFFFF 
74E4: FFFFFF 
74E7: FFFFFF 
74EA: FFFFFF 
74ED: FFFFFF 
74F0: FFFFFF 
74F3: FFFFFF 
74F6: FFFFFF 
74F9: FFFFFF 
74FC: FFFFFF 
74FF: FFFFFF 
7502: FFFFFF 
7505: FFFFFF 
7508: FFFFFF 
750B: FFFFFF 
750E: FFFFFF 
7511: FFFFFF 
7514: FFFFFF 
7517: FFFFFF 
751A: FFFFFF 
751D: FFFFFF 
7520: FFFFFF 
7523: FFFFFF 
7526: FFFFFF 
7529: FFFFFF 
752C: FFFFFF 
752F: FFFFFF 
7532: FFFFFF 
7535: FFFFFF 
7538: FFFFFF 
753B: FFFFFF 
753E: FFFFFF 
7541: FFFFFF 
7544: FFFFFF 
7547: FFFFFF 
754A: FFFFFF 
754D: FFFFFF 
7550: FFFFFF 
7553: FFFFFF 
7556: FFFFFF 
7559: FFFFFF 
755C: FFFFFF 
755F: FFFFFF 
7562: FFFFFF 
7565: FFFFFF 
7568: FFFFFF 
756B: FFFFFF 
756E: FFFFFF 
7571: FFFFFF 
7574: FFFFFF 
7577: FFFFFF 
757A: FFFFFF 
757D: FFFFFF 
7580: FFFFFF 
7583: FFFFFF 
7586: FFFFFF 
7589: FFFFFF 
758C: FFFFFF 
758F: FFFFFF 
7592: FFFFFF 
7595: FFFFFF 
7598: FFFFFF 
759B: FFFFFF 
759E: FFFFFF 
75A1: FFFFFF 
75A4: FFFFFF 
75A7: FFFFFF 
75AA: FFFFFF 
75AD: FFFFFF 
75B0: FFFFFF 
75B3: FFFFFF 
75B6: FFFFFF 
75B9: FFFFFF 
75BC: FFFFFF 
75BF: FFFFFF 
75C2: FFFFFF 
75C5: FFFFFF 
75C8: FFFFFF 
75CB: FFFFFF 
75CE: FFFFFF 
75D1: FFFFFF 
75D4: FFFFFF 
75D7: FFFFFF 
75DA: FFFFFF 
75DD: FFFFFF 
75E0: FFFFFF 
75E3: FFFFFF 
75E6: FFFFFF 
75E9: FFFFFF 
75EC: FFFFFF 
75EF: FFFFFF 
75F2: FFFFFF 
75F5: FFFFFF 
75F8: FFFFFF 
75FB: FFFFFF 
75FE: FFFFFF 
7601: FFFFFF 
7604: FFFFFF 
7607: FFFFFF 
760A: FFFFFF 
760D: FFFFFF 
7610: FFFFFF 
7613: FFFFFF 
7616: FFFFFF 
7619: FFFFFF 
761C: FFFFFF 
761F: FFFFFF 
7622: FFFFFF 
7625: FFFFFF 
7628: FFFFFF 
762B: FFFFFF 
762E: FFFFFF 
7631: FFFFFF 
7634: FFFFFF 
7637: FFFFFF 
763A: FFFFFF 
763D: FFFFFF 
7640: FFFFFF 
7643: FFFFFF 
7646: FFFFFF 
7649: FFFFFF 
764C: FFFFFF 
764F: FFFFFF 
7652: FFFFFF 
7655: FFFFFF 
7658: FFFFFF 
765B: FFFFFF 
765E: FFFFFF 
7661: FFFFFF 
7664: FFFFFF 
7667: FFFFFF 
766A: FFFFFF 
766D: FFFFFF 
7670: FFFFFF 
7673: FFFFFF 
7676: FFFFFF 
7679: FFFFFF 
767C: FFFFFF 
767F: FFFFFF 
7682: FFFFFF 
7685: FFFFFF 
7688: FFFFFF 
768B: FFFFFF 
768E: FFFFFF 
7691: FFFFFF 
7694: FFFFFF 
7697: FFFFFF 
769A: FFFFFF 
769D: FFFFFF 
76A0: FFFFFF 
76A3: FFFFFF 
76A6: FFFFFF 
76A9: FFFFFF 
76AC: FFFFFF 
76AF: FFFFFF 
76B2: FFFFFF 
76B5: FFFFFF 
76B8: FFFFFF 
76BB: FFFFFF 
76BE: FFFFFF 
76C1: FFFFFF 
76C4: FFFFFF 
76C7: FFFFFF 
76CA: FFFFFF 
76CD: FFFFFF 
76D0: FFFFFF 
76D3: FFFFFF 
76D6: FFFFFF 
76D9: FFFFFF 
76DC: FFFFFF 
76DF: FFFFFF 
76E2: FFFFFF 
76E5: FFFFFF 
76E8: FFFFFF 
76EB: FFFFFF 
76EE: FFFFFF 
76F1: FFFFFF 
76F4: FFFFFF 
76F7: FFFFFF 
76FA: FFFFFF 
76FD: FFFFFF 
7700: FFFFFF 
7703: FFFFFF 
7706: FFFFFF 
7709: FFFFFF 
770C: FFFFFF 
770F: FFFFFF 
7712: FFFFFF 
7715: FFFFFF 
7718: FFFFFF 
771B: FFFFFF 
771E: FFFFFF 
7721: FFFFFF 
7724: FFFFFF 
7727: FFFFFF 
772A: FFFFFF 
772D: FFFFFF 
7730: FFFFFF 
7733: FFFFFF 
7736: FFFFFF 
7739: FFFFFF 
773C: FFFFFF 
773F: FFFFFF 
7742: FFFFFF 
7745: FFFFFF 
7748: FFFFFF 
774B: FFFFFF 
774E: FFFFFF 
7751: FFFFFF 
7754: FFFFFF 
7757: FFFFFF 
775A: FFFFFF 
775D: FFFFFF 
7760: FFFFFF 
7763: FFFFFF 
7766: FFFFFF 
7769: FFFFFF 
776C: FFFFFF 
776F: FFFFFF 
7772: FFFFFF 
7775: FFFFFF 
7778: FFFFFF 
777B: FFFFFF 
777E: FFFFFF 
7781: FFFFFF 
7784: FFFFFF 
7787: FFFFFF 
778A: FFFFFF 
778D: FFFFFF 
7790: FFFFFF 
7793: FFFFFF 
7796: FFFFFF 
7799: FFFFFF 
779C: FFFFFF 
779F: FFFFFF 
77A2: FFFFFF 
77A5: FFFFFF 
77A8: FFFFFF 
77AB: FFFFFF 
77AE: FFFFFF 
77B1: FFFFFF 
77B4: FFFFFF 
77B7: FFFFFF 
77BA: FFFFFF 
77BD: FFFFFF 
77C0: FFFFFF 
77C3: FFFFFF 
77C6: FFFFFF 
77C9: FFFFFF 
77CC: FFFFFF 
77CF: FFFFFF 
77D2: FFFFFF 
77D5: FFFFFF 
77D8: FFFFFF 
77DB: FFFFFF 
77DE: FFFFFF 
77E1: FFFFFF 
77E4: FFFFFF 
77E7: FFFFFF 
77EA: FFFFFF 
77ED: FFFFFF 
77F0: FFFFFF 
77F3: FFFFFF 
77F6: FFFFFF 
77F9: FFFFFF 
77FC: FFFFFF 
77FF: FFFFFF 
7802: FFFFFF 
7805: FFFFFF 
7808: FFFFFF 
780B: FFFFFF 
780E: FFFFFF 
7811: FFFFFF 
7814: FFFFFF 
7817: FFFFFF 
781A: FFFFFF 
781D: FFFFFF 
7820: FFFFFF 
7823: FFFFFF 
7826: FFFFFF 
7829: FFFFFF 
782C: FFFFFF 
782F: FFFFFF 
7832: FFFFFF 
7835: FFFFFF 
7838: FFFFFF 
783B: FFFFFF 
783E: FFFFFF 
7841: FFFFFF 
7844: FFFFFF 
7847: FFFFFF 
784A: FFFFFF 
784D: FFFFFF 
7850: FFFFFF 
7853: FFFFFF 
7856: FFFFFF 
7859: FFFFFF 
785C: FFFFFF 
785F: FFFFFF 
7862: FFFFFF 
7865: FFFFFF 
7868: FFFFFF 
786B: FFFFFF 
786E: FFFFFF 
7871: FFFFFF 
7874: FFFFFF 
7877: FFFFFF 
787A: FFFFFF 
787D: FFFFFF 
7880: FFFFFF 
7883: FFFFFF 
7886: FFFFFF 
7889: FFFFFF 
788C: FFFFFF 
788F: FFFFFF 
7892: FFFFFF 
7895: FFFFFF 
7898: FFFFFF 
789B: FFFFFF 
789E: FFFFFF 
78A1: FFFFFF 
78A4: FFFFFF 
78A7: FFFFFF 
78AA: FFFFFF 
78AD: FFFFFF 
78B0: FFFFFF 
78B3: FFFFFF 
78B6: FFFFFF 
78B9: FFFFFF 
78BC: FFFFFF 
78BF: FFFFFF 
78C2: FFFFFF 
78C5: FFFFFF 
78C8: FFFFFF 
78CB: FFFFFF 
78CE: FFFFFF 
78D1: FFFFFF 
78D4: FFFFFF 
78D7: FFFFFF 
78DA: FFFFFF 
78DD: FFFFFF 
78E0: FFFFFF 
78E3: FFFFFF 
78E6: FFFFFF 
78E9: FFFFFF 
78EC: FFFFFF 
78EF: FFFFFF 
78F2: FFFFFF 
78F5: FFFFFF 
78F8: FFFFFF 
78FB: FFFFFF 
78FE: FFFFFF 
7901: FFFFFF 
7904: FFFFFF 
7907: FFFFFF 
790A: FFFFFF 
790D: FFFFFF 
7910: FFFFFF 
7913: FFFFFF 
7916: FFFFFF 
7919: FFFFFF 
791C: FFFFFF 
791F: FFFFFF 
7922: FFFFFF 
7925: FFFFFF 
7928: FFFFFF 
792B: FFFFFF 
792E: FFFFFF 
7931: FFFFFF 
7934: FFFFFF 
7937: FFFFFF 
793A: FFFFFF 
793D: FFFFFF 
7940: FFFFFF 
7943: FFFFFF 
7946: FFFFFF 
7949: FFFFFF 
794C: FFFFFF 
794F: FFFFFF 
7952: FFFFFF 
7955: FFFFFF 
7958: FFFFFF 
795B: FFFFFF 
795E: FFFFFF 
7961: FFFFFF 
7964: FFFFFF 
7967: FFFFFF 
796A: FFFFFF 
796D: FFFFFF 
7970: FFFFFF 
7973: FFFFFF 
7976: FFFFFF 
7979: FFFFFF 
797C: FFFFFF 
797F: FFFFFF 
7982: FFFFFF 
7985: FFFFFF 
7988: FFFFFF 
798B: FFFFFF 
798E: FFFFFF 
7991: FFFFFF 
7994: FFFFFF 
7997: FFFFFF 
799A: FFFFFF 
799D: FFFFFF 
79A0: FFFFFF 
79A3: FFFFFF 
79A6: FFFFFF 
79A9: FFFFFF 
79AC: FFFFFF 
79AF: FFFFFF 
79B2: FFFFFF 
79B5: FFFFFF 
79B8: FFFFFF 
79BB: FFFFFF 
79BE: FFFFFF 
79C1: FFFFFF 
79C4: FFFFFF 
79C7: FFFFFF 
79CA: FFFFFF 
79CD: FFFFFF 
79D0: FFFFFF 
79D3: FFFFFF 
79D6: FFFFFF 
79D9: FFFFFF 
79DC: FFFFFF 
79DF: FFFFFF 
79E2: FFFFFF 
79E5: FFFFFF 
79E8: FFFFFF 
79EB: FFFFFF 
79EE: FFFFFF 
79F1: FFFFFF 
79F4: FFFFFF 
79F7: FFFFFF 
79FA: FFFFFF 
79FD: FFFFFF 
7A00: FFFFFF 
7A03: FFFFFF 
7A06: FFFFFF 
7A09: FFFFFF 
7A0C: FFFFFF 
7A0F: FFFFFF 
7A12: FFFFFF 
7A15: FFFFFF 
7A18: FFFFFF 
7A1B: FFFFFF 
7A1E: FFFFFF 
7A21: FFFFFF 
7A24: FFFFFF 
7A27: FFFFFF 
7A2A: FFFFFF 
7A2D: FFFFFF 
7A30: FFFFFF 
7A33: FFFFFF 
7A36: FFFFFF 
7A39: FFFFFF 
7A3C: FFFFFF 
7A3F: FFFFFF 
7A42: FFFFFF 
7A45: FFFFFF 
7A48: FFFFFF 
7A4B: FFFFFF 
7A4E: FFFFFF 
7A51: FFFFFF 
7A54: FFFFFF 
7A57: FFFFFF 
7A5A: FFFFFF 
7A5D: FFFFFF 
7A60: FFFFFF 
7A63: FFFFFF 
7A66: FFFFFF 
7A69: FFFFFF 
7A6C: FFFFFF 
7A6F: FFFFFF 
7A72: FFFFFF 
7A75: FFFFFF 
7A78: FFFFFF 
7A7B: FFFFFF 
7A7E: FFFFFF 
7A81: FFFFFF 
7A84: FFFFFF 
7A87: FFFFFF 
7A8A: FFFFFF 
7A8D: FFFFFF 
7A90: FFFFFF 
7A93: FFFFFF 
7A96: FFFFFF 
7A99: FFFFFF 
7A9C: FFFFFF 
7A9F: FFFFFF 
7AA2: FFFFFF 
7AA5: FFFFFF 
7AA8: FFFFFF 
7AAB: FFFFFF 
7AAE: FFFFFF 
7AB1: FFFFFF 
7AB4: FFFFFF 
7AB7: FFFFFF 
7ABA: FFFFFF 
7ABD: FFFFFF 
7AC0: FFFFFF 
7AC3: FFFFFF 
7AC6: FFFFFF 
7AC9: FFFFFF 
7ACC: FFFFFF 
7ACF: FFFFFF 
7AD2: FFFFFF 
7AD5: FFFFFF 
7AD8: FFFFFF 
7ADB: FFFFFF 
7ADE: FFFFFF 
7AE1: FFFFFF 
7AE4: FFFFFF 
7AE7: FFFFFF 
7AEA: FFFFFF 
7AED: FFFFFF 
7AF0: FFFFFF 
7AF3: FFFFFF 
7AF6: FFFFFF 
7AF9: FFFFFF 
7AFC: FFFFFF 
7AFF: FFFFFF 
7B02: FFFFFF 
7B05: FFFFFF 
7B08: FFFFFF 
7B0B: FFFFFF 
7B0E: FFFFFF 
7B11: FFFFFF 
7B14: FFFFFF 
7B17: FFFFFF 
7B1A: FFFFFF 
7B1D: FFFFFF 
7B20: FFFFFF 
7B23: FFFFFF 
7B26: FFFFFF 
7B29: FFFFFF 
7B2C: FFFFFF 
7B2F: FFFFFF 
7B32: FFFFFF 
7B35: FFFFFF 
7B38: FFFFFF 
7B3B: FFFFFF 
7B3E: FFFFFF 
7B41: FFFFFF 
7B44: FFFFFF 
7B47: FFFFFF 
7B4A: FFFFFF 
7B4D: FFFFFF 
7B50: FFFFFF 
7B53: FFFFFF 
7B56: FFFFFF 
7B59: FFFFFF 
7B5C: FFFFFF 
7B5F: FFFFFF 
7B62: FFFFFF 
7B65: FFFFFF 
7B68: FFFFFF 
7B6B: FFFFFF 
7B6E: FFFFFF 
7B71: FFFFFF 
7B74: FFFFFF 
7B77: FFFFFF 
7B7A: FFFFFF 
7B7D: FFFFFF 
7B80: FFFFFF 
7B83: FFFFFF 
7B86: FFFFFF 
7B89: FFFFFF 
7B8C: FFFFFF 
7B8F: FFFFFF 
7B92: FFFFFF 
7B95: FFFFFF 
7B98: FFFFFF 
7B9B: FFFFFF 
7B9E: FFFFFF 
7BA1: FFFFFF 
7BA4: FFFFFF 
7BA7: FFFFFF 
7BAA: FFFFFF 
7BAD: FFFFFF 
7BB0: FFFFFF 
7BB3: FFFFFF 
7BB6: FFFFFF 
7BB9: FFFFFF 
7BBC: FFFFFF 
7BBF: FFFFFF 
7BC2: FFFFFF 
7BC5: FFFFFF 
7BC8: FFFFFF 
7BCB: FFFFFF 
7BCE: FFFFFF 
7BD1: FFFFFF 
7BD4: FFFFFF 
7BD7: FFFFFF 
7BDA: FFFFFF 
7BDD: FFFFFF 
7BE0: FFFFFF 
7BE3: FFFFFF 
7BE6: FFFFFF 
7BE9: FFFFFF 
7BEC: FFFFFF 
7BEF: FFFFFF 
7BF2: FFFFFF 
7BF5: FFFFFF 
7BF8: FFFFFF 
7BFB: FFFFFF 
7BFE: FFFFFF 
7C01: FFFFFF 
7C04: FFFFFF 
7C07: FFFFFF 
7C0A: FFFFFF 
7C0D: FFFFFF 
7C10: FFFFFF 
7C13: FFFFFF 
7C16: FFFFFF 
7C19: FFFFFF 
7C1C: FFFFFF 
7C1F: FFFFFF 
7C22: FFFFFF 
7C25: FFFFFF 
7C28: FFFFFF 
7C2B: FFFFFF 
7C2E: FFFFFF 
7C31: FFFFFF 
7C34: FFFFFF 
7C37: FFFFFF 
7C3A: FFFFFF 
7C3D: FFFFFF 
7C40: FFFFFF 
7C43: FFFFFF 
7C46: FFFFFF 
7C49: FFFFFF 
7C4C: FFFFFF 
7C4F: FFFFFF 
7C52: FFFFFF 
7C55: FFFFFF 
7C58: FFFFFF 
7C5B: FFFFFF 
7C5E: FFFFFF 
7C61: FFFFFF 
7C64: FFFFFF 
7C67: FFFFFF 
7C6A: FFFFFF 
7C6D: FFFFFF 
7C70: FFFFFF 
7C73: FFFFFF 
7C76: FFFFFF 
7C79: FFFFFF 
7C7C: FFFFFF 
7C7F: FFFFFF 
7C82: FFFFFF 
7C85: FFFFFF 
7C88: FFFFFF 
7C8B: FFFFFF 
7C8E: FFFFFF 
7C91: FFFFFF 
7C94: FFFFFF 
7C97: FFFFFF 
7C9A: FFFFFF 
7C9D: FFFFFF 
7CA0: FFFFFF 
7CA3: FFFFFF 
7CA6: FFFFFF 
7CA9: FFFFFF 
7CAC: FFFFFF 
7CAF: FFFFFF 
7CB2: FFFFFF 
7CB5: FFFFFF 
7CB8: FFFFFF 
7CBB: FFFFFF 
7CBE: FFFFFF 
7CC1: FFFFFF 
7CC4: FFFFFF 
7CC7: FFFFFF 
7CCA: FFFFFF 
7CCD: FFFFFF 
7CD0: FFFFFF 
7CD3: FFFFFF 
7CD6: FFFFFF 
7CD9: FFFFFF 
7CDC: FFFFFF 
7CDF: FFFFFF 
7CE2: FFFFFF 
7CE5: FFFFFF 
7CE8: FFFFFF 
7CEB: FFFFFF 
7CEE: FFFFFF 
7CF1: FFFFFF 
7CF4: FFFFFF 
7CF7: FFFFFF 
7CFA: FFFFFF 
7CFD: FFFFFF 
7D00: FFFFFF 
7D03: FFFFFF 
7D06: FFFFFF 
7D09: FFFFFF 
7D0C: FFFFFF 
7D0F: FFFFFF 
7D12: FFFFFF 
7D15: FFFFFF 
7D18: FFFFFF 
7D1B: FFFFFF 
7D1E: FFFFFF 
7D21: FFFFFF 
7D24: FFFFFF 
7D27: FFFFFF 
7D2A: FFFFFF 
7D2D: FFFFFF 
7D30: FFFFFF 
7D33: FFFFFF 
7D36: FFFFFF 
7D39: FFFFFF 
7D3C: FFFFFF 
7D3F: FFFFFF 
7D42: FFFFFF 
7D45: FFFFFF 
7D48: FFFFFF 
7D4B: FFFFFF 
7D4E: FFFFFF 
7D51: FFFFFF 
7D54: FFFFFF 
7D57: FFFFFF 
7D5A: FFFFFF 
7D5D: FFFFFF 
7D60: FFFFFF 
7D63: FFFFFF 
7D66: FFFFFF 
7D69: FFFFFF 
7D6C: FFFFFF 
7D6F: FFFFFF 
7D72: FFFFFF 
7D75: FFFFFF 
7D78: FFFFFF 
7D7B: FFFFFF 
7D7E: FFFFFF 
7D81: FFFFFF 
7D84: FFFFFF 
7D87: FFFFFF 
7D8A: FFFFFF 
7D8D: FFFFFF 
7D90: FFFFFF 
7D93: FFFFFF 
7D96: FFFFFF 
7D99: FFFFFF 
7D9C: FFFFFF 
7D9F: FFFFFF 
7DA2: FFFFFF 
7DA5: FFFFFF 
7DA8: FFFFFF 
7DAB: FFFFFF 
7DAE: FFFFFF 
7DB1: FFFFFF 
7DB4: FFFFFF 
7DB7: FFFFFF 
7DBA: FFFFFF 
7DBD: FFFFFF 
7DC0: FFFFFF 
7DC3: FFFFFF 
7DC6: FFFFFF 
7DC9: FFFFFF 
7DCC: FFFFFF 
7DCF: FFFFFF 
7DD2: FFFFFF 
7DD5: FFFFFF 
7DD8: FFFFFF 
7DDB: FFFFFF 
7DDE: FFFFFF 
7DE1: FFFFFF 
7DE4: FFFFFF 
7DE7: FFFFFF 
7DEA: FFFFFF 
7DED: FFFFFF 
7DF0: FFFFFF 
7DF3: FFFFFF 
7DF6: FFFFFF 
7DF9: FFFFFF 
7DFC: FFFFFF 
7DFF: FFFFFF 
7E02: FFFFFF 
7E05: FFFFFF 
7E08: FFFFFF 
7E0B: FFFFFF 
7E0E: FFFFFF 
7E11: FFFFFF 
7E14: FFFFFF 
7E17: FFFFFF 
7E1A: FFFFFF 
7E1D: FFFFFF 
7E20: FFFFFF 
7E23: FFFFFF 
7E26: FFFFFF 
7E29: FFFFFF 
7E2C: FFFFFF 
7E2F: FFFFFF 
7E32: FFFFFF 
7E35: FFFFFF 
7E38: FFFFFF 
7E3B: FFFFFF 
7E3E: FFFFFF 
7E41: FFFFFF 
7E44: FFFFFF 
7E47: FFFFFF 
7E4A: FFFFFF 
7E4D: FFFFFF 
7E50: FFFFFF 
7E53: FFFFFF 
7E56: FFFFFF 
7E59: FFFFFF 
7E5C: FFFFFF 
7E5F: FFFFFF 
7E62: FFFFFF 
7E65: FFFFFF 
7E68: FFFFFF 
7E6B: FFFFFF 
7E6E: FFFFFF 
7E71: FFFFFF 
7E74: FFFFFF 
7E77: FFFFFF 
7E7A: FFFFFF 
7E7D: FFFFFF 
7E80: FFFFFF 
7E83: FFFFFF 
7E86: FFFFFF 
7E89: FFFFFF 
7E8C: FFFFFF 
7E8F: FFFFFF 
7E92: FFFFFF 
7E95: FFFFFF 
7E98: FFFFFF 
7E9B: FFFFFF 
7E9E: FFFFFF 
7EA1: FFFFFF 
7EA4: FFFFFF 
7EA7: FFFFFF 
7EAA: FFFFFF 
7EAD: FFFFFF 
7EB0: FFFFFF 
7EB3: FFFFFF 
7EB6: FFFFFF 
7EB9: FFFFFF 
7EBC: FFFFFF 
7EBF: FFFFFF 
7EC2: FFFFFF 
7EC5: FFFFFF 
7EC8: FFFFFF 
7ECB: FFFFFF 
7ECE: FFFFFF 
7ED1: FFFFFF 
7ED4: FFFFFF 
7ED7: FFFFFF 
7EDA: FFFFFF 
7EDD: FFFFFF 
7EE0: FFFFFF 
7EE3: FFFFFF 
7EE6: FFFFFF 
7EE9: FFFFFF 
7EEC: FFFFFF 
7EEF: FFFFFF 
7EF2: FFFFFF 
7EF5: FFFFFF 
7EF8: FFFFFF 
7EFB: FFFFFF 
7EFE: FFFFFF 
7F01: FFFFFF 
7F04: FFFFFF 
7F07: FFFFFF 
7F0A: FFFFFF 
7F0D: FFFFFF 
7F10: FFFFFF 
7F13: FFFFFF 
7F16: FFFFFF 
7F19: FFFFFF 
7F1C: FFFFFF 
7F1F: FFFFFF 
7F22: FFFFFF 
7F25: FFFFFF 
7F28: FFFFFF 
7F2B: FFFFFF 
7F2E: FFFFFF 
7F31: FFFFFF 
7F34: FFFFFF 
7F37: FFFFFF 
7F3A: FFFFFF 
7F3D: FFFFFF 
7F40: FFFFFF 
7F43: FFFFFF 
7F46: FFFFFF 
7F49: FFFFFF 
7F4C: FFFFFF 
7F4F: FFFFFF 
7F52: FFFFFF 
7F55: FFFFFF 
7F58: FFFFFF 
7F5B: FFFFFF 
7F5E: FFFFFF 
7F61: FFFFFF 
7F64: FFFFFF 
7F67: FFFFFF 
7F6A: FFFFFF 
7F6D: FFFFFF 
7F70: FFFFFF 
7F73: FFFFFF 
7F76: FFFFFF 
7F79: FFFFFF 
7F7C: FFFFFF 
7F7F: FFFFFF 
7F82: FFFFFF 
7F85: FFFFFF 
7F88: FFFFFF 
7F8B: FFFFFF 
7F8E: FFFFFF 
7F91: FFFFFF 
7F94: FFFFFF 
7F97: FFFFFF 
7F9A: FFFFFF 
7F9D: FFFFFF 
7FA0: FFFFFF 
7FA3: FFFFFF 
7FA6: FFFFFF 
7FA9: FFFFFF 
7FAC: FFFFFF 
7FAF: FFFFFF 
7FB2: FFFFFF 
7FB5: FFFFFF 
7FB8: FFFFFF 
7FBB: FFFFFF 
7FBE: FFFFFF 
7FC1: FFFFFF 
7FC4: FFFFFF 
7FC7: FFFFFF 
7FCA: FFFFFF 
7FCD: FFFFFF 
7FD0: FFFFFF 
7FD3: FFFFFF 
7FD6: FFFFFF 
7FD9: FFFFFF 
7FDC: FFFFFF 
7FDF: FFFFFF 
7FE2: FFFFFF 
7FE5: FFFFFF 
7FE8: FFFFFF 
7FEB: FFFFFF 
7FEE: FFFFFF 
7FF1: FFFFFF 
7FF4: FFFFFF 
7FF7: FFFFFF 
7FFA: FFFFFF 
7FFD: FFFFFF 
8000: FFFFFF 
8003: FFFFFF 
8006: FFFFFF 
8009: FFFFFF 
800C: FFFFFF 
800F: FFFFFF 
8012: FFFFFF 
8015: FFFFFF 
8018: FFFFFF 
801B: FFFFFF 
801E: FFFFFF 
8021: FFFFFF 
8024: FFFFFF 
8027: FFFFFF 
802A: FFFFFF 
802D: FFFFFF 
8030: FFFFFF 
8033: FFFFFF 
8036: FFFFFF 
8039: FFFFFF 
803C: FFFFFF 
803F: FFFFFF 
8042: FFFFFF 
8045: FFFFFF 
8048: FFFFFF 
804B: FFFFFF 
804E: FFFFFF 
8051: FFFFFF 
8054: FFFFFF 
8057: FFFFFF 
805A: FFFFFF 
805D: FFFFFF 
8060: FFFFFF 
8063: FFFFFF 
8066: FFFFFF 
8069: FFFFFF 
806C: FFFFFF 
806F: FFFFFF 
8072: FFFFFF 
8075: FFFFFF 
8078: FFFFFF 
807B: FFFFFF 
807E: FFFFFF 
8081: FFFFFF 
8084: FFFFFF 
8087: FFFFFF 
808A: FFFFFF 
808D: FFFFFF 
8090: FFFFFF 
8093: FFFFFF 
8096: FFFFFF 
8099: FFFFFF 
809C: FFFFFF 
809F: FFFFFF 
80A2: FFFFFF 
80A5: FFFFFF 
80A8: FFFFFF 
80AB: FFFFFF 
80AE: FFFFFF 
80B1: FFFFFF 
80B4: FFFFFF 
80B7: FFFFFF 
80BA: FFFFFF 
80BD: FFFFFF 
80C0: FFFFFF 
80C3: FFFFFF 
80C6: FFFFFF 
80C9: FFFFFF 
80CC: FFFFFF 
80CF: FFFFFF 
80D2: FFFFFF 
80D5: FFFFFF 
80D8: FFFFFF 
80DB: FFFFFF 
80DE: FFFFFF 
80E1: FFFFFF 
80E4: FFFFFF 
80E7: FFFFFF 
80EA: FFFFFF 
80ED: FFFFFF 
80F0: FFFFFF 
80F3: FFFFFF 
80F6: FFFFFF 
80F9: FFFFFF 
80FC: FFFFFF 
80FF: FFFFFF 
8102: FFFFFF 
8105: FFFFFF 
8108: FFFFFF 
810B: FFFFFF 
810E: FFFFFF 
8111: FFFFFF 
8114: FFFFFF 
8117: FFFFFF 
811A: FFFFFF 
811D: FFFFFF 
8120: FFFFFF 
8123: FFFFFF 
8126: FFFFFF 
8129: FFFFFF 
812C: FFFFFF 
812F: FFFFFF 
8132: FFFFFF 
8135: FFFFFF 
8138: FFFFFF 
813B: FFFFFF 
813E: FFFFFF 
8141: FFFFFF 
8144: FFFFFF 
8147: FFFFFF 
814A: FFFFFF 
814D: FFFFFF 
8150: FFFFFF 
8153: FFFFFF 
8156: FFFFFF 
8159: FFFFFF 
815C: FFFFFF 
815F: FFFFFF 
8162: FFFFFF 
8165: FFFFFF 
8168: FFFFFF 
816B: FFFFFF 
816E: FFFFFF 
8171: FFFFFF 
8174: FFFFFF 
8177: FFFFFF 
817A: FFFFFF 
817D: FFFFFF 
8180: FFFFFF 
8183: FFFFFF 
8186: FFFFFF 
8189: FFFFFF 
818C: FFFFFF 
818F: FFFFFF 
8192: FFFFFF 
8195: FFFFFF 
8198: FFFFFF 
819B: FFFFFF 
819E: FFFFFF 
81A1: FFFFFF 
81A4: FFFFFF 
81A7: FFFFFF 
81AA: FFFFFF 
81AD: FFFFFF 
81B0: FFFFFF 
81B3: FFFFFF 
81B6: FFFFFF 
81B9: FFFFFF 
81BC: FFFFFF 
81BF: FFFFFF 
81C2: FFFFFF 
81C5: FFFFFF 
81C8: FFFFFF 
81CB: FFFFFF 
81CE: FFFFFF 
81D1: FFFFFF 
81D4: FFFFFF 
81D7: FFFFFF 
81DA: FFFFFF 
81DD: FFFFFF 
81E0: FFFFFF 
81E3: FFFFFF 
81E6: FFFFFF 
81E9: FFFFFF 
81EC: FFFFFF 
81EF: FFFFFF 
81F2: FFFFFF 
81F5: FFFFFF 
81F8: FFFFFF 
81FB: FFFFFF 
81FE: FFFFFF 
8201: FFFFFF 
8204: FFFFFF 
8207: FFFFFF 
820A: FFFFFF 
820D: FFFFFF 
8210: FFFFFF 
8213: FFFFFF 
8216: FFFFFF 
8219: FFFFFF 
821C: FFFFFF 
821F: FFFFFF 
8222: FFFFFF 
8225: FFFFFF 
8228: FFFFFF 
822B: FFFFFF 
822E: FFFFFF 
8231: FFFFFF 
8234: FFFFFF 
8237: FFFFFF 
823A: FFFFFF 
823D: FFFFFF 
8240: FFFFFF 
8243: FFFFFF 
8246: FFFFFF 
8249: FFFFFF 
824C: FFFFFF 
824F: FFFFFF 
8252: FFFFFF 
8255: FFFFFF 
8258: FFFFFF 
825B: FFFFFF 
825E: FFFFFF 
8261: FFFFFF 
8264: FFFFFF 
8267: FFFFFF 
826A: FFFFFF 
826D: FFFFFF 
8270: FFFFFF 
8273: FFFFFF 
8276: FFFFFF 
8279: FFFFFF 
827C: FFFFFF 
827F: FFFFFF 
8282: FFFFFF 
8285: FFFFFF 
8288: FFFFFF 
828B: FFFFFF 
828E: FFFFFF 
8291: FFFFFF 
8294: FFFFFF 
8297: FFFFFF 
829A: FFFFFF 
829D: FFFFFF 
82A0: FFFFFF 
82A3: FFFFFF 
82A6: FFFFFF 
82A9: FFFFFF 
82AC: FFFFFF 
82AF: FFFFFF 
82B2: FFFFFF 
82B5: FFFFFF 
82B8: FFFFFF 
82BB: FFFFFF 
82BE: FFFFFF 
82C1: FFFFFF 
82C4: FFFFFF 
82C7: FFFFFF 
82CA: FFFFFF 
82CD: FFFFFF 
82D0: FFFFFF 
82D3: FFFFFF 
82D6: FFFFFF 
82D9: FFFFFF 
82DC: FFFFFF 
82DF: FFFFFF 
82E2: FFFFFF 
82E5: FFFFFF 
82E8: FFFFFF 
82EB: FFFFFF 
82EE: FFFFFF 
82F1: FFFFFF 
82F4: FFFFFF 
82F7: FFFFFF 
82FA: FFFFFF 
82FD: FF2233 
8300: A901   LDAim 01
8302: 8DF8FF STA FFF8 bios.flag EPROM lo
8305: 8DFAFF STA FFFA bios.flag EPROM hi/NMIadr
8308: A900   LDAim 00
830A: A209   LDXim 09
830C: 85CC   STAz CC bs.Transfer3.bisL
830E: 86CD   STXz CD bs.Transfer3.bisH
8310: A240   LDXim 40
8312: 205083 JSR 8350
8315: A900   LDAim 00
8317: A21D   LDXim 1D
8319: 85CC   STAz CC bs.Transfer3.bisL
831B: 86CD   STXz CD bs.Transfer3.bisH
831D: A283   LDXim 83
831F: 205083 JSR 8350
8322: A9F0   LDAim F0
8324: A241   LDXim 41
8326: 85CC   STAz CC bs.Transfer3.bisL
8328: 86CD   STXz CD bs.Transfer3.bisH
832A: A900   LDAim 00
832C: A2BE   LDXim BE
832E: 205083 JSR 8350
8331: A900   LDAim 00
8333: 8DF9FF STA FFF9 bios.flag EPROM med
8336: 8DFAFF STA FFFA bios.flag EPROM hi/NMIadr
8339: 20D038 JSR 38D0 rkv.initBs
833C: 208B24 JSR 248B hexedit.openInHexKb
833F: 4CF3D3 JMP D3F3
8342: FFFFFF 
8345: FFFFFF 
8348: FFFFFF 
834B: FFFFFF 
834E: 22     
834F: 33     
8350: 85CA   STAz CA bs.Transfer3.vonL
8352: 86CB   STXz CB bs.Transfer3.vonH
8354: 85CE   STAz CE bs.Transfer3.nachL
8356: 86CF   STXz CF bs.Transfer3.nachH
8358: 20A0E4 JSR E4A0
835B: 60     RTS
835C: FFFFFF 
835F: FFFFFF 
8362: FFFFFF 
8365: FFFFFF 
8368: FFFFFF 
836B: FFFFFF 
836E: FFFFFF 
8371: FFFFFF 
8374: FFFFFF 
8377: FFFFFF 
837A: FFFFFF 
837D: FFFFFF 
8380: FFFFFF 
8383: FFFFFF 
8386: FFFFFF 
8389: FFFFFF 
838C: FFFFFF 
838F: FFFFFF 
8392: FFFFFF 
8395: FFFFFF 
8398: FFFFFF 
839B: FFFFFF 
839E: FFFFFF 
83A1: FFFFFF 
83A4: FFFFFF 
83A7: FFFFFF 
83AA: FFFFFF 
83AD: FFFFFF 
83B0: FFFFFF 
83B3: FFFFFF 
83B6: FFFFFF 
83B9: FFFFFF 
83BC: FFFFFF 
83BF: FFFFFF 
83C2: FFFFFF 
83C5: FFFFFF 
83C8: FFFFFF 
83CB: FFFFFF 
83CE: FFFFFF 
83D1: FFFFFF 
83D4: FFFFFF 
83D7: FFFFFF 
83DA: FFFFFF 
83DD: FFFFFF 
83E0: FFFFFF 
83E3: FFFFFF 
83E6: FFFFFF 
83E9: FFFFFF 
83EC: FFFFFF 
83EF: FFFFFF 
83F2: FFFFFF 
83F5: FFFFFF 
83F8: FFFFFF 
83FB: FFFFFF 
83FE: FFFFFF 
8401: FFFFFF 
8404: FFFFFF 
8407: FFFFFF 
840A: FFFFFF 
840D: FFFFFF 
8410: FFFFFF 
8413: FFFFFF 
8416: FFFFFF 
8419: FFFFFF 
841C: FFFF22 
841F: 33     
8420: 2011DB JSR DB11
8423: A914   LDAim 14
8425: 206091 JSR 9160
8428: A900   LDAim 00
842A: 8550   STAz 50
842C: 209A84 JSR 849A
842F: A550   LDAz 50
8431: F006   BEQ +6>39
8433: 20E4D9 JSR D9E4
8436: 02     
8437: 00     BRK
8438: EA     NOP
8439: 60     RTS
843A: FFFFFF 
843D: FF2233 
8440: 203088 JSR 8830
8443: 86D0   STXz D0
8445: 60     RTS
8446: 00     BRK
8447: 203088 JSR 8830
844A: 86DA   STXz DA
844C: E4D0   CPXz D0
844E: 9001   BCC +1>51
8450: 60     RTS
8451: EA     NOP
8452: EA     NOP
8453: 207CDB JSR DB7C
8456: 0122   ORAix 22
8458: 33     
8459: A541   LDAz 41 hexedit.da.nr
845B: 858B   STAz 8B bs.RXSave
845D: A542   LDAz 42 hexedit.da.laenge
845F: 858C   STAz 8C bs.RYSave
8461: A000   LDYim 00
8463: B141   LDAiy 41 hexedit.da.nr
8465: D001   BNE +1>68
8467: 60     RTS
8468: 207CDB JSR DB7C
846B: 07     
846C: FF2233 
846F: A5D0   LDAz D0
8471: EA     NOP
8472: 8543   STAz 43 hexedit.da.fehler
8474: A900   LDAim 00
8476: 8544   STAz 44 hexedit.da.opcode
8478: 60     RTS
8479: 33     
847A: 203988 JSR 8839
847D: 86D6   STXz D6
847F: 85D7   STAz D7
8481: 60     RTS
8482: 22     
8483: 33     
8484: 203988 JSR 8839
8487: 86D8   STXz D8
8489: 85D9   STAz D9
848B: E4D6   CPXz D6
848D: E5D7   SBCz D7
848F: 9001   BCC +1>92
8491: 60     RTS
8492: 207CDB JSR DB7C
8495: 03     
8496: FFFF22 
8499: 33     
849A: A5C1   LDAz C1
849C: A6C2   LDXz C2
849E: 8554   STAz 54
84A0: 8655   STXz 55 hexedit.helpL
84A2: A554   LDAz 54
84A4: C545   CMPz 45 hexedit.da.erstes
84A6: A555   LDAz 55 hexedit.helpL
84A8: E546   SBCz 46 hexedit.da.zweites
84AA: 9001   BCC +1>AD
84AC: 60     RTS
84AD: EA     NOP
84AE: A000   LDYim 00
84B0: B154   LDAiy 54
84B2: C903   CMPim 03
84B4: 9011   BCC +17>C7
84B6: 20CD9C JSR 9CCD
84B9: A554   LDAz 54
84BB: 18     CLC
84BC: 690E   ADCim 0E
84BE: 8554   STAz 54
84C0: 9002   BCC +2>C4
84C2: E655   INCz 55 hexedit.helpL
84C4: 4CA284 JMP 84A2
84C7: 207CDB JSR DB7C
84CA: 04     
84CB: 22     
84CC: 33     
84CD: A5C1   LDAz C1
84CF: A6C2   LDXz C2
84D1: 8554   STAz 54
84D3: 8655   STXz 55 hexedit.helpL
84D5: EA     NOP
84D6: EA     NOP
84D7: A554   LDAz 54
84D9: C545   CMPz 45 hexedit.da.erstes
84DB: A555   LDAz 55 hexedit.helpL
84DD: E546   SBCz 46 hexedit.da.zweites
84DF: B01D   BCS +29>FE
84E1: EA     NOP
84E2: A000   LDYim 00
84E4: B154   LDAiy 54
84E6: C908   CMPim 08
84E8: 900E   BCC +14>F8
84EA: A554   LDAz 54
84EC: 18     CLC
84ED: 690E   ADCim 0E
84EF: 8554   STAz 54
84F1: 9002   BCC +2>F5
84F3: E655   INCz 55 hexedit.helpL
84F5: 4CD784 JMP 84D7
84F8: 207CDB JSR DB7C
84FB: 05EA   ORAz EA
84FD: 60     RTS
84FE: 20E4D9 JSR D9E4
8501: 03     
8502: 4C1D1C JMP 1C1D monitor.RESET
8505: 20C291 JSR 91C2
8508: 60     RTS
8509: FFFFFF 
850C: 00     BRK
850D: 00     BRK
850E: A590   LDAz 90 bs.grenzPrio
8510: D004   BNE +4>16
8512: A58F   LDAz 8F bs.aktTask
8514: F004   BEQ +4>1A
8516: 207CDB JSR DB7C
8519: 00     BRK
851A: A902   LDAim 02
851C: A000   LDYim 00
851E: 918B   STAiy 8B bs.RXSave
8520: C8     INY
8521: A58D   LDAz 8D bs.SPSave
8523: 918B   STAiy 8B bs.RXSave
8525: C8     INY
8526: A58E   LDAz 8E bs.maxTask
8528: 918B   STAiy 8B bs.RXSave
852A: 60     RTS
852B: A000   LDYim 00
852D: B141   LDAiy 41 hexedit.da.nr
852F: F004   BEQ +4>35
8531: 207CDB JSR DB7C
8534: 07     
8535: A901   LDAim 01
8537: 9141   STAiy 41 hexedit.da.nr
8539: 60     RTS
853A: A55A   LDAz 5A bs.neueZeitL
853C: 38     SEC
853D: E94A   SBCim 4A
853F: 0980   ORAim 80
8541: 85A0   STAz A0 serial.CurrentL
8543: A900   LDAim 00
8545: A207   LDXim 07
8547: 95A3   STAzx A3
8549: CA     DEX
854A: 10FB   BPL -5>47
854C: E6A5   INCz A5
854E: E6A9   INCz A9
8550: 60     RTS
8551: FFFFFF 
8554: FF0000 
8557: A5A0   LDAz A0 serial.CurrentL
8559: 2930   ANDim 30
855B: D00D   BNE +13>6A
855D: 851F   STAz 1F
855F: 8515   STAz 15
8561: A901   LDAim 01
8563: 851E   STAz 1E
8565: 8514   STAz 14
8567: 4CA385 JMP 85A3
856A: A5A5   LDAz A5
856C: 851E   STAz 1E
856E: A5A6   LDAz A6
8570: 851F   STAz 1F
8572: A5A0   LDAz A0 serial.CurrentL
8574: 2907   ANDim 07
8576: C907   CMPim 07
8578: D003   BNE +3>7D
857A: 2090E2 JSR E290
857D: A51E   LDAz 1E
857F: 8514   STAz 14
8581: A51F   LDAz 1F
8583: 8515   STAz 15
8585: A5A0   LDAz A0 serial.CurrentL
8587: 2906   ANDim 06
8589: C906   CMPim 06
858B: D00B   BNE +11>98
858D: A514   LDAz 14
858F: 18     CLC
8590: 6902   ADCim 02
8592: 8514   STAz 14
8594: 9002   BCC +2>98
8596: E615   INCz 15
8598: A5A0   LDAz A0 serial.CurrentL
859A: 2930   ANDim 30
859C: C930   CMPim 30
859E: D003   BNE +3>A3
85A0: 20C685 JSR 85C6
85A3: A5A0   LDAz A0 serial.CurrentL
85A5: 2906   ANDim 06
85A7: C902   CMPim 02
85A9: F00D   BEQ +13>B8
85AB: C904   CMPim 04
85AD: F001   BEQ +1>B0
85AF: 60     RTS
85B0: 061E   ASLz 1E
85B2: 261F   ROLz 1F
85B4: 0614   ASLz 14
85B6: 2615   ROLz 15
85B8: 061E   ASLz 1E
85BA: 261F   ROLz 1F
85BC: 0614   ASLz 14
85BE: 2615   ROLz 15
85C0: 60     RTS
85C1: FFFFFF 
85C4: 00     BRK
85C5: 00     BRK
85C6: A5A9   LDAz A9
85C8: 8518   STAz 18
85CA: A5AA   LDAz AA
85CC: 8519   STAz 19
85CE: A900   LDAim 00
85D0: 851A   STAz 1A
85D2: 851B   STAz 1B
85D4: A51E   LDAz 1E
85D6: 8514   STAz 14
85D8: A51F   LDAz 1F
85DA: 8515   STAz 15
85DC: 208BE3 JSR E38B
85DF: A517   LDAz 17
85E1: D004   BNE +4>E7
85E3: A516   LDAz 16
85E5: F004   BEQ +4>EB
85E7: 207CDB JSR DB7C
85EA: 08     PHP
85EB: A514   LDAz 14
85ED: 851E   STAz 1E
85EF: A515   LDAz 15
85F1: 851F   STAz 1F
85F3: A5A0   LDAz A0 serial.CurrentL
85F5: 2906   ANDim 06
85F7: C906   CMPim 06
85F9: D012   BNE +18>0D
85FB: 206CE3 JSR E36C
85FE: 206CE3 JSR E36C
8601: A517   LDAz 17
8603: D004   BNE +4>09
8605: A516   LDAz 16
8607: F004   BEQ +4>0D
8609: 207CDB JSR DB7C
860C: 08     PHP
860D: 60     RTS
860E: FFFFFF 
8611: FFFFFF 
8614: FF0000 
8617: A000   LDYim 00
8619: B141   LDAiy 41 hexedit.da.nr
861B: D02C   BNE +44>49
861D: A51F   LDAz 1F
861F: 1005   BPL +5>26
8621: 207CDB JSR DB7C
8624: 09EA   ORAim EA
8626: A51C   LDAz 1C
8628: C8     INY
8629: 9141   STAiy 41 hexedit.da.nr
862B: A51D   LDAz 1D
862D: C8     INY
862E: 9141   STAiy 41 hexedit.da.nr
8630: A51C   LDAz 1C
8632: 18     CLC
8633: 6514   ADCz 14
8635: 851C   STAz 1C
8637: A51D   LDAz 1D
8639: 6515   ADCz 15
863B: 851D   STAz 1D
863D: B005   BCS +5>44
863F: C5D5   CMPz D5
8641: EA     NOP
8642: 9004   BCC +4>48
8644: 207CDB JSR DB7C
8647: 0A     ASLa
8648: 60     RTS
8649: C901   CMPim 01
864B: D02A   BNE +42>77
864D: A51F   LDAz 1F
864F: D004   BNE +4>55
8651: A51E   LDAz 1E
8653: 1005   BPL +5>5A
8655: 207CDB JSR DB7C
8658: 09EA   ORAim EA
865A: A543   LDAz 43 hexedit.da.fehler
865C: C8     INY
865D: 9141   STAiy 41 hexedit.da.nr
865F: A900   LDAim 00
8661: C8     INY
8662: 9141   STAiy 41 hexedit.da.nr
8664: A543   LDAz 43 hexedit.da.fehler
8666: 18     CLC
8667: 6514   ADCz 14
8669: 8543   STAz 43 hexedit.da.fehler
866B: B005   BCS +5>72
866D: C5DA   CMPz DA
866F: EA     NOP
8670: 9004   BCC +4>76
8672: 207CDB JSR DB7C
8675: 0B     
8676: 60     RTS
8677: A002   LDYim 02
8679: B141   LDAiy 41 hexedit.da.nr
867B: D011   BNE +17>8E
867D: A51F   LDAz 1F
867F: D0D6   BNE -42>57
8681: A51E   LDAz 1E
8683: 30D0   BMI -48>55
8685: 18     CLC
8686: 88     DEY
8687: B141   LDAiy 41 hexedit.da.nr
8689: 6514   ADCz 14
868B: B0E5   BCS -27>72
868D: 60     RTS
868E: A51F   LDAz 1F
8690: 30C5   BMI -59>57
8692: 18     CLC
8693: 88     DEY
8694: B141   LDAiy 41 hexedit.da.nr
8696: 6514   ADCz 14
8698: C8     INY
8699: B141   LDAiy 41 hexedit.da.nr
869B: 6515   ADCz 15
869D: B0A5   BCS -91>44
869F: 60     RTS
86A0: FFFFFF 
86A3: 00     BRK
86A4: 00     BRK
86A5: A000   LDYim 00
86A7: B141   LDAiy 41 hexedit.da.nr
86A9: C903   CMPim 03
86AB: 9004   BCC +4>B1
86AD: 207CDB JSR DB7C
86B0: 07     
86B1: 205785 JSR 8557
86B4: 201786 JSR 8617
86B7: A00A   LDYim 0A
86B9: A207   LDXim 07
86BB: B5A3   LDAzx A3
86BD: 9141   STAiy 41 hexedit.da.nr
86BF: 88     DEY
86C0: CA     DEX
86C1: 10F8   BPL -8>BB
86C3: A5A0   LDAz A0 serial.CurrentL
86C5: A000   LDYim 00
86C7: 9141   STAiy 41 hexedit.da.nr
86C9: 60     RTS
86CA: FFFFFF 
86CD: FF0000 
86D0: A5A0   LDAz A0 serial.CurrentL
86D2: 0920   ORAim 20
86D4: 85A0   STAz A0 serial.CurrentL
86D6: A58A   LDAz 8A bs.ACSave
86D8: 2907   ANDim 07
86DA: C903   CMPim 03
86DC: 9006   BCC +6>E4
86DE: 207CDB JSR DB7C
86E1: 0C     
86E2: EA     NOP
86E3: EA     NOP
86E4: A58D   LDAz 8D bs.SPSave
86E6: 85A3   STAz A3
86E8: A58E   LDAz 8E bs.maxTask
86EA: 85A4   STAz A4
86EC: 60     RTS
86ED: A58A   LDAz 8A bs.ACSave
86EF: 2907   ANDim 07
86F1: C903   CMPim 03
86F3: 9006   BCC +6>FB
86F5: 207CDB JSR DB7C
86F8: 0C     
86F9: EA     NOP
86FA: EA     NOP
86FB: 38     SEC
86FC: A58D   LDAz 8D bs.SPSave
86FE: E5A3   SBCz A3
8700: 85A5   STAz A5
8702: A58E   LDAz 8E bs.maxTask
8704: E5A4   SBCz A4
8706: 85A6   STAz A6
8708: 90EB   BCC -21>F5
870A: E6A5   INCz A5
870C: D004   BNE +4>12
870E: E6A6   INCz A6
8710: F0E3   BEQ -29>F5
8712: 60     RTS
8713: FF0000 
8716: A203   LDXim 03
8718: B5A3   LDAzx A3
871A: 95A7   STAzx A7
871C: CA     DEX
871D: 10F9   BPL -7>18
871F: A5A0   LDAz A0 serial.CurrentL
8721: 0930   ORAim 30
8723: 85A0   STAz A0 serial.CurrentL
8725: D0A9   BNE -87>D0
8727: 00     BRK
8728: 00     BRK
8729: A000   LDYim 00
872B: B120   LDAiy 20
872D: 858A   STAz 8A bs.ACSave
872F: A006   LDYim 06
8731: A203   LDXim 03
8733: B120   LDAiy 20
8735: 958D   STAzx 8D bs.SPSave
8737: 88     DEY
8738: CA     DEX
8739: 10F8   BPL -8>33
873B: 60     RTS
873C: FF0000 
873F: A244   LDXim 44
8741: A590   LDAz 90 bs.grenzPrio
8743: 1004   BPL +4>49
8745: 207CDB JSR DB7C
8748: 0D058F ORA 8F05
874B: D00F   BNE +15>5C
874D: CA     DEX
874E: A58E   LDAz 8E bs.maxTask
8750: 300A   BMI +10>5C
8752: D007   BNE +7>5B
8754: EA     NOP
8755: CA     DEX
8756: CA     DEX
8757: A58D   LDAz 8D bs.SPSave
8759: 3001   BMI +1>5C
875B: CA     DEX
875C: 868A   STXz 8A bs.ACSave
875E: 60     RTS
875F: A244   LDXim 44
8761: A490   LDYz 90 bs.grenzPrio
8763: C8     INY
8764: D014   BNE +20>7A
8766: A48F   LDYz 8F bs.aktTask
8768: C8     INY
8769: D00F   BNE +15>7A
876B: A48E   LDYz 8E bs.maxTask
876D: 100B   BPL +11>7A
876F: A242   LDXim 42
8771: C8     INY
8772: D006   BNE +6>7A
8774: A48D   LDYz 8D bs.SPSave
8776: 1002   BPL +2>7A
8778: A240   LDXim 40
877A: 868A   STXz 8A bs.ACSave
877C: 60     RTS
877D: FFFFFF 
8780: FF0000 
8783: A000   LDYim 00
8785: B120   LDAiy 20
8787: 3011   BMI +17>9A
8789: A940   LDAim 40
878B: 858A   STAz 8A bs.ACSave
878D: 848E   STYz 8E bs.maxTask
878F: 848F   STYz 8F bs.aktTask
8791: 8490   STYz 90 bs.grenzPrio
8793: A003   LDYim 03
8795: B120   LDAiy 20
8797: 858D   STAz 8D bs.SPSave
8799: 60     RTS
879A: A006   LDYim 06
879C: B120   LDAiy 20
879E: D009   BNE +9>A9
87A0: 88     DEY
87A1: B120   LDAiy 20
87A3: F004   BEQ +4>A9
87A5: C921   CMPim 21
87A7: 9004   BCC +4>AD
87A9: 207CDB JSR DB7C
87AC: 0DEAEA ORA EAEA
87AF: 48     PHA
87B0: A001   LDYim 01
87B2: B120   LDAiy 20
87B4: AA     TAX
87B5: C8     INY
87B6: B120   LDAiy 20
87B8: 8521   STAz 21
87BA: 8620   STXz 20
87BC: 68     PLA
87BD: 38     SEC
87BE: E901   SBCim 01
87C0: 4A     LSRa
87C1: 4A     LSRa
87C2: 4A     LSRa
87C3: AA     TAX
87C4: A8     TAY
87C5: C8     INY
87C6: C8     INY
87C7: EA     NOP
87C8: 48     PHA
87C9: B120   LDAiy 20
87CB: 958D   STAzx 8D bs.SPSave
87CD: 88     DEY
87CE: CA     DEX
87CF: 10F8   BPL -8>C9
87D1: 68     PLA
87D2: AA     TAX
87D3: E8     INX
87D4: A900   LDAim 00
87D6: E004   CPXim 04
87D8: F005   BEQ +5>DF
87DA: 958D   STAzx 8D bs.SPSave
87DC: E8     INX
87DD: D0F7   BNE -9>D6
87DF: 203F87 JSR 873F
87E2: 60     RTS
87E3: FFFFFF 
87E6: FF0000 
87E9: A003   LDYim 03
87EB: A200   LDXim 00
87ED: 38     SEC
87EE: A900   LDAim 00
87F0: F120   SBCiy 20
87F2: 958D   STAzx 8D bs.SPSave
87F4: C8     INY
87F5: E8     INX
87F6: E004   CPXim 04
87F8: D0F4   BNE -12>EE
87FA: 205F87 JSR 875F
87FD: 60     RTS
87FE: 00     BRK
87FF: 00     BRK
8800: 206624 JSR 2466 hexedit.openOutVideo
8803: 2074CD JSR CD74
8806: 20BED0 JSR D0BE
8809: 4C1D1C JMP 1C1D monitor.RESET
880C: FF0000 
880F: A000   LDYim 00
8811: B120   LDAiy 20
8813: 300A   BMI +10>1F
8815: A003   LDYim 03
8817: B120   LDAiy 20
8819: AA     TAX
881A: 68     PLA
881B: 68     PLA
881C: A900   LDAim 00
881E: 60     RTS
881F: A006   LDYim 06
8821: B120   LDAiy 20
8823: D006   BNE +6>2B
8825: 88     DEY
8826: B120   LDAiy 20
8828: F001   BEQ +1>2B
882A: 60     RTS
882B: 207CDB JSR DB7C
882E: 00     BRK
882F: 00     BRK
8830: 200F88 JSR 880F
8833: C909   CMPim 09
8835: 900D   BCC +13>44
8837: B007   BCS +7>40
8839: 200F88 JSR 880F
883C: C911   CMPim 11
883E: 9004   BCC +4>44
8840: 207CDB JSR DB7C
8843: 00     BRK
8844: A001   LDYim 01
8846: B120   LDAiy 20
8848: AA     TAX
8849: C8     INY
884A: B120   LDAiy 20
884C: 8521   STAz 21
884E: 8620   STXz 20
8850: B120   LDAiy 20
8852: AA     TAX
8853: A000   LDYim 00
8855: B120   LDAiy 20
8857: C909   CMPim 09
8859: B003   BCS +3>5E
885B: A900   LDAim 00
885D: 60     RTS
885E: A003   LDYim 03
8860: B120   LDAiy 20
8862: 60     RTS
8863: FFFFFF 
8866: FFFFFF 
8869: FFFFFF 
886C: 00     BRK
886D: 00     BRK
886E: 03     
886F: 2002E0 JSR E002
8872: 00     BRK
8873: 08     PHP
8874: 2041E0 JSR E041
8877: 00     BRK
8878: 03     
8879: 2041E0 JSR E041
887C: 00     BRK
887D: 01A9   ORAix A9
887F: 80     
8880: 8D0001 STA 0100
8883: A980   LDAim 80
8885: 8D0385 STA 8503
8888: 14     
8889: A980   LDAim 80
888B: 8E0000 STX 0000
888E: FFFFFF 
8891: FFFFFF 
8894: FFFFFF 
8897: FFFFFF 
889A: FFFFFF 
889D: FFFFFF 
88A0: FFFFFF 
88A3: FFFF22 
88A6: 33     
88A7: 01A5   ORAix A5
88A9: 80     
88AA: 8B     
88AB: 00     BRK
88AC: 01AD   ORAix AD
88AE: 82     
88AF: 8B     
88B0: 00     BRK
88B1: 01A5   ORAix A5
88B3: 80     
88B4: 8B     
88B5: 03     
88B6: 8514   STAz 14
88B8: A581   LDAz 81 bs.KPUe.savePCH
88BA: BB     
88BB: 00     BRK
88BC: 01AD   ORAix AD
88BE: 82     
88BF: 8B     
88C0: 03     
88C1: 8514   STAz 14
88C3: AD838B LDA 8B83
88C6: 00     BRK
88C7: 03     
88C8: A203   LDXim 03
88CA: B580   LDAzx 80 bs.KPUe.savePCL
88CC: 8B     
88CD: 0595   ORAz 95 hexedit.Prosa
88CF: 14     
88D0: CA     DEX
88D1: 10F9   BPL -7>CC
88D3: 00     BRK
88D4: 03     
88D5: A203   LDXim 03
88D7: BD828B LDAx 8B82
88DA: 0595   ORAz 95 hexedit.Prosa
88DC: 14     
88DD: CA     DEX
88DE: 10F8   BPL -8>D8
88E0: 00     BRK
88E1: 04     
88E2: A000   LDYim 00
88E4: B154   LDAiy 54
88E6: 00     BRK
88E7: 03     
88E8: 209AE0 JSR E09A
88EB: 00     BRK
88EC: 03     
88ED: 2084E0 JSR E084
88F0: 00     BRK
88F1: 01A9   ORAix A9
88F3: 80     
88F4: 8D0385 STA 8503
88F7: 14     
88F8: A980   LDAim 80
88FA: 8E0385 STX 8503
88FD: 15A9   ORAzx A9
88FF: 80     
8900: 8F     
8901: 03     
8902: 8516   STAz 16
8904: A980   LDAim 80
8906: 9002   BCC +2>0A
8908: 8517   STAz 17
890A: 00     BRK
890B: FFFFFF 
890E: FFFFFF 
8911: FFFFFF 
8914: FFFFFF 
8917: FFFFFF 
891A: FFFFFF 
891D: FFFFFF 
8920: FFFFFF 
8923: FFFFFF 
8926: FFFFFF 
8929: FFFFFF 
892C: FFFFFF 
892F: FFFFFF 
8932: 00     BRK
8933: 00     BRK
8934: 03     
8935: A000   LDYim 00
8937: B180   LDAiy 80 bs.KPUe.savePCL
8939: 8B     
893A: 00     BRK
893B: 03     
893C: A000   LDYim 00
893E: B180   LDAiy 80 bs.KPUe.savePCL
8940: 8B     
8941: 04     
8942: 8514   STAz 14
8944: C8     INY
8945: B180   LDAiy 80 bs.KPUe.savePCL
8947: 8B     
8948: 00     BRK
8949: 03     
894A: A003   LDYim 03
894C: B180   LDAiy 80 bs.KPUe.savePCL
894E: 8B     
894F: 0699   ASLz 99 hexedit.video2
8951: 14     
8952: 00     BRK
8953: 88     DEY
8954: 10F7   BPL -9>4D
8956: 00     BRK
8957: FFFFFF 
895A: FFFFFF 
895D: FFFFFF 
8960: FFFFFF 
8963: FFFFFF 
8966: FFFFFF 
8969: FFFFFF 
896C: FFFFFF 
896F: FFFFFF 
8972: FFFFFF 
8975: FFFFFF 
8978: FFFFFF 
897B: FFFFFF 
897E: FFFFFF 
8981: FFFFFF 
8984: FFFFFF 
8987: FFFFFF 
898A: FFFFFF 
898D: FFFFFF 
8990: FFFFFF 
8993: FFFFFF 
8996: 00     BRK
8997: 00     BRK
8998: 04     
8999: A002   LDYim 02
899B: B154   LDAiy 54
899D: 00     BRK
899E: 03     
899F: 2074EC JSR EC74
89A2: 00     BRK
89A3: FFFFFF 
89A6: FFFFFF 
89A9: FFFFFF 
89AC: FFFFFF 
89AF: FFFFFF 
89B2: FFFFFF 
89B5: FFFFFF 
89B8: FFFFFF 
89BB: FFFFFF 
89BE: 00     BRK
89BF: 00     BRK
89C0: 20C0DA JSR DAC0
89C3: 6E88EA ROR EA88
89C6: 60     RTS
89C7: 20C0DA JSR DAC0
89CA: 73     
89CB: 88     DEY
89CC: 60     RTS
89CD: 20C0DA JSR DAC0
89D0: 78     SEI
89D1: 88     DEY
89D2: 60     RTS
89D3: 20C0DA JSR DAC0
89D6: 7D88EA ADCx EA88
89D9: 60     RTS
89DA: 20C0DA JSR DAC0
89DD: 82     
89DE: 88     DEY
89DF: 60     RTS
89E0: 20C0DA JSR DAC0
89E3: F188   SBCiy 88
89E5: EA     NOP
89E6: 60     RTS
89E7: 207CDB JSR DB7C
89EA: 06A5   ASLz A5
89EC: 8CD006 STY 06D0
89EF: 20C0DA JSR DAC0
89F2: A7     
89F3: 88     DEY
89F4: 60     RTS
89F5: 20C0DA JSR DAC0
89F8: AC88EA LDY EA88
89FB: 60     RTS
89FC: A58C   LDAz 8C bs.RYSave
89FE: D006   BNE +6>06
8A00: 20C0DA JSR DAC0
8A03: B188   LDAiy 88
8A05: 60     RTS
8A06: 20C0DA JSR DAC0
8A09: BC88EA LDYx EA88
8A0C: 60     RTS
8A0D: A58C   LDAz 8C bs.RYSave
8A0F: D006   BNE +6>17
8A11: 20C0DA JSR DAC0
8A14: C7     
8A15: 88     DEY
8A16: 60     RTS
8A17: 20C0DA JSR DAC0
8A1A: D4     
8A1B: 88     DEY
8A1C: 60     RTS
8A1D: FFFFFF 
8A20: FFFFFF 
8A23: FFFFFF 
8A26: FFFFFF 
8A29: FFFFFF 
8A2C: FFFFFF 
8A2F: FFFFFF 
8A32: FFFFFF 
8A35: FFFFFF 
8A38: FFFFFF 
8A3B: 22     
8A3C: 33     
8A3D: A58A   LDAz 8A bs.ACSave
8A3F: 4A     LSRa
8A40: B007   BCS +7>49
8A42: 20C0DA JSR DAC0
8A45: 98     TYA
8A46: 89     
8A47: EA     NOP
8A48: 60     RTS
8A49: 20C0DA JSR DAC0
8A4C: 9E     
8A4D: 89     
8A4E: EA     NOP
8A4F: 60     RTS
8A50: FFFFFF 
8A53: FFFFFF 
8A56: FFFFFF 
8A59: FFFFFF 
8A5C: FFFFFF 
8A5F: FFFFFF 
8A62: FFFFFF 
8A65: FFFFFF 
8A68: FFFFFF 
8A6B: 22     
8A6C: 33     
8A6D: 20C0DA JSR DAC0
8A70: 34     
8A71: 89     
8A72: 60     RTS
8A73: 20C0DA JSR DAC0
8A76: 3B     
8A77: 89     
8A78: 60     RTS
8A79: 20C0DA JSR DAC0
8A7C: 4989   EORim 89
8A7E: 60     RTS
8A7F: 20C0DA JSR DAC0
8A82: E188   SBCix 88
8A84: 60     RTS
8A85: FFFFFF 
8A88: FFFFFF 
8A8B: FFFFFF 
8A8E: 22     
8A8F: 33     
8A90: 20C0DA JSR DAC0
8A93: E7     
8A94: 88     DEY
8A95: 60     RTS
8A96: FFFFFF 
8A99: FFFFFF 
8A9C: FFFFFF 
8A9F: FFFFFF 
8AA2: 22     
8AA3: 33     
8AA4: 20C0DA JSR DAC0
8AA7: EC88EA CPX EA88
8AAA: 60     RTS
8AAB: FFFFFF 
8AAE: FFFFFF 
8AB1: FFFFFF 
8AB4: FFFFFF 
8AB7: FFFFFF 
8ABA: FFFFFF 
8ABD: FFFFFF 
8AC0: FFFFFF 
8AC3: FFFFFF 
8AC6: FFFFFF 
8AC9: FFFFFF 
8ACC: 22     
8ACD: 33     
8ACE: 01A9   ORAix A9
8AD0: 80     
8AD1: 8B     
8AD2: 01A2   ORAix A2 serial.CurrentHiOrLoBits
8AD4: 80     
8AD5: 8C0485 STY 8504
8AD8: 54     
8AD9: 8655   STXz 55 hexedit.helpL
8ADB: 00     BRK
8ADC: 01A5   ORAix A5
8ADE: 80     
8ADF: 8B     
8AE0: 01A6   ORAix A6
8AE2: 818B   STAix 8B bs.RXSave
8AE4: 04     
8AE5: 8554   STAz 54
8AE7: 8655   STXz 55 hexedit.helpL
8AE9: 00     BRK
8AEA: FFFFFF 
8AED: FFFFFF 
8AF0: FFFFFF 
8AF3: FFFFFF 
8AF6: FFFFFF 
8AF9: FFFFFF 
8AFC: FFFFFF 
8AFF: FFFFFF 
8B02: FFFFFF 
8B05: FFFFFF 
8B08: FFFFFF 
8B0B: FFFFFF 
8B0E: FFFFFF 
8B11: FFFFFF 
8B14: FFFFFF 
8B17: FFFFFF 
8B1A: FFFFFF 
8B1D: FFFFFF 
8B20: FFFF22 
8B23: 33     
8B24: A58A   LDAz 8A bs.ACSave
8B26: 0A     ASLa
8B27: 900D   BCC +13>36
8B29: 0A     ASLa
8B2A: B011   BCS +17>3D
8B2C: 0A     ASLa
8B2D: 0A     ASLa
8B2E: 0A     ASLa
8B2F: B006   BCS +6>37
8B31: 204DDA JSR DA4D
8B34: CE8A60 DEC 608A
8B37: 207CDB JSR DB7C
8B3A: 06EA   ASLz EA
8B3C: 60     RTS
8B3D: 0A     ASLa
8B3E: 0A     ASLa
8B3F: 0A     ASLa
8B40: B006   BCS +6>48
8B42: 204DDA JSR DA4D
8B45: DC     
8B46: 8A     TXAa
8B47: EA     NOP
8B48: 60     RTS
8B49: FFFFFF 
8B4C: FFFFFF 
8B4F: FFFFFF 
8B52: FFFFFF 
8B55: FFFFFF 
8B58: FFFFFF 
8B5B: FFFFFF 
8B5E: 22     
8B5F: 33     
8B60: C689   DECz 89
8B62: C689   DECz 89
8B64: C689   DECz 89
8B66: C689   DECz 89
8B68: C089   CPYim 89
8B6A: C7     
8B6B: 89     
8B6C: CD89C0 CMP C089
8B6F: 89     
8B70: D3     
8B71: 89     
8B72: DA     
8B73: 89     
8B74: E089   CPXim 89
8B76: D3     
8B77: 89     
8B78: E7     
8B79: 89     
8B7A: E7     
8B7B: 89     
8B7C: E7     
8B7D: 89     
8B7E: E7     
8B7F: 89     
8B80: EB89   SBCim 89
8B82: FC     
8B83: 89     
8B84: 0D8AEB ORA EB8A
8B87: 89     
8B88: E7     
8B89: 89     
8B8A: E7     
8B8B: 89     
8B8C: E7     
8B8D: 89     
8B8E: E7     
8B8F: 89     
8B90: 6D8A73 ADC 738A
8B93: 8A     TXAa
8B94: 798A6D ADCy 6D8A
8B97: 8A     TXAa
8B98: 7F     
8B99: 8A     TXAa
8B9A: 908A   BCC -118>26
8B9C: A48A   LDYz 8A bs.ACSave
8B9E: 3D8A00 ORAx 008A bs.ACSave
8BA1: 00     BRK
8BA2: 00     BRK
8BA3: A900   LDAim 00
8BA5: A200   LDXim 00
8BA7: 850F   STAz 0F
8BA9: 8610   STXz 10
8BAB: A58A   LDAz 8A bs.ACSave
8BAD: 0A     ASLa
8BAE: 08     PHP
8BAF: 0A     ASLa
8BB0: 08     PHP
8BB1: 0A     ASLa
8BB2: 0A     ASLa
8BB3: 28     PLP
8BB4: 6A     RORa
8BB5: 28     PLP
8BB6: 6A     RORa
8BB7: 6A     RORa
8BB8: 6A     RORa
8BB9: 293E   ANDim 3E
8BBB: AA     TAX
8BBC: BD608B LDAx 8B60
8BBF: 8D001A STA 1A00 bs.help1
8BC2: BD618B LDAx 8B61
8BC5: 8D011A STA 1A01
8BC8: 6C001A JMPi 1A00 bs.help1
8BCB: FFFF00 
8BCE: FFFFFF 
8BD1: FFFFFF 
8BD4: FF2233 
8BD7: A992   LDAim 92
8BD9: A209   LDXim 09
8BDB: D0CA   BNE -54>A7
8BDD: 33     
8BDE: A5A0   LDAz A0 serial.CurrentL
8BE0: 2930   ANDim 30
8BE2: 48     PHA
8BE3: D005   BNE +5>EA
8BE5: A948   LDAim 48
8BE7: 208DD9 JSR D98D
8BEA: 20A38B JSR 8BA3
8BED: 20E4D9 JSR D9E4
8BF0: 02     
8BF1: 8518   STAz 18
8BF3: 68     PLA
8BF4: D005   BNE +5>FB
8BF6: A968   LDAim 68
8BF8: 208DD9 JSR D98D
8BFB: A20A   LDXim 0A
8BFD: B5A0   LDAzx A0 serial.CurrentL
8BFF: 958A   STAzx 8A bs.ACSave
8C01: CA     DEX
8C02: 10F9   BPL -7>FD
8C04: A901   LDAim 01
8C06: D00A   BNE +10>12
8C08: FFFFFF 
8C0B: FFFFFF 
8C0E: 22     
8C0F: 33     
8C10: A900   LDAim 00
8C12: 85AB   STAz AB
8C14: A58A   LDAz 8A bs.ACSave
8C16: 2930   ANDim 30
8C18: D011   BNE +17>2B
8C1A: 20A38B JSR 8BA3
8C1D: A58A   LDAz 8A bs.ACSave
8C1F: 2907   ANDim 07
8C21: A6AB   LDXz AB
8C23: F002   BEQ +2>27
8C25: 0908   ORAim 08
8C27: 2033DA JSR DA33
8C2A: 60     RTS
8C2B: A58A   LDAz 8A bs.ACSave
8C2D: 2936   ANDim 36
8C2F: C926   CMPim 26
8C31: F006   BEQ +6>39
8C33: 207CDB JSR DB7C
8C36: 16EA   ASLzx EA
8C38: 60     RTS
8C39: 20248B JSR 8B24
8C3C: A904   LDAim 04
8C3E: 05AB   ORAz AB
8C40: 0A     ASLa
8C41: AA     TAX
8C42: A58A   LDAz 8A bs.ACSave
8C44: 29C8   ANDim C8
8C46: C908   CMPim 08
8C48: F001   BEQ +1>4B
8C4A: E8     INX
8C4B: A58A   LDAz 8A bs.ACSave
8C4D: 4A     LSRa
8C4E: 8A     TXAa
8C4F: 2A     ROLa
8C50: 2033DA JSR DA33
8C53: 60     RTS
8C54: FFFFFF 
8C57: FFFFFF 
8C5A: FFFFFF 
8C5D: FFFFFF 
8C60: FFFFFF 
8C63: FFFFFF 
8C66: FFFFFF 
8C69: FFFFFF 
8C6C: FFFFFF 
8C6F: FFFFFF 
8C72: FFFFFF 
8C75: FFFFFF 
8C78: FFFFFF 
8C7B: FFFFFF 
8C7E: FFFFFF 
8C81: FFFFFF 
8C84: FFFFFF 
8C87: FFFFFF 
8C8A: FFFFFF 
8C8D: FFFFFF 
8C90: FFFFFF 
8C93: FFFFFF 
8C96: FFFFFF 
8C99: FFFFFF 
8C9C: FFFFFF 
8C9F: FFFFFF 
8CA2: FFFFFF 
8CA5: FFFFFF 
8CA8: FFFFFF 
8CAB: FFFFFF 
8CAE: FFFFFF 
8CB1: FFFFFF 
8CB4: FFFFFF 
8CB7: FFFFFF 
8CBA: FFFFFF 
8CBD: FFFFFF 
8CC0: FFFFFF 
8CC3: FFFFFF 
8CC6: FFFFFF 
8CC9: FFFFFF 
8CCC: FFFFFF 
8CCF: FFFFFF 
8CD2: FFFFFF 
8CD5: FFFFFF 
8CD8: FFFFFF 
8CDB: FFFFFF 
8CDE: FFFFFF 
8CE1: FFFFFF 
8CE4: FFFFFF 
8CE7: FFFFFF 
8CEA: FFFFFF 
8CED: FFFFFF 
8CF0: FFFFFF 
8CF3: FFFFFF 
8CF6: FFFFFF 
8CF9: FFFFFF 
8CFC: FFFF22 
8CFF: 33     
8D00: BF     
8D01: E2     
8D02: C5E2   CMPz E2 editor.BEGADL
8D04: CB     
8D05: E2     
8D06: D1E2   CMPiy E2 editor.BEGADL
8D08: D7     
8D09: E2     
8D0A: 0DE363 ORA 63E3
8D0D: 24E0   BITz E0
8D0F: E2     
8D10: E5E2   SBCz E2 editor.BEGADL
8D12: EBE2   SBCim E2
8D14: F1E2   SBCiy E2 editor.BEGADL
8D16: F7     
8D17: E2     
8D18: FDE20D SBCx 0DE2
8D1B: E3     
8D1C: 11E3   ORAiy E3 editor.BEGADH
8D1E: 03     
8D1F: E3     
8D20: 17     
8D21: E3     
8D22: 23     
8D23: E3     
8D24: 2F     
8D25: E3     
8D26: 35E3   ANDzx E3 editor.BEGADH
8D28: 3B     
8D29: E3     
8D2A: 4A     LSRa
8D2B: E3     
8D2C: 59E362 EORy 62E3
8D2F: E3     
8D30: 5F     
8D31: E65F   INCz 5F bs.breakZeitH
8D33: E65F   INCz 5F bs.breakZeitH
8D35: E65F   INCz 5F bs.breakZeitH
8D37: E65F   INCz 5F bs.breakZeitH
8D39: E60D   INCz 0D
8D3B: E3     
8D3C: B6E6   LDXzy E6 editor.CURADL
8D3E: A0E6   LDYim E6
8D40: 18     CLC
8D41: E7     
8D42: 18     CLC
8D43: E7     
8D44: 18     CLC
8D45: E7     
8D46: 18     CLC
8D47: E7     
8D48: 18     CLC
8D49: E7     
8D4A: 0DE359 ORA 59E3
8D4D: E7     
8D4E: 8CE715 STY 15E7
8D51: EA     NOP
8D52: 1C     
8D53: EA     NOP
8D54: 26EA   ROLz EA
8D56: 23     
8D57: EA     NOP
8D58: 29EA   ANDim EA
8D5A: 0DE30D ORA 0DE3
8D5D: E3     
8D5E: 0DE3E3 ORA E3E3
8D61: EBE3   SBCim E3
8D63: EBF5   SBCim F5
8D65: EBF5   SBCim F5
8D67: EB09   SBCim 09
8D69: EC0DE3 CPX E30D
8D6C: 33     
8D6D: EC57EC CPX EC57
8D70: FEE301 INCx 01E3
8D73: E4F6   CPXz F6 monitor.BYTES
8D75: E3     
8D76: EDE3E5 SBC E5E3
8D79: E3     
8D7A: 0DE30D ORA 0DE3
8D7D: E3     
8D7E: 0DE300 ORA 00E3 editor.BEGADH
8D81: F10A   SBCiy 0A
8D83: F11A   SBCiy 1A
8D85: F1FF   SBCiy FF monitor.MODE
8D87: FFFFFF 
8D8A: FFFFFF 
8D8D: FFFFFF 
8D90: ECEAE6 CPX E6EA
8D93: EA     NOP
8D94: EDE3E0 SBC E0E3
8D97: EA     NOP
8D98: DA     
8D99: EA     NOP
8D9A: FFFFFF 
8D9D: FFFFFF 
8DA0: 67     
8DA1: F16B   SBCiy 6B
8DA3: F16F   SBCiy 6F
8DA5: F1FF   SBCiy FF monitor.MODE
8DA7: FFFFFF 
8DAA: FFFFFF 
8DAD: FFFFFF 
8DB0: ECFAF5 CPX F5FA
8DB3: FA     
8DB4: 14     
8DB5: FB     
8DB6: 24FB   BITz FB monitor.POINTH
8DB8: 55FB   EORzx FB monitor.POINTH
8DBA: 66FB   RORz FB monitor.POINTH
8DBC: C0FA   CPYim FA
8DBE: C6FA   DECz FA monitor.POINTL
8DC0: FC     
8DC1: F9F2F9 SBCy F9F2
8DC4: 05FA   ORAz FA monitor.POINTL
8DC6: 0DE30D ORA 0DE3
8DC9: E3     
8DCA: F7     
8DCB: F9FEF9 SBCy F9FE
8DCE: 03     
8DCF: FA     
8DD0: A6F9   LDXz F9 monitor.INH
8DD2: 88     DEY
8DD3: F9BAF9 SBCy F9BA
8DD6: 90F9   BCC -7>D1
8DD8: D1F9   CMPiy F9 monitor.INH
8DDA: 0DE3FF ORA FFE3
8DDD: FFFFFF 
8DE0: 55FA   EORzx FA monitor.POINTL
8DE2: 20FA69 JSR 69FA
8DE5: FA     
8DE6: 34     
8DE7: FA     
8DE8: 8A     TXAa
8DE9: FA     
8DEA: 5F     
8DEB: FA     
8DEC: 2A     ROLa
8DED: FA     
8DEE: 77     
8DEF: FA     
8DF0: 42     
8DF1: FA     
8DF2: 9C     
8DF3: FA     
8DF4: 5B     
8DF5: FA     
8DF6: 26FA   ROLz FA monitor.POINTL
8DF8: 73     
8DF9: FA     
8DFA: 3EFA98 ASLx 98FA
8DFD: FA     
8DFE: FFFFFF 
8E01: FFFFFF 
8E04: FFFFFF 
8E07: FFFFFF 
8E0A: FFFFFF 
8E0D: FF2233 
8E10: A58A   LDAz 8A bs.ACSave
8E12: 2936   ANDim 36
8E14: F004   BEQ +4>1A
8E16: 207CDB JSR DB7C
8E19: 0F     
8E1A: EA     NOP
8E1B: EA     NOP
8E1C: 60     RTS
8E1D: FF2233 
8E20: 20108E JSR 8E10
8E23: 20A38B JSR 8BA3
8E26: 20E4D9 JSR D9E4
8E29: 03     
8E2A: 20B5E3 JSR E3B5
8E2D: 60     RTS
8E2E: 20108E JSR 8E10
8E31: 20A38B JSR 8BA3
8E34: 20E4D9 JSR D9E4
8E37: 03     
8E38: 20CAE3 JSR E3CA
8E3B: 60     RTS
8E3C: FFFFFF 
8E3F: FF2233 
8E42: A00A   LDYim 0A
8E44: B141   LDAiy 41 hexedit.da.nr
8E46: 998A00 STAy 008A bs.ACSave
8E49: 88     DEY
8E4A: 10F8   BPL -8>44
8E4C: A58A   LDAz 8A bs.ACSave
8E4E: 29C0   ANDim C0
8E50: F009   BEQ +9>5B
8E52: A58A   LDAz 8A bs.ACSave
8E54: 2930   ANDim 30
8E56: C910   CMPim 10
8E58: F00D   BEQ +13>67
8E5A: 60     RTS
8E5B: A58A   LDAz 8A bs.ACSave
8E5D: 29F8   ANDim F8
8E5F: C910   CMPim 10
8E61: F00A   BEQ +10>6D
8E63: C920   CMPim 20
8E65: F006   BEQ +6>6D
8E67: 207CDB JSR DB7C
8E6A: 0F     
8E6B: EA     NOP
8E6C: EA     NOP
8E6D: 60     RTS
8E6E: 33     
8E6F: 205995 JSR 9559
8E72: 20108E JSR 8E10
8E75: 20DE8B JSR 8BDE
8E78: 60     RTS
8E79: FFFFFF 
8E7C: FF2233 
8E7F: 205995 JSR 9559
8E82: 20108C JSR 8C10
8E85: 60     RTS
8E86: 20E4D9 JSR D9E4
8E89: 03     
8E8A: 20D424 JSR 24D4 hexedit.CR
8E8D: 60     RTS
8E8E: 20108E JSR 8E10
8E91: 20A38B JSR 8BA3
8E94: 20E4D9 JSR D9E4
8E97: 03     
8E98: 2008E2 JSR E208
8E9B: 60     RTS
8E9C: FFFFFF 
8E9F: FF2233 
8EA2: A006   LDYim 06
8EA4: B120   LDAiy 20
8EA6: 998A00 STAy 008A bs.ACSave
8EA9: 88     DEY
8EAA: 10F8   BPL -8>A4
8EAC: A901   LDAim 01
8EAE: A200   LDXim 00
8EB0: 8593   STAz 93
8EB2: 8694   STXz 94 bs.helpActivate
8EB4: 60     RTS
8EB5: FFFFFF 
8EB8: FFFFFF 
8EBB: FFFFFF 
8EBE: FF2233 
8EC1: 20E4D9 JSR D9E4
8EC4: 03     
8EC5: 206624 JSR 2466 hexedit.openOutVideo
8EC8: 60     RTS
8EC9: FFFFFF 
8ECC: FFFF22 
8ECF: 33     
8ED0: A900   LDAim 00
8ED2: 85B8   STAz B8
8ED4: A63A   LDXz 3A
8ED6: 85B6   STAz B6
8ED8: E8     INX
8ED9: 86B7   STXz B7
8EDB: 85B0   STAz B0
8EDD: E8     INX
8EDE: 86B1   STXz B1
8EE0: A940   LDAim 40
8EE2: 85AE   STAz AE
8EE4: 86AF   STXz AF
8EE6: 85B2   STAz B2
8EE8: 86B3   STXz B3
8EEA: 85AD   STAz AD
8EEC: A9FC   LDAim FC
8EEE: 85AC   STAz AC
8EF0: 60     RTS
8EF1: 00     BRK
8EF2: A4B8   LDYz B8
8EF4: 91B6   STAiy B6
8EF6: E6B8   INCz B8
8EF8: F001   BEQ +1>FB
8EFA: 60     RTS
8EFB: 207CDB JSR DB7C
8EFE: 10FF   BPL -1>FF
8F00: FF2233 
8F03: A4B8   LDYz B8
8F05: F006   BEQ +6>0D
8F07: C6B8   DECz B8
8F09: 88     DEY
8F0A: B1B6   LDAiy B6
8F0C: 60     RTS
8F0D: 207CDB JSR DB7C
8F10: 06FF   ASLz FF monitor.MODE
8F12: FF2233 
8F15: A5BD   LDAz BD
8F17: 20F28E JSR 8EF2
8F1A: A5BE   LDAz BE
8F1C: 20F28E JSR 8EF2
8F1F: A5B2   LDAz B2
8F21: 85BD   STAz BD
8F23: A5B3   LDAz B3
8F25: 85BE   STAz BE
8F27: A000   LDYim 00
8F29: 98     TYA
8F2A: 91B2   STAiy B2
8F2C: E6B2   INCz B2
8F2E: D002   BNE +2>32
8F30: E6B3   INCz B3
8F32: 60     RTS
8F33: FF2233 
8F36: A5BD   LDAz BD
8F38: 85B2   STAz B2
8F3A: A5BE   LDAz BE
8F3C: 85B3   STAz B3
8F3E: 20038F JSR 8F03
8F41: 85BE   STAz BE
8F43: 20038F JSR 8F03
8F46: 85BD   STAz BD
8F48: 60     RTS
8F49: FF2233 
8F4C: A000   LDYim 00
8F4E: B1BD   LDAiy BD
8F50: F00B   BEQ +11>5D
8F52: C8     INY
8F53: C8     INY
8F54: C8     INY
8F55: C0FF   CPYim FF
8F57: D0F5   BNE -11>4E
8F59: 207CDB JSR DB7C
8F5C: 11EA   ORAiy EA
8F5E: A200   LDXim 00
8F60: B5BA   LDAzx BA
8F62: 91BD   STAiy BD
8F64: C8     INY
8F65: E8     INX
8F66: E003   CPXim 03
8F68: D0F6   BNE -10>60
8F6A: A900   LDAim 00
8F6C: 91BD   STAiy BD
8F6E: 18     CLC
8F6F: A903   LDAim 03
8F71: 65B2   ADCz B2
8F73: 85B2   STAz B2
8F75: 9002   BCC +2>79
8F77: E6B3   INCz B3
8F79: A5B2   LDAz B2
8F7B: C5B4   CMPz B4
8F7D: A5B3   LDAz B3
8F7F: E5B5   SBCz B5
8F81: B001   BCS +1>84
8F83: 60     RTS
8F84: 207CDB JSR DB7C
8F87: 13     
8F88: FF2233 
8F8B: A000   LDYim 00
8F8D: B1BD   LDAiy BD
8F8F: F018   BEQ +24>A9
8F91: C5BA   CMPz BA
8F93: F005   BEQ +5>9A
8F95: C8     INY
8F96: C8     INY
8F97: C8     INY
8F98: D0F3   BNE -13>8D
8F9A: A910   LDAim 10
8F9C: 91BD   STAiy BD
8F9E: C8     INY
8F9F: B1BD   LDAiy BD
8FA1: 85BB   STAz BB
8FA3: C8     INY
8FA4: B1BD   LDAiy BD
8FA6: 85BC   STAz BC
8FA8: 60     RTS
8FA9: 85BA   STAz BA
8FAB: 60     RTS
8FAC: FF2233 
8FAF: A5AC   LDAz AC
8FB1: 18     CLC
8FB2: 6904   ADCim 04
8FB4: 85AC   STAz AC
8FB6: C5AD   CMPz AD
8FB8: F001   BEQ +1>BB
8FBA: 60     RTS
8FBB: 207CDB JSR DB7C
8FBE: 12     
8FBF: EA     NOP
8FC0: FF2233 
8FC3: A4AC   LDYz AC
8FC5: A5BA   LDAz BA
8FC7: F002   BEQ +2>CB
8FC9: C8     INY
8FCA: C8     INY
8FCB: A5BB   LDAz BB
8FCD: 91B0   STAiy B0
8FCF: C8     INY
8FD0: A5BC   LDAz BC
8FD2: 91B0   STAiy B0
8FD4: 60     RTS
8FD5: FF2233 
8FD8: A4AC   LDYz AC
8FDA: A5BA   LDAz BA
8FDC: F002   BEQ +2>E0
8FDE: C8     INY
8FDF: C8     INY
8FE0: B1B0   LDAiy B0
8FE2: 85BB   STAz BB
8FE4: C8     INY
8FE5: B1B0   LDAiy B0
8FE7: 85BC   STAz BC
8FE9: 60     RTS
8FEA: FF2233 
8FED: 38     SEC
8FEE: A5AC   LDAz AC
8FF0: E904   SBCim 04
8FF2: 85AC   STAz AC
8FF4: 60     RTS
8FF5: FFFFFF 
8FF8: FF2233 
8FFB: 85BA   STAz BA
8FFD: A512   LDAz 12
8FFF: A613   LDXz 13
9001: 85BB   STAz BB
9003: 86BC   STXz BC
9005: 204C8F JSR 8F4C
9008: 60     RTS
9009: FFFFFF 
900C: FFFFFF 
900F: FFFFFF 
9012: FFFFFF 
9015: FFFFFF 
9018: FFFFFF 
901B: FFFFFF 
901E: FFFFFF 
9021: FFFFFF 
9024: FFFFFF 
9027: FFFFFF 
902A: FFFFFF 
902D: FFFFFF 
9030: FFFFFF 
9033: FFFFFF 
9036: FFFFFF 
9039: FFFFFF 
903C: FFFFFF 
903F: FFFFFF 
9042: FFFFFF 
9045: FFFFFF 
9048: FFFFFF 
904B: FFFFFF 
904E: FFFFFF 
9051: FFFFFF 
9054: FFFFFF 
9057: FFFFFF 
905A: FFFFFF 
905D: FFFFFF 
9060: FFFFFF 
9063: FF2233 
9066: A541   LDAz 41 hexedit.da.nr
9068: 20F28E JSR 8EF2
906B: A542   LDAz 42 hexedit.da.laenge
906D: 20F28E JSR 8EF2
9070: 60     RTS
9071: 20038F JSR 8F03
9074: 8542   STAz 42 hexedit.da.laenge
9076: 20038F JSR 8F03
9079: 8541   STAz 41 hexedit.da.nr
907B: 60     RTS
907C: FF2233 
907F: A000   LDYim 00
9081: B141   LDAiy 41 hexedit.da.nr
9083: 29BE   ANDim BE
9085: C9A6   CMPim A6
9087: F004   BEQ +4>8D
9089: 207CDB JSR DB7C
908C: 0F     
908D: EA     NOP
908E: EA     NOP
908F: 206690 JSR 9066
9092: EA     NOP
9093: EA     NOP
9094: EA     NOP
9095: EA     NOP
9096: A002   LDYim 02
9098: B141   LDAiy 41 hexedit.da.nr
909A: 8551   STAz 51
909C: 88     DEY
909D: B141   LDAiy 41 hexedit.da.nr
909F: 8550   STAz 50
90A1: 88     DEY
90A2: B141   LDAiy 41 hexedit.da.nr
90A4: 0A     ASLa
90A5: 3007   BMI +7>AE
90A7: 204DDA JSR DA4D
90AA: B590   LDAzx 90 bs.grenzPrio
90AC: EA     NOP
90AD: 60     RTS
90AE: 204DDA JSR DA4D
90B1: C3     
90B2: 90EA   BCC -22>9E
90B4: 60     RTS
90B5: 01A9   ORAix A9
90B7: 80     
90B8: 5001   BVC +1>BB
90BA: A280   LDXim 80
90BC: 5103   EORiy 03
90BE: 2020E6 JSR E620
90C1: 00     BRK
90C2: 00     BRK
90C3: 01A5   ORAix A5
90C5: 80     
90C6: 5001   BVC +1>C9
90C8: A681   LDXz 81 bs.KPUe.savePCH
90CA: 5003   BVC +3>CF
90CC: 2020E6 JSR E620
90CF: 00     BRK
90D0: FFFFFF 
90D3: FFFFFF 
90D6: FF2233 
90D9: 20F090 JSR 90F0
90DC: 20A38B JSR 8BA3
90DF: A58A   LDAz 8A bs.ACSave
90E1: 2907   ANDim 07
90E3: 0948   ORAim 48
90E5: 2033DA JSR DA33
90E8: 60     RTS
90E9: FFFFFF 
90EC: FFFF22 
90EF: 33     
90F0: A58A   LDAz 8A bs.ACSave
90F2: 293F   ANDim 3F
90F4: 9006   BCC +6>FC
90F6: 207CDB JSR DB7C
90F9: 0F     
90FA: EA     NOP
90FB: EA     NOP
90FC: 60     RTS
90FD: FFFFFF 
9100: FFFFFF 
9103: FFFFFF 
9106: FFFFFF 
9109: FF2233 
910C: 207190 JSR 9071
910F: 20F090 JSR 90F0
9112: 20A38B JSR 8BA3
9115: A58A   LDAz 8A bs.ACSave
9117: 2907   ANDim 07
9119: 0938   ORAim 38
911B: 2033DA JSR DA33
911E: A000   LDYim 00
9120: B141   LDAiy 41 hexedit.da.nr
9122: 2937   ANDim 37
9124: 0908   ORAim 08
9126: 858A   STAz 8A bs.ACSave
9128: A005   LDYim 05
912A: B141   LDAiy 41 hexedit.da.nr
912C: 858F   STAz 8F bs.aktTask
912E: C8     INY
912F: B141   LDAiy 41 hexedit.da.nr
9131: 8590   STAz 90 bs.grenzPrio
9133: 60     RTS
9134: FFFFFF 
9137: FFFFFF 
913A: FFFF22 
913D: 33     
913E: A58A   LDAz 8A bs.ACSave
9140: 2901   ANDim 01
9142: D008   BNE +8>4C
9144: 20E4D9 JSR D9E4
9147: 03     
9148: 2071E4 JSR E471
914B: 60     RTS
914C: 20E4D9 JSR D9E4
914F: 03     
9150: 2047E5 JSR E547
9153: 60     RTS
9154: FFFFFF 
9157: FFFFFF 
915A: FFFFFF 
915D: FF0000 
9160: 48     PHA
9161: A512   LDAz 12
9163: 20F28E JSR 8EF2
9166: A513   LDAz 13
9168: 20F28E JSR 8EF2
916B: 68     PLA
916C: 20C9D9 JSR D9C9
916F: 8512   STAz 12
9171: 8613   STXz 13
9173: 60     RTS
9174: FFFFFF 
9177: FF0000 
917A: A002   LDYim 02
917C: 20A525 JSR 25A5 bs.KPUe
917F: 68     PLA
9180: 8509   STAz 09
9182: 68     PLA
9183: 8508   STAz 08
9185: A512   LDAz 12
9187: 48     PHA
9188: A513   LDAz 13
918A: 48     PHA
918B: 20038F JSR 8F03
918E: 8513   STAz 13
9190: 20038F JSR 8F03
9193: 8512   STAz 12
9195: 2058DA JSR DA58
9198: 68     PLA
9199: 8513   STAz 13
919B: 68     PLA
919C: 8512   STAz 12
919E: 60     RTS
919F: FF0000 
91A2: 0985   ORAim 85
91A4: 2485   BITz 85
91A6: 2686   ROLz 86
91A8: 2586   ANDz 86
91AA: 27     
91AB: A980   LDAim 80
91AD: 1C     
91AE: 01A2   ORAix A2 serial.CurrentHiOrLoBits
91B0: 80     
91B1: 1D0485 ORAx 8504
91B4: 28     PLP
91B5: 8629   STXz 29
91B7: 00     BRK
91B8: FFFFFF 
91BB: FFFFFF 
91BE: FFFF22 
91C1: 33     
91C2: A512   LDAz 12
91C4: 48     PHA
91C5: A513   LDAz 13
91C7: 48     PHA
91C8: 20038F JSR 8F03
91CB: 8513   STAz 13
91CD: 20038F JSR 8F03
91D0: 8512   STAz 12
91D2: A9A9   LDAim A9
91D4: 208DD9 JSR D98D
91D7: A5D4   LDAz D4
91D9: 38     SEC
91DA: E901   SBCim 01
91DC: 08     PHP
91DD: 208DD9 JSR D98D
91E0: A9A2   LDAim A2
91E2: 208DD9 JSR D98D
91E5: A5D5   LDAz D5
91E7: 28     PLP
91E8: E900   SBCim 00
91EA: 208DD9 JSR D98D
91ED: 204DDA JSR DA4D
91F0: A291   LDXim 91
91F2: 68     PLA
91F3: 8513   STAz 13
91F5: 68     PLA
91F6: 8512   STAz 12
91F8: 60     RTS
91F9: FFFFFF 
91FC: FFFF22 
91FF: 33     
9200: 03     
9201: 2020E0 JSR E020
9204: 00     BRK
9205: 03     
9206: 20EDE3 JSR E3ED
9209: 00     BRK
920A: 03     
920B: 2043E6 JSR E643
920E: 00     BRK
920F: 03     
9210: 200DE3 JSR E30D
9213: 00     BRK
9214: 03     
9215: 200DE3 JSR E30D
9218: 00     BRK
9219: FFFFFF 
921C: FFFF00 
921F: 00     BRK
9220: 03     
9221: 200DE3 JSR E30D
9224: 00     BRK
9225: FFFFFF 
9228: FFFFFF 
922B: FFFFFF 
922E: FFFFFF 
9231: FFFFFF 
9234: FFFFFF 
9237: 00     BRK
9238: 00     BRK
9239: 0185   ORAix 85
923B: 80     
923C: 8B     
923D: 00     BRK
923E: 018D   ORAix 8D bs.SPSave
9240: 82     
9241: 8B     
9242: 00     BRK
9243: 0185   ORAix 85
9245: 818B   STAix 8B bs.RXSave
9247: 03     
9248: A514   LDAz 14
924A: 8580   STAz 80 bs.KPUe.savePCL
924C: 8B     
924D: 00     BRK
924E: 018D   ORAix 8D bs.SPSave
9250: 83     
9251: 8B     
9252: 03     
9253: A514   LDAz 14
9255: 8D828B STA 8B82
9258: 00     BRK
9259: 05A2   ORAz A2 serial.CurrentHiOrLoBits
925B: 03     
925C: B514   LDAzx 14
925E: 9580   STAzx 80 bs.KPUe.savePCL
9260: 8B     
9261: 03     
9262: CA     DEX
9263: 10F9   BPL -7>5E
9265: 00     BRK
9266: 05A2   ORAz A2 serial.CurrentHiOrLoBits
9268: 03     
9269: B514   LDAzx 14
926B: 9D828B STAx 8B82
926E: 03     
926F: CA     DEX
9270: 10F8   BPL -8>6A
9272: 00     BRK
9273: 04     
9274: A000   LDYim 00
9276: 9154   STAiy 54
9278: 00     BRK
9279: 03     
927A: 20A4E0 JSR E0A4
927D: 00     BRK
927E: 03     
927F: 208FE0 JSR E08F
9282: 00     BRK
9283: FFFFFF 
9286: FFFFFF 
9289: FFFFFF 
928C: FFFFFF 
928F: FFFFFF 
9292: FFFFFF 
9295: FFFFFF 
9298: FFFFFF 
929B: FFFFFF 
929E: FFFFFF 
92A1: FFFFFF 
92A4: FFFFFF 
92A7: FFFFFF 
92AA: FFFFFF 
92AD: FFFFFF 
92B0: FFFFFF 
92B3: FFFFFF 
92B6: FFFFFF 
92B9: FFFFFF 
92BC: FFFFFF 
92BF: FFFFFF 
92C2: FFFF00 
92C5: 00     BRK
92C6: 03     
92C7: A000   LDYim 00
92C9: 9180   STAiy 80 bs.KPUe.savePCL
92CB: 8B     
92CC: 00     BRK
92CD: 03     
92CE: A001   LDYim 01
92D0: 9180   STAiy 80 bs.KPUe.savePCL
92D2: 8B     
92D3: 04     
92D4: A514   LDAz 14
92D6: 88     DEY
92D7: 9180   STAiy 80 bs.KPUe.savePCL
92D9: 8B     
92DA: 00     BRK
92DB: 06A0   ASLz A0 serial.CurrentL
92DD: 03     
92DE: B91400 LDAy 0014
92E1: 9180   STAiy 80 bs.KPUe.savePCL
92E3: 8B     
92E4: 03     
92E5: 88     DEY
92E6: 10F7   BPL -9>DF
92E8: 00     BRK
92E9: FFFFFF 
92EC: FFFFFF 
92EF: FFFFFF 
92F2: FFFFFF 
92F5: FFFFFF 
92F8: FFFFFF 
92FB: FFFFFF 
92FE: FFFFFF 
9301: FFFFFF 
9304: FFFFFF 
9307: FFFFFF 
930A: FFFFFF 
930D: FFFFFF 
9310: FFFFFF 
9313: FFFFFF 
9316: FFFFFF 
9319: FFFFFF 
931C: FFFFFF 
931F: FFFFFF 
9322: FFFFFF 
9325: FFFFFF 
9328: 00     BRK
9329: 00     BRK
932A: 04     
932B: A002   LDYim 02
932D: 9154   STAiy 54
932F: 00     BRK
9330: 03     
9331: 2088EC JSR EC88
9334: 00     BRK
9335: FFFFFF 
9338: FFFFFF 
933B: FFFFFF 
933E: FFFFFF 
9341: FFFFFF 
9344: FFFFFF 
9347: FFFF00 
934A: 00     BRK
934B: A58A   LDAz 8A bs.ACSave
934D: 2906   ANDim 06
934F: F018   BEQ +24>69
9351: C902   CMPim 02
9353: D008   BNE +8>5D
9355: 20E4D9 JSR D9E4
9358: 03     
9359: 20EDE3 JSR E3ED
935C: 60     RTS
935D: C904   CMPim 04
935F: D008   BNE +8>69
9361: 20E4D9 JSR D9E4
9364: 03     
9365: 2043E6 JSR E643
9368: 60     RTS
9369: 20E4D9 JSR D9E4
936C: 03     
936D: 2020E0 JSR E020
9370: 60     RTS
9371: FF0000 
9374: A901   LDAim 01
9376: 48     PHA
9377: D003   BNE +3>7C
9379: A900   LDAim 00
937B: 48     PHA
937C: EA     NOP
937D: EA     NOP
937E: EA     NOP
937F: A58A   LDAz 8A bs.ACSave
9381: 2930   ANDim 30
9383: D00A   BNE +10>8F
9385: 20A38B JSR 8BA3
9388: 68     PLA
9389: D003   BNE +3>8E
938B: 204B93 JSR 934B
938E: 60     RTS
938F: 68     PLA
9390: A58A   LDAz 8A bs.ACSave
9392: 3001   BMI +1>95
9394: 60     RTS
9395: 2930   ANDim 30
9397: C920   CMPim 20
9399: D01C   BNE +28>B7
939B: 20248B JSR 8B24
939E: A58A   LDAz 8A bs.ACSave
93A0: 2907   ANDim 07
93A2: 48     PHA
93A3: 0918   ORAim 18
93A5: 2033DA JSR DA33
93A8: 68     PLA
93A9: C906   CMPim 06
93AB: 3001   BMI +1>AE
93AD: 60     RTS
93AE: 20E997 JSR 97E9
93B1: 204DDA JSR DA4D
93B4: F2     
93B5: 93     
93B6: 60     RTS
93B7: C910   CMPim 10
93B9: D004   BNE +4>BF
93BB: 207CDB JSR DB7C
93BE: 0F     
93BF: EA     NOP
93C0: EA     NOP
93C1: 20248B JSR 8B24
93C4: A58A   LDAz 8A bs.ACSave
93C6: 2908   ANDim 08
93C8: F004   BEQ +4>CE
93CA: 207CDB JSR DB7C
93CD: 06EA   ASLz EA
93CF: A20A   LDXim 0A
93D1: B58A   LDAzx 8A bs.ACSave
93D3: 95A0   STAzx A0 serial.CurrentL
93D5: CA     DEX
93D6: 10F9   BPL -7>D1
93D8: 205785 JSR 8557
93DB: 204DDA JSR DA4D
93DE: EC93EA CPX EA93
93E1: 60     RTS
93E2: FFFFFF 
93E5: FFFFFF 
93E8: FFFF00 
93EB: 00     BRK
93EC: 03     
93ED: 205FE6 JSR E65F
93F0: 82     
93F1: 14     
93F2: 02     
93F3: EA     NOP
93F4: EA     NOP
93F5: 00     BRK
93F6: FFFFFF 
93F9: FF2233 
93FC: A58A   LDAz 8A bs.ACSave
93FE: C904   CMPim 04
9400: B023   BCS +35>25
9402: A5A0   LDAz A0 serial.CurrentL
9404: 2907   ANDim 07
9406: C906   CMPim 06
9408: B01B   BCS +27>25
940A: C58A   CMPz 8A bs.ACSave
940C: 9017   BCC +23>25
940E: F015   BEQ +21>25
9410: 8550   STAz 50
9412: A58A   LDAz 8A bs.ACSave
9414: 0A     ASLa
9415: 0A     ASLa
9416: 0A     ASLa
9417: 0550   ORAz 50
9419: 20E899 JSR 99E8
941C: 60     RTS
941D: FFFFFF 
9420: FFFFFF 
9423: 22     
9424: 33     
9425: 207CDB JSR DB7C
9428: 0F     
9429: FF2233 
942C: A20A   LDXim 0A
942E: B5A0   LDAzx A0 serial.CurrentL
9430: 958A   STAzx 8A bs.ACSave
9432: CA     DEX
9433: 10F9   BPL -7>2E
9435: 60     RTS
9436: FF0000 
9439: 202C94 JSR 942C
943C: 20248B JSR 8B24
943F: A5A0   LDAz A0 serial.CurrentL
9441: 2927   ANDim 27
9443: 2033DA JSR DA33
9446: A5A0   LDAz A0 serial.CurrentL
9448: 2906   ANDim 06
944A: C906   CMPim 06
944C: F003   BEQ +3>51
944E: 4C2495 JMP 9524
9451: 4C3595 JMP 9535
9454: 33     
9455: A58A   LDAz 8A bs.ACSave
9457: 45A0   EORz A0 serial.CurrentL
9459: 2907   ANDim 07
945B: F006   BEQ +6>63
945D: 20FC93 JSR 93FC
9460: EA     NOP
9461: EA     NOP
9462: EA     NOP
9463: A5A0   LDAz A0 serial.CurrentL
9465: 2930   ANDim 30
9467: D029   BNE +41>92
9469: A58A   LDAz 8A bs.ACSave
946B: 2930   ANDim 30
946D: F006   BEQ +6>75
946F: 207CDB JSR DB7C
9472: 0F     
9473: EA     NOP
9474: EA     NOP
9475: 202C94 JSR 942C
9478: 20D78B JSR 8BD7
947B: 60     RTS
947C: FFFFFF 
947F: FFFFFF 
9482: FFFFFF 
9485: FFFFFF 
9488: FFFFFF 
948B: FFFFFF 
948E: FFFF00 
9491: 00     BRK
9492: C920   CMPim 20
9494: D02E   BNE +46>C4
9496: A58A   LDAz 8A bs.ACSave
9498: 2930   ANDim 30
949A: C920   CMPim 20
949C: F01C   BEQ +28>BA
949E: 0A     ASLa
949F: D010   BNE +16>B1
94A1: A58A   LDAz 8A bs.ACSave
94A3: 2907   ANDim 07
94A5: C906   CMPim 06
94A7: 3008   BMI +8>B1
94A9: A5A5   LDAz A5
94AB: D00A   BNE +10>B7
94AD: A5A6   LDAz A6
94AF: D006   BNE +6>B7
94B1: 207CDB JSR DB7C
94B4: 0F     
94B5: EA     NOP
94B6: EA     NOP
94B7: 20E094 JSR 94E0
94BA: 206596 JSR 9665
94BD: 203994 JSR 9439
94C0: 60     RTS
94C1: 00     BRK
94C2: 00     BRK
94C3: 00     BRK
94C4: C930   CMPim 30
94C6: F005   BEQ +5>CD
94C8: 207CDB JSR DB7C
94CB: 06EA   ASLz EA
94CD: 205796 JSR 9657
94D0: 200195 JSR 9501
94D3: 60     RTS
94D4: FFFFFF 
94D7: FFFFFF 
94DA: FFFFFF 
94DD: FF0000 
94E0: 20E4D9 JSR D9E4
94E3: 03     
94E4: 20C9E7 JSR E7C9
94E7: A58A   LDAz 8A bs.ACSave
94E9: 0928   ORAim 28
94EB: 858A   STAz 8A bs.ACSave
94ED: A58A   LDAz 8A bs.ACSave
94EF: 0928   ORAim 28
94F1: 858A   STAz 8A bs.ACSave
94F3: A201   LDXim 01
94F5: 868F   STXz 8F bs.aktTask
94F7: CA     DEX
94F8: 8690   STXz 90 bs.grenzPrio
94FA: 60     RTS
94FB: FFFFFF 
94FE: FF0000 
9501: 202C94 JSR 942C
9504: 20248B JSR 8B24
9507: 205785 JSR 8557
950A: 204DDA JSR DA4D
950D: 14     
950E: 95EA   STAzx EA
9510: EA     NOP
9511: 60     RTS
9512: 00     BRK
9513: 00     BRK
9514: 03     
9515: 2018E7 JSR E718
9518: 82     
9519: 14     
951A: 02     
951B: EA     NOP
951C: EA     NOP
951D: 00     BRK
951E: FFFFFF 
9521: FF2233 
9524: 205785 JSR 8557
9527: 204DDA JSR DA4D
952A: 2F     
952B: 95EA   STAzx EA
952D: 60     RTS
952E: 33     
952F: 82     
9530: 14     
9531: 02     
9532: EA     NOP
9533: EA     NOP
9534: 00     BRK
9535: 204DDA JSR DA4D
9538: 3D95EA ORAx EA95
953B: 60     RTS
953C: 33     
953D: 82     
953E: A502   LDAz 02
9540: EA     NOP
9541: EA     NOP
9542: 00     BRK
9543: FFFF22 
9546: 33     
9547: A58A   LDAz 8A bs.ACSave
9549: 2937   ANDim 37
954B: AA     TAX
954C: A58A   LDAz 8A bs.ACSave
954E: 2930   ANDim 30
9550: F004   BEQ +4>56
9552: 8A     TXAa
9553: 0908   ORAim 08
9555: AA     TAX
9556: 868A   STXz 8A bs.ACSave
9558: 60     RTS
9559: A200   LDXim 00
955B: 20038F JSR 8F03
955E: 95A0   STAzx A0 serial.CurrentL
9560: E8     INX
9561: E00B   CPXim 0B
9563: D0F6   BNE -10>5B
9565: 60     RTS
9566: FF2233 
9569: A20A   LDXim 0A
956B: B58A   LDAzx 8A bs.ACSave
956D: 20F28E JSR 8EF2
9570: CA     DEX
9571: 10F8   BPL -8>6B
9573: 60     RTS
9574: A200   LDXim 00
9576: 20038F JSR 8F03
9579: 958A   STAzx 8A bs.ACSave
957B: E8     INX
957C: E00B   CPXim 0B
957E: D0F6   BNE -10>76
9580: 60     RTS
9581: A20A   LDXim 0A
9583: B5A0   LDAzx A0 serial.CurrentL
9585: 20F28E JSR 8EF2
9588: CA     DEX
9589: 10F8   BPL -8>83
958B: 60     RTS
958C: FFFFFF 
958F: 22     
9590: 33     
9591: 206995 JSR 9569
9594: 20E4D9 JSR D9E4
9597: 03     
9598: 20DDE7 JSR E7DD
959B: 60     RTS
959C: FF2233 
959F: 207993 JSR 9379
95A2: 205995 JSR 9559
95A5: A58A   LDAz 8A bs.ACSave
95A7: 45A0   EORz A0 serial.CurrentL
95A9: 2907   ANDim 07
95AB: D006   BNE +6>B3
95AD: A58A   LDAz 8A bs.ACSave
95AF: 2910   ANDim 10
95B1: F004   BEQ +4>B7
95B3: 207CDB JSR DB7C
95B6: 0F     
95B7: EA     NOP
95B8: EA     NOP
95B9: 20E4D9 JSR D9E4
95BC: 03     
95BD: 20F3E7 JSR E7F3
95C0: EA     NOP
95C1: EA     NOP
95C2: EA     NOP
95C3: A58A   LDAz 8A bs.ACSave
95C5: 2930   ANDim 30
95C7: D016   BNE +22>DF
95C9: A58A   LDAz 8A bs.ACSave
95CB: 2901   ANDim 01
95CD: D008   BNE +8>D7
95CF: 20E4D9 JSR D9E4
95D2: 03     
95D3: 2041E8 JSR E841
95D6: 60     RTS
95D7: 20E4D9 JSR D9E4
95DA: 03     
95DB: 2052E9 JSR E952
95DE: 60     RTS
95DF: A58A   LDAz 8A bs.ACSave
95E1: 2901   ANDim 01
95E3: D008   BNE +8>ED
95E5: 20E4D9 JSR D9E4
95E8: 03     
95E9: 207AE8 JSR E87A
95EC: 60     RTS
95ED: 20E4D9 JSR D9E4
95F0: 03     
95F1: 205BE9 JSR E95B
95F4: 60     RTS
95F5: FF2233 
95F8: A000   LDYim 00
95FA: B141   LDAiy 41 hexedit.da.nr
95FC: 29C0   ANDim C0
95FE: D008   BNE +8>08
9600: B141   LDAiy 41 hexedit.da.nr
9602: 2938   ANDim 38
9604: C920   CMPim 20
9606: D008   BNE +8>10
9608: B141   LDAiy 41 hexedit.da.nr
960A: 2930   ANDim 30
960C: C910   CMPim 10
960E: D004   BNE +4>14
9610: 207CDB JSR DB7C
9613: 0F     
9614: EA     NOP
9615: EA     NOP
9616: 20428E JSR 8E42
9619: 60     RTS
961A: FFFFFF 
961D: FFFFFF 
9620: FFFFFF 
9623: FF2233 
9626: 207493 JSR 9374
9629: 204795 JSR 9547
962C: 20CD96 JSR 96CD
962F: 205594 JSR 9455
9632: 60     RTS
9633: FFFFFF 
9636: FFFFFF 
9639: FFFFFF 
963C: FFFFFF 
963F: FFFFFF 
9642: 22     
9643: 33     
9644: A58A   LDAz 8A bs.ACSave
9646: C5A0   CMPz A0 serial.CurrentL
9648: D030   BNE +48>7A
964A: A58A   LDAz 8A bs.ACSave
964C: 2930   ANDim 30
964E: C930   CMPim 30
9650: F005   BEQ +5>57
9652: C920   CMPim 20
9654: F00F   BEQ +15>65
9656: 60     RTS
9657: A593   LDAz 93
9659: C5A9   CMPz A9
965B: D01D   BNE +29>7A
965D: A594   LDAz 94 bs.helpActivate
965F: C5AA   CMPz AA
9661: D017   BNE +23>7A
9663: F008   BEQ +8>6D
9665: A58A   LDAz 8A bs.ACSave
9667: 2907   ANDim 07
9669: C906   CMPim 06
966B: 1013   BPL +19>80
966D: EA     NOP
966E: A58F   LDAz 8F bs.aktTask
9670: C5A5   CMPz A5
9672: D006   BNE +6>7A
9674: A590   LDAz 90 bs.grenzPrio
9676: C5A6   CMPz A6
9678: F004   BEQ +4>7E
967A: 207CDB JSR DB7C
967D: 0F     
967E: EA     NOP
967F: EA     NOP
9680: 60     RTS
9681: FFFFFF 
9684: FF2233 
9687: 206995 JSR 9569
968A: A58A   LDAz 8A bs.ACSave
968C: 2908   ANDim 08
968E: F006   BEQ +6>96
9690: A58A   LDAz 8A bs.ACSave
9692: 29C0   ANDim C0
9694: D001   BNE +1>97
9696: 60     RTS
9697: A58A   LDAz 8A bs.ACSave
9699: 2930   ANDim 30
969B: D01A   BNE +26>B7
969D: A58A   LDAz 8A bs.ACSave
969F: 2907   ANDim 07
96A1: C907   CMPim 07
96A3: D008   BNE +8>AD
96A5: 20E4D9 JSR D9E4
96A8: 03     
96A9: 20A7EA JSR EAA7
96AC: 60     RTS
96AD: EA     NOP
96AE: EA     NOP
96AF: 20E4D9 JSR D9E4
96B2: 03     
96B3: 20AEEA JSR EAAE
96B6: 60     RTS
96B7: 20E4D9 JSR D9E4
96BA: 03     
96BB: 2091EA JSR EA91
96BE: 60     RTS
96BF: FFFFFF 
96C2: FFFFFF 
96C5: FFFFFF 
96C8: FFFFFF 
96CB: 22     
96CC: 33     
96CD: 205995 JSR 9559
96D0: A5A0   LDAz A0 serial.CurrentL
96D2: 2908   ANDim 08
96D4: F006   BEQ +6>DC
96D6: A5A0   LDAz A0 serial.CurrentL
96D8: 29C0   ANDim C0
96DA: D001   BNE +1>DD
96DC: 60     RTS
96DD: A5A0   LDAz A0 serial.CurrentL
96DF: 2930   ANDim 30
96E1: D01D   BNE +29>00
96E3: A5A0   LDAz A0 serial.CurrentL
96E5: 2907   ANDim 07
96E7: C907   CMPim 07
96E9: D008   BNE +8>F3
96EB: 20E4D9 JSR D9E4
96EE: 03     
96EF: 20C5EA JSR EAC5
96F2: 60     RTS
96F3: EA     NOP
96F4: EA     NOP
96F5: 20E4D9 JSR D9E4
96F8: 03     
96F9: 20B6EA JSR EAB6
96FC: 60     RTS
96FD: FF2233 
9700: 20E4D9 JSR D9E4
9703: 03     
9704: 207CEA JSR EA7C
9707: 60     RTS
9708: FFFFFF 
970B: FFFFFF 
970E: FFFFFF 
9711: FFFFFF 
9714: 22     
9715: 33     
9716: A58A   LDAz 8A bs.ACSave
9718: 2920   ANDim 20
971A: D004   BNE +4>20
971C: 207CDB JSR DB7C
971F: 14     
9720: EA     NOP
9721: 206995 JSR 9569
9724: 60     RTS
9725: FF2233 
9728: A58A   LDAz 8A bs.ACSave
972A: 2937   ANDim 37
972C: C906   CMPim 06
972E: 3004   BMI +4>34
9730: 207CDB JSR DB7C
9733: 0C     
9734: EA     NOP
9735: EA     NOP
9736: 48     PHA
9737: 20A38B JSR 8BA3
973A: 68     PLA
973B: 0928   ORAim 28
973D: 2033DA JSR DA33
9740: 60     RTS
9741: FFFFFF 
9744: FFFFFF 
9747: FFFFFF 
974A: FFFFFF 
974D: FFFFFF 
9750: FFFFFF 
9753: FFFFFF 
9756: FFFFFF 
9759: FFFFFF 
975C: FFFFFF 
975F: FFFFFF 
9762: FFFFFF 
9765: FFFFFF 
9768: FFFFFF 
976B: FFFFFF 
976E: FFFFFF 
9771: FFFFFF 
9774: FFFFFF 
9777: FFFFFF 
977A: FFFFFF 
977D: FFFFFF 
9780: FFFFFF 
9783: FFFFFF 
9786: FFFFFF 
9789: FFFFFF 
978C: FFFFFF 
978F: FFFFFF 
9792: FFFFFF 
9795: FFFFFF 
9798: FFFFFF 
979B: FFFFFF 
979E: FFFFFF 
97A1: FFFFFF 
97A4: FFFFFF 
97A7: FFFFFF 
97AA: FFFFFF 
97AD: FFFFFF 
97B0: FFFFFF 
97B3: FFFFFF 
97B6: FFFFFF 
97B9: FFFFFF 
97BC: FFFFFF 
97BF: FFFFFF 
97C2: FFFFFF 
97C5: FF2233 
97C8: 82     
97C9: 8F     
97CA: 82     
97CB: 8D02EA STA EA02
97CE: EA     NOP
97CF: 00     BRK
97D0: 03     
97D1: 20B5EB JSR EBB5
97D4: 82     
97D5: 93     
97D6: 82     
97D7: 9100   STAiy 00
97D9: 82     
97DA: 8F     
97DB: 00     BRK
97DC: 00     BRK
97DD: A58A   LDAz 8A bs.ACSave
97DF: 2907   ANDim 07
97E1: C907   CMPim 07
97E3: F053   BEQ +83>38
97E5: C906   CMPim 06
97E7: F03A   BEQ +58>23
97E9: C904   CMPim 04
97EB: 101E   BPL +30>0B
97ED: C902   CMPim 02
97EF: 1008   BPL +8>F9
97F1: 204DDA JSR DA4D
97F4: D997EA CMPy EA97
97F7: 60     RTS
97F8: 33     
97F9: A58F   LDAz 8F bs.aktTask
97FB: 0A     ASLa
97FC: 08     PHP
97FD: 208DD9 JSR D98D
9800: A590   LDAz 90 bs.grenzPrio
9802: 28     PLP
9803: 2A     ROLa
9804: 208DD9 JSR D98D
9807: 60     RTS
9808: FF2233 
980B: A58F   LDAz 8F bs.aktTask
980D: 0A     ASLa
980E: 08     PHP
980F: 0A     ASLa
9810: 08     PHP
9811: 208DD9 JSR D98D
9814: A590   LDAz 90 bs.grenzPrio
9816: 0A     ASLa
9817: 28     PLP
9818: 6A     RORa
9819: 28     PLP
981A: 2A     ROLa
981B: 2A     ROLa
981C: 208DD9 JSR D98D
981F: 60     RTS
9820: FF2233 
9823: A58F   LDAz 8F bs.aktTask
9825: 18     CLC
9826: 6902   ADCim 02
9828: 08     PHP
9829: 208DD9 JSR D98D
982C: 28     PLP
982D: A590   LDAz 90 bs.grenzPrio
982F: 6900   ADCim 00
9831: 208DD9 JSR D98D
9834: 60     RTS
9835: FF2233 
9838: A58F   LDAz 8F bs.aktTask
983A: 48     PHA
983B: 18     CLC
983C: 6917   ADCim 17
983E: 858F   STAz 8F bs.aktTask
9840: A590   LDAz 90 bs.grenzPrio
9842: 6900   ADCim 00
9844: 4A     LSRa
9845: 668F   RORz 8F bs.aktTask
9847: 4A     LSRa
9848: 668F   RORz 8F bs.aktTask
984A: 4A     LSRa
984B: 668F   RORz 8F bs.aktTask
984D: 48     PHA
984E: A58F   LDAz 8F bs.aktTask
9850: 208DD9 JSR D98D
9853: 68     PLA
9854: 208DD9 JSR D98D
9857: 68     PLA
9858: 858F   STAz 8F bs.aktTask
985A: 60     RTS
985B: 00     BRK
985C: A58A   LDAz 8A bs.ACSave
985E: 2907   ANDim 07
9860: 0930   ORAim 30
9862: 2033DA JSR DA33
9865: 204DDA JSR DA4D
9868: C8     INY
9869: 97     
986A: EA     NOP
986B: A58A   LDAz 8A bs.ACSave
986D: 2907   ANDim 07
986F: 09C8   ORAim C8
9871: 858A   STAz 8A bs.ACSave
9873: A954   LDAim 54
9875: A200   LDXim 00
9877: 858B   STAz 8B bs.RXSave
9879: 868C   STXz 8C bs.RYSave
987B: 60     RTS
987C: 207495 JSR 9574
987F: 20248B JSR 8B24
9882: A58A   LDAz 8A bs.ACSave
9884: 2910   ANDim 10
9886: D004   BNE +4>8C
9888: 205C98 JSR 985C
988B: 60     RTS
988C: 204DDA JSR DA4D
988F: D097   BNE -105>28
9891: 20DD97 JSR 97DD
9894: 20E4D9 JSR D9E4
9897: 02     
9898: EA     NOP
9899: EA     NOP
989A: EA     NOP
989B: EA     NOP
989C: A58A   LDAz 8A bs.ACSave
989E: 2927   ANDim 27
98A0: 4C6F98 JMP 986F
98A3: FFFFFF 
98A6: 22     
98A7: 33     
98A8: 202897 JSR 9728
98AB: 20E4D9 JSR D9E4
98AE: 03     
98AF: 20B6EA JSR EAB6
98B2: 207495 JSR 9574
98B5: 205C98 JSR 985C
98B8: 60     RTS
98B9: FF2233 
98BC: 207495 JSR 9574
98BF: A58A   LDAz 8A bs.ACSave
98C1: 2910   ANDim 10
98C3: D004   BNE +4>C9
98C5: 207CDB JSR DB7C
98C8: 14     
98C9: EA     NOP
98CA: 207F98 JSR 987F
98CD: 20E4D9 JSR D9E4
98D0: 03     
98D1: 20AEEA JSR EAAE
98D4: 206995 JSR 9569
98D7: 60     RTS
98D8: FFFFFF 
98DB: FFFFFF 
98DE: FF2233 
98E1: A58A   LDAz 8A bs.ACSave
98E3: 2907   ANDim 07
98E5: C905   CMPim 05
98E7: B017   BCS +23>00
98E9: 60     RTS
98EA: A58A   LDAz 8A bs.ACSave
98EC: 2907   ANDim 07
98EE: C905   CMPim 05
98F0: B00E   BCS +14>00
98F2: 4A     LSRa
98F3: B00B   BCS +11>00
98F5: 207493 JSR 9374
98F8: 204795 JSR 9547
98FB: 4C0699 JMP 9906
98FE: 22     
98FF: 33     
9900: 207CDB JSR DB7C
9903: 0F     
9904: 00     BRK
9905: 00     BRK
9906: A58A   LDAz 8A bs.ACSave
9908: 2926   ANDim 26
990A: 4A     LSRa
990B: 0940   ORAim 40
990D: 2033DA JSR DA33
9910: 20A799 JSR 99A7
9913: 60     RTS
9914: 33     
9915: A58A   LDAz 8A bs.ACSave
9917: 2930   ANDim 30
9919: F02A   BEQ +42>45
991B: C920   CMPim 20
991D: D0DF   BNE -33>FE
991F: A58A   LDAz 8A bs.ACSave
9921: 2906   ANDim 06
9923: C906   CMPim 06
9925: D0D9   BNE -39>00
9927: F01C   BEQ +28>45
9929: A58A   LDAz 8A bs.ACSave
992B: 2907   ANDim 07
992D: C906   CMPim 06
992F: 9014   BCC +20>45
9931: B0CD   BCS -51>00
9933: A58A   LDAz 8A bs.ACSave
9935: 2907   ANDim 07
9937: C907   CMPim 07
9939: F00A   BEQ +10>45
993B: D0C3   BNE -61>00
993D: A58A   LDAz 8A bs.ACSave
993F: 2907   ANDim 07
9941: C906   CMPim 06
9943: D0BB   BNE -69>00
9945: 207993 JSR 9379
9948: 204795 JSR 9547
994B: 206995 JSR 9569
994E: A55A   LDAz 5A bs.neueZeitL
9950: 20F28E JSR 8EF2
9953: A58A   LDAz 8A bs.ACSave
9955: 2920   ANDim 20
9957: F007   BEQ +7>60
9959: 20E4D9 JSR D9E4
995C: 03     
995D: 20D0F7 JSR F7D0
9960: 60     RTS
9961: FF2233 
9964: 207493 JSR 9374
9967: 204795 JSR 9547
996A: 20038F JSR 8F03
996D: 8551   STAz 51
996F: 205995 JSR 9559
9972: 204496 JSR 9644
9975: 60     RTS
9976: FFFFFF 
9979: FF2233 
997C: 206499 JSR 9964
997F: A58A   LDAz 8A bs.ACSave
9981: 2907   ANDim 07
9983: 8550   STAz 50
9985: A551   LDAz 51
9987: C96F   CMPim 6F
9989: D001   BNE +1>8C
998B: 4A     LSRa
998C: 38     SEC
998D: E907   SBCim 07
998F: 290E   ANDim 0E
9991: 8551   STAz 51
9993: 0A     ASLa
9994: 6550   ADCz 50
9996: 48     PHA
9997: A58A   LDAz 8A bs.ACSave
9999: 0A     ASLa
999A: 0A     ASLa
999B: 0A     ASLa
999C: 68     PLA
999D: 2A     ROLa
999E: 18     CLC
999F: 6551   ADCz 51
99A1: 18     CLC
99A2: 6948   ADCim 48
99A4: 20E899 JSR 99E8
99A7: A58A   LDAz 8A bs.ACSave
99A9: 2930   ANDim 30
99AB: F014   BEQ +20>C1
99AD: C920   CMPim 20
99AF: D008   BNE +8>B9
99B1: 204DDA JSR DA4D
99B4: C499   CPYz 99 hexedit.video2
99B6: EA     NOP
99B7: EA     NOP
99B8: 60     RTS
99B9: 20B09C JSR 9CB0
99BC: 204DDA JSR DA4D
99BF: CA     DEX
99C0: 99EAEA STAy EAEA
99C3: 60     RTS
99C4: 82     
99C5: A502   LDAz 02
99C7: EA     NOP
99C8: EA     NOP
99C9: 00     BRK
99CA: 82     
99CB: 14     
99CC: 02     
99CD: EA     NOP
99CE: EA     NOP
99CF: 00     BRK
99D0: FFFFFF 
99D3: FFFFFF 
99D6: FFFFFF 
99D9: FFFFFF 
99DC: FFFFFF 
99DF: FF2233 
99E2: 207CDB JSR DB7C
99E5: 0F     
99E6: 00     BRK
99E7: 00     BRK
99E8: 0A     ASLa
99E9: AA     TAX
99EA: A920   LDAim 20
99EC: 208DD9 JSR D98D
99EF: BD009A LDAx 9A00
99F2: 208DD9 JSR D98D
99F5: BD019A LDAx 9A01
99F8: F0E8   BEQ -24>E2
99FA: 208DD9 JSR D98D
99FD: 60     RTS
99FE: 22     
99FF: 33     
9A00: EDEDEB SBC EBED
9A03: EC3EED CPX ED3E
9A06: 35ED   ANDzx ED
9A08: 69ED   ADCim ED
9A0A: 2EEEB6 ROL B6EE
9A0D: EDD2ED SBC EDD2
9A10: EBEC   SBCim EC
9A12: EDED38 SBC 38ED
9A15: ED38ED SBC ED38
9A18: 70ED   BCS -19>07
9A1A: 28     PLP
9A1B: EEB9ED INC EDB9
9A1E: D5ED   CMPzx ED
9A20: EF     
9A21: ECF9EC CPX ECF9
9A24: F4     
9A25: EDEBEC SBC ECEB
9A28: 7B     
9A29: ED22EE SBC EE22
9A2C: B0ED   BCS -19>1B
9A2E: CCEDF4 CPY F4ED
9A31: EC05ED CPX ED05
9A34: EBEC   SBCim EC
9A36: F4     
9A37: ED84ED SBC ED84
9A3A: 1C     
9A3B: EEAAED INC EDAA
9A3E: C6ED   DECz ED
9A40: 08     PHP
9A41: ED27ED SBC ED27
9A44: 45ED   EORz ED
9A46: 5DED05 EORx 05ED
9A49: EE16EE INC EE16
9A4C: A4ED   LDYz ED
9A4E: C0ED   CPYim ED
9A50: 0100   ORAix 00
9A52: 0100   ORAix 00
9A54: 0100   ORAix 00
9A56: 0100   ORAix 00
9A58: 0100   ORAix 00
9A5A: 0100   ORAix 00
9A5C: 00     BRK
9A5D: 00     BRK
9A5E: 00     BRK
9A5F: 00     BRK
9A60: 8DED8D STA 8DED
9A63: ED97ED SBC ED97
9A66: 97     
9A67: ED9CED SBC ED9C
9A6A: C9E7   CMPim E7
9A6C: EDED00 SBC 00ED
9A6F: 00     BRK
9A70: 0100   ORAix 00
9A72: 0100   ORAix 00
9A74: 38     SEC
9A75: ED38ED SBC ED38
9A78: 70ED   BCS -19>67
9A7A: 00     BRK
9A7B: 00     BRK
9A7C: 00     BRK
9A7D: 00     BRK
9A7E: C9E7   CMPim E7
9A80: 0100   ORAix 00
9A82: 0100   ORAix 00
9A84: 0100   ORAix 00
9A86: 0100   ORAix 00
9A88: 0100   ORAix 00
9A8A: 0100   ORAix 00
9A8C: DA     
9A8D: ED0000 SBC 0000
9A90: D8     CLD
9A91: F56D   SBCzx 6D hexedit.spaTty
9A93: F8     SED
9A94: E9F5   SBCim F5
9A96: F1F8   SBCiy F8
9A98: F3     
9A99: F575   SBCzx 75
9A9B: F8     SED
9A9C: 04     
9A9D: F679   INCzx 79
9A9F: F8     SED
9AA0: 0EF67D ASL 7DF6
9AA3: F8     SED
9AA4: 01F4   ORAix F4 monitor.SaveRy
9AA6: A4F8   LDYz F8
9AA8: 20F4AB JSR ABF4
9AAB: F8     SED
9AAC: 34     
9AAD: F4     
9AAE: AF     
9AAF: F8     SED
9AB0: 4DF4B3 EOR B3F4
9AB3: F8     SED
9AB4: 63     
9AB5: F4     
9AB6: B7     
9AB7: F8     SED
9AB8: EF     
9AB9: F125   SBCiy 25
9ABB: F8     SED
9ABC: F3     
9ABD: F129   SBCiy 29
9ABF: F8     SED
9AC0: 02     
9AC1: F2     
9AC2: 32     
9AC3: F8     SED
9AC4: 06F2   ASLz F2 monitor.SaveSP
9AC6: 36F8   ROLzx F8
9AC8: 1EF23F ASLx 3FF2
9ACB: F8     SED
9ACC: 3A     
9ACD: F2     
9ACE: 49F8   EORim F8
9AD0: 3EF24D ASLx 4DF2
9AD3: F8     SED
9AD4: 4DF256 EOR 56F2
9AD7: F8     SED
9AD8: 51F2   EORiy F2 monitor.SaveSP
9ADA: 5A     
9ADB: F8     SED
9ADC: 69F2   ADCim F2
9ADE: 63     
9ADF: F8     SED
9AE0: 22     
9AE1: F687   INCzx 87
9AE3: F8     SED
9AE4: 36F6   ROLzx F6 monitor.BYTES
9AE6: 8B     
9AE7: F8     SED
9AE8: 42     
9AE9: F68F   INCzx 8F bs.aktTask
9AEB: F8     SED
9AEC: 5A     
9AED: F696   INCzx 96
9AEF: F8     SED
9AF0: 6A     RORa
9AF1: F69A   INCzx 9A hexedit.video3
9AF3: F8     SED
9AF4: FFFFFF 
9AF7: FFFFFF 
9AFA: FFFFFF 
9AFD: FFFFFF 
9B00: FFFFFF 
9B03: FFFFFF 
9B06: 22     
9B07: 33     
9B08: 206499 JSR 9964
9B0B: A58A   LDAz 8A bs.ACSave
9B0D: 2920   ANDim 20
9B0F: D014   BNE +20>25
9B11: A58A   LDAz 8A bs.ACSave
9B13: 2907   ANDim 07
9B15: C906   CMPim 06
9B17: 9002   BCC +2>1B
9B19: A901   LDAim 01
9B1B: 18     CLC
9B1C: 900B   BCC +11>29
9B1E: FFFFFF 
9B21: FFFF22 
9B24: 33     
9B25: A58A   LDAz 8A bs.ACSave
9B27: 2907   ANDim 07
9B29: 0968   ORAim 68
9B2B: 2033DA JSR DA33
9B2E: EA     NOP
9B2F: EA     NOP
9B30: A651   LDXz 51
9B32: E8     INX
9B33: 8A     TXAa
9B34: 2907   ANDim 07
9B36: EA     NOP
9B37: 0960   ORAim 60
9B39: 2033DA JSR DA33
9B3C: A907   LDAim 07
9B3E: 858A   STAz 8A bs.ACSave
9B40: 60     RTS
9B41: FFFF00 
9B44: 00     BRK
9B45: A550   LDAz 50
9B47: 0A     ASLa
9B48: 0A     ASLa
9B49: 0A     ASLa
9B4A: 055A   ORAz 5A bs.neueZeitL
9B4C: AA     TAX
9B4D: 20E899 JSR 99E8
9B50: 60     RTS
9B51: FF0000 
9B54: A58A   LDAz 8A bs.ACSave
9B56: 2930   ANDim 30
9B58: D007   BNE +7>61
9B5A: A58A   LDAz 8A bs.ACSave
9B5C: 2907   ANDim 07
9B5E: 8550   STAz 50
9B60: 60     RTS
9B61: C930   CMPim 30
9B63: F014   BEQ +20>79
9B65: A58A   LDAz 8A bs.ACSave
9B67: 2907   ANDim 07
9B69: C906   CMPim 06
9B6B: 900C   BCC +12>79
9B6D: D004   BNE +4>73
9B6F: A905   LDAim 05
9B71: D002   BNE +2>75
9B73: A908   LDAim 08
9B75: 8550   STAz 50
9B77: 60     RTS
9B78: 33     
9B79: 207CDB JSR DB7C
9B7C: 0F     
9B7D: 00     BRK
9B7E: 00     BRK
9B7F: FF0000 
9B82: A55A   LDAz 5A bs.neueZeitL
9B84: 20F28E JSR 8EF2
9B87: 60     RTS
9B88: FF0000 
9B8B: 20038F JSR 8F03
9B8E: 38     SEC
9B8F: E94A   SBCim 4A
9B91: 855A   STAz 5A bs.neueZeitL
9B93: 20549B JSR 9B54
9B96: C55A   CMPz 5A bs.neueZeitL
9B98: D001   BNE +1>9B
9B9A: 60     RTS
9B9B: C907   CMPim 07
9B9D: D007   BNE +7>A6
9B9F: A55A   LDAz 5A bs.neueZeitL
9BA1: C902   CMPim 02
9BA3: B001   BCS +1>A6
9BA5: 60     RTS
9BA6: 207493 JSR 9374
9BA9: EA     NOP
9BAA: EA     NOP
9BAB: EA     NOP
9BAC: 20459B JSR 9B45
9BAF: A55A   LDAz 5A bs.neueZeitL
9BB1: 858A   STAz 8A bs.ACSave
9BB3: 60     RTS
9BB4: 22     
9BB5: 33     
9BB6: 20549B JSR 9B54
9BB9: C905   CMPim 05
9BBB: D001   BNE +1>BE
9BBD: 60     RTS
9BBE: 207493 JSR 9374
9BC1: EA     NOP
9BC2: EA     NOP
9BC3: EA     NOP
9BC4: A905   LDAim 05
9BC6: 855A   STAz 5A bs.neueZeitL
9BC8: 20459B JSR 9B45
9BCB: A550   LDAz 50
9BCD: C908   CMPim 08
9BCF: F012   BEQ +18>E3
9BD1: 4A     LSRa
9BD2: 2903   ANDim 03
9BD4: AA     TAX
9BD5: BD029C LDAx 9C02
9BD8: A200   LDXim 00
9BDA: A02E   LDYim 2E
9BDC: 858F   STAz 8F bs.aktTask
9BDE: 8690   STXz 90 bs.grenzPrio
9BE0: 848A   STYz 8A bs.ACSave
9BE2: 60     RTS
9BE3: A58F   LDAz 8F bs.aktTask
9BE5: 18     CLC
9BE6: 6907   ADCim 07
9BE8: 9002   BCC +2>EC
9BEA: E690   INCz 90 bs.grenzPrio
9BEC: 4690   LSRz 90 bs.grenzPrio
9BEE: 6A     RORa
9BEF: 4690   LSRz 90 bs.grenzPrio
9BF1: 6A     RORa
9BF2: 4690   LSRz 90 bs.grenzPrio
9BF4: 6A     RORa
9BF5: 858F   STAz 8F bs.aktTask
9BF7: A92E   LDAim 2E
9BF9: 858A   STAz 8A bs.ACSave
9BFB: 60     RTS
9BFC: FFFFFF 
9BFF: FF2233 
9C02: 03     
9C03: 050B   ORAz 0B
9C05: 0100   ORAix 00
9C07: 08     PHP
9C08: 08     PHP
9C09: 1010   BPL +16>1B
9C0B: 202008 JSR 0820
9C0E: 0100   ORAix 00
9C10: FF2233 
9C13: 20549B JSR 9B54
9C16: C908   CMPim 08
9C18: D001   BNE +1>1B
9C1A: 60     RTS
9C1B: 207493 JSR 9374
9C1E: EA     NOP
9C1F: EA     NOP
9C20: EA     NOP
9C21: A550   LDAz 50
9C23: 855A   STAz 5A bs.neueZeitL
9C25: 20459B JSR 9B45
9C28: A550   LDAz 50
9C2A: C905   CMPim 05
9C2C: D011   BNE +17>3F
9C2E: A92F   LDAim 2F
9C30: 858A   STAz 8A bs.ACSave
9C32: 068F   ASLz 8F bs.aktTask
9C34: 2690   ROLz 90 bs.grenzPrio
9C36: 068F   ASLz 8F bs.aktTask
9C38: 2690   ROLz 90 bs.grenzPrio
9C3A: 068F   ASLz 8F bs.aktTask
9C3C: 2690   ROLz 90 bs.grenzPrio
9C3E: 60     RTS
9C3F: A58A   LDAz 8A bs.ACSave
9C41: 2907   ANDim 07
9C43: AA     TAX
9C44: BD079C LDAx 9C07
9C47: A200   LDXim 00
9C49: A02F   LDYim 2F
9C4B: 4CDC9B JMP 9BDC
9C4E: FFFFFF 
9C51: FFFFFF 
9C54: FFFFFF 
9C57: FFFFFF 
9C5A: FFFFFF 
9C5D: FFFFFF 
9C60: FFFFFF 
9C63: FFFFFF 
9C66: FFFFFF 
9C69: FFFFFF 
9C6C: FFFFFF 
9C6F: FFFFFF 
9C72: FFFFFF 
9C75: FFFFFF 
9C78: FFFFFF 
9C7B: FFFFFF 
9C7E: FFFFFF 
9C81: FFFFFF 
9C84: FFFFFF 
9C87: FFFFFF 
9C8A: FFFFFF 
9C8D: FFFFFF 
9C90: FFFFFF 
9C93: FFFFFF 
9C96: FFFFFF 
9C99: FFFFFF 
9C9C: FFFFFF 
9C9F: FFFFFF 
9CA2: FFFFFF 
9CA5: FFFFFF 
9CA8: FFFFFF 
9CAB: FFFFFF 
9CAE: 22     
9CAF: 33     
9CB0: A5A5   LDAz A5
9CB2: A6A6   LDXz A6
9CB4: 8514   STAz 14
9CB6: 8615   STXz 15
9CB8: A5A9   LDAz A9
9CBA: A6AA   LDXz AA
9CBC: 8518   STAz 18
9CBE: 8619   STXz 19
9CC0: 208BE3 JSR E38B
9CC3: 60     RTS
9CC4: FFFFFF 
9CC7: FFFFFF 
9CCA: FF2233 
9CCD: A000   LDYim 00
9CCF: B154   LDAiy 54
9CD1: 29E0   ANDim E0
9CD3: C9A0   CMPim A0
9CD5: F001   BEQ +1>D8
9CD7: 60     RTS
9CD8: A550   LDAz 50
9CDA: D009   BNE +9>E5
9CDC: E650   INCz 50
9CDE: 20E4D9 JSR D9E4
9CE1: 03     
9CE2: 20D0F8 JSR F8D0
9CE5: A00D   LDYim 0D
9CE7: B154   LDAiy 54
9CE9: 99A000 STAy 00A0 serial.CurrentL
9CEC: 88     DEY
9CED: 10F8   BPL -8>E7
9CEF: A5A0   LDAz A0 serial.CurrentL
9CF1: 2906   ANDim 06
9CF3: C906   CMPim 06
9CF5: F012   BEQ +18>09
9CF7: 205785 JSR 8557
9CFA: 204DDA JSR DA4D
9CFD: 02     
9CFE: 9DEAEA STAx EAEA
9D01: 60     RTS
9D02: 0120   ORAix 20
9D04: 82     
9D05: A182   LDAix 82 bs.KPUe.adrParamsL
9D07: 1E00A5 ASLx A500
9D0A: A029   LDYim 29
9D0C: 37     
9D0D: 208DD9 JSR D98D
9D10: 204DDA JSR DA4D
9D13: 319D   ANDiy 9D
9D15: EA     NOP
9D16: EA     NOP
9D17: A5A0   LDAz A0 serial.CurrentL
9D19: 2910   ANDim 10
9D1B: F007   BEQ +7>24
9D1D: 204DDA JSR DA4D
9D20: 369D   ROLzx 9D
9D22: EA     NOP
9D23: EA     NOP
9D24: 60     RTS
9D25: FFFFFF 
9D28: FFFFFF 
9D2B: FFFFFF 
9D2E: FF2233 
9D31: 82     
9D32: A182   LDAix 82 bs.KPUe.adrParamsL
9D34: A500   LDAz 00
9D36: 82     
9D37: A900   LDAim 00
9D39: FFFFFF 
9D3C: FFFFFF 
9D3F: FFFFFF 
9D42: FFFFFF 
9D45: FF2233 
9D48: 205995 JSR 9559
9D4B: 208195 JSR 9581
9D4E: A58A   LDAz 8A bs.ACSave
9D50: 45A0   EORz A0 serial.CurrentL
9D52: 2937   ANDim 37
9D54: F004   BEQ +4>5A
9D56: 207CDB JSR DB7C
9D59: 0F     
9D5A: EA     NOP
9D5B: EA     NOP
9D5C: 207993 JSR 9379
9D5F: 60     RTS
9D60: FF2233 
9D63: 20489D JSR 9D48
9D66: A901   LDAim 01
9D68: 20F28E JSR 8EF2
9D6B: 60     RTS
9D6C: FF2233 
9D6F: A900   LDAim 00
9D71: 20F28E JSR 8EF2
9D74: 60     RTS
9D75: FF2233 
9D78: 20038F JSR 8F03
9D7B: 8550   STAz 50
9D7D: 20489D JSR 9D48
9D80: A20A   LDXim 0A
9D82: B5A0   LDAzx A0 serial.CurrentL
9D84: 958A   STAzx 8A bs.ACSave
9D86: CA     DEX
9D87: 10F9   BPL -7>82
9D89: 20A38B JSR 8BA3
9D8C: A901   LDAim 01
9D8E: 20FB8F JSR 8FFB
9D91: 20D99D JSR 9DD9
9D94: 20E4D9 JSR D9E4
9D97: 03     
9D98: 9003   BCC +3>9D
9D9A: 4CEAEA JMP EAEA
9D9D: A902   LDAim 02
9D9F: 20FB8F JSR 8FFB
9DA2: 20E4D9 JSR D9E4
9DA5: 02     
9DA6: 00     BRK
9DA7: 00     BRK
9DA8: A550   LDAz 50
9DAA: 20F28E JSR 8EF2
9DAD: A901   LDAim 01
9DAF: 20F28E JSR 8EF2
9DB2: 60     RTS
9DB3: FFFFFF 
9DB6: FFFFFF 
9DB9: FF2233 
9DBC: A58A   LDAz 8A bs.ACSave
9DBE: 2907   ANDim 07
9DC0: A650   LDXz 50
9DC2: F009   BEQ +9>CD
9DC4: 18     CLC
9DC5: 6905   ADCim 05
9DC7: A651   LDXz 51
9DC9: F002   BEQ +2>CD
9DCB: 6905   ADCim 05
9DCD: 0970   ORAim 70
9DCF: 2033DA JSR DA33
9DD2: 60     RTS
9DD3: FFFFFF 
9DD6: FF2233 
9DD9: A58A   LDAz 8A bs.ACSave
9DDB: 2907   ANDim 07
9DDD: 4A     LSRa
9DDE: B005   BCS +5>E5
9DE0: 0A     ASLa
9DE1: 0550   ORAz 50
9DE3: 1002   BPL +2>E7
9DE5: 0906   ORAim 06
9DE7: 0958   ORAim 58
9DE9: 2033DA JSR DA33
9DEC: 60     RTS
9DED: FF2233 
9DF0: A58A   LDAz 8A bs.ACSave
9DF2: 2937   ANDim 37
9DF4: C907   CMPim 07
9DF6: F004   BEQ +4>FC
9DF8: 207CDB JSR DB7C
9DFB: 0F     
9DFC: EA     NOP
9DFD: EA     NOP
9DFE: 20A38B JSR 8BA3
9E01: 20E4D9 JSR D9E4
9E04: 03     
9E05: F003   BEQ +3>0A
9E07: 4CEAEA JMP EAEA
9E0A: A902   LDAim 02
9E0C: 20FB8F JSR 8FFB
9E0F: 20E4D9 JSR D9E4
9E12: 02     
9E13: 00     BRK
9E14: 00     BRK
9E15: 60     RTS
9E16: FF2233 
9E19: A58A   LDAz 8A bs.ACSave
9E1B: 2937   ANDim 37
9E1D: C907   CMPim 07
9E1F: F004   BEQ +4>25
9E21: 207CDB JSR DB7C
9E24: 0F     
9E25: EA     NOP
9E26: EA     NOP
9E27: 20A38B JSR 8BA3
9E2A: 20E4D9 JSR D9E4
9E2D: 03     
9E2E: D003   BNE +3>33
9E30: 4CEAEA JMP EAEA
9E33: 4C0A9E JMP 9E0A
9E36: FFFFFF 
9E39: FF2233 
9E3C: 20428E JSR 8E42
9E3F: A58A   LDAz 8A bs.ACSave
9E41: 2937   ANDim 37
9E43: C905   CMPim 05
9E45: 9004   BCC +4>4B
9E47: 207CDB JSR DB7C
9E4A: 0F     
9E4B: EA     NOP
9E4C: EA     NOP
9E4D: 20158F JSR 8F15
9E50: 206995 JSR 9569
9E53: 60     RTS
9E54: FF2233 
9E57: A58A   LDAz 8A bs.ACSave
9E59: 2937   ANDim 37
9E5B: C905   CMPim 05
9E5D: 9004   BCC +4>63
9E5F: 207CDB JSR DB7C
9E62: 0F     
9E63: EA     NOP
9E64: EA     NOP
9E65: 20A38B JSR 8BA3
9E68: 205995 JSR 9559
9E6B: 205594 JSR 9455
9E6E: 208195 JSR 9581
9E71: 60     RTS
9E72: FF2233 
9E75: A58A   LDAz 8A bs.ACSave
9E77: 2907   ANDim 07
9E79: C902   CMPim 02
9E7B: 901A   BCC +26>97
9E7D: C904   CMPim 04
9E7F: 9008   BCC +8>89
9E81: F014   BEQ +20>97
9E83: 207CDB JSR DB7C
9E86: 0F     
9E87: EA     NOP
9E88: EA     NOP
9E89: A948   LDAim 48
9E8B: 208DD9 JSR D98D
9E8E: 20D78B JSR 8BD7
9E91: A968   LDAim 68
9E93: 208DD9 JSR D98D
9E96: 60     RTS
9E97: 20D78B JSR 8BD7
9E9A: 60     RTS
9E9B: FF2233 
9E9E: 20038F JSR 8F03
9EA1: 8551   STAz 51
9EA3: 20038F JSR 8F03
9EA6: 8550   STAz 50
9EA8: 207495 JSR 9574
9EAB: 20A38B JSR 8BA3
9EAE: 20BC9D JSR 9DBC
9EB1: 20759E JSR 9E75
9EB4: 20E09E JSR 9EE0
9EB7: A550   LDAz 50
9EB9: F003   BEQ +3>BE
9EBB: 20C29E JSR 9EC2
9EBE: A551   LDAz 51
9EC0: F00B   BEQ +11>CD
9EC2: A58A   LDAz 8A bs.ACSave
9EC4: 2907   ANDim 07
9EC6: 0908   ORAim 08
9EC8: 858A   STAz 8A bs.ACSave
9ECA: 20A38B JSR 8BA3
9ECD: 60     RTS
9ECE: FFFFFF 
9ED1: FF2233 
9ED4: 20158F JSR 8F15
9ED7: A901   LDAim 01
9ED9: 20FB8F JSR 8FFB
9EDC: 60     RTS
9EDD: FF2233 
9EE0: A901   LDAim 01
9EE2: 85BA   STAz BA
9EE4: 208B8F JSR 8F8B
9EE7: A5BA   LDAz BA
9EE9: D004   BNE +4>EF
9EEB: 207CDB JSR DB7C
9EEE: 06EA   ASLz EA
9EF0: 204DDA JSR DA4D
9EF3: 159F   ORAzx 9F
9EF5: EA     NOP
9EF6: EA     NOP
9EF7: E6BA   INCz BA
9EF9: 208B8F JSR 8F8B
9EFC: A5BA   LDAz BA
9EFE: F00E   BEQ +14>0E
9F00: A000   LDYim 00
9F02: A512   LDAz 12
9F04: 91BB   STAiy BB
9F06: A513   LDAz 13
9F08: C8     INY
9F09: 91BB   STAiy BB
9F0B: 18     CLC
9F0C: 90EB   BCC -21>F9
9F0E: 20368F JSR 8F36
9F11: 60     RTS
9F12: FF2233 
9F15: 014C   ORAix 4C
9F17: 82     
9F18: BB     
9F19: 00     BRK
9F1A: FF2233 
9F1D: A900   LDAim 00
9F1F: 20F28E JSR 8EF2
9F22: A901   LDAim 01
9F24: 20FB8F JSR 8FFB
9F27: 60     RTS
9F28: FFFFFF 
9F2B: FFFFFF 
9F2E: FFFFFF 
9F31: FFFFFF 
9F34: FFFFFF 
9F37: FFFFFF 
9F3A: FFFFFF 
9F3D: FFFFFF 
9F40: FFFFFF 
9F43: FFFFFF 
9F46: FFFFFF 
9F49: FFFFFF 
9F4C: FFFFFF 
9F4F: FFFFFF 
9F52: FFFFFF 
9F55: FFFFFF 
9F58: FFFFFF 
9F5B: FFFFFF 
9F5E: FFFFFF 
9F61: FFFFFF 
9F64: FFFFFF 
9F67: FFFFFF 
9F6A: FFFFFF 
9F6D: FFFFFF 
9F70: FFFFFF 
9F73: FFFFFF 
9F76: FFFFFF 
9F79: FFFFFF 
9F7C: FFFFFF 
9F7F: FFFFFF 
9F82: FFFFFF 
9F85: FFFFFF 
9F88: FFFFFF 
9F8B: FFFFFF 
9F8E: FFFFFF 
9F91: FFFFFF 
9F94: FFFFFF 
9F97: FFFFFF 
9F9A: FFFFFF 
9F9D: FFFFFF 
9FA0: FFFFFF 
9FA3: FFFFFF 
9FA6: FFFFFF 
9FA9: FFFFFF 
9FAC: FFFFFF 
9FAF: FFFFFF 
9FB2: FFFFFF 
9FB5: FFFFFF 
9FB8: FFFFFF 
9FBB: FFFFFF 
9FBE: FFFFFF 
9FC1: FFFFFF 
9FC4: FFFFFF 
9FC7: FFFFFF 
9FCA: FFFFFF 
9FCD: FFFFFF 
9FD0: FFFFFF 
9FD3: FFFFFF 
9FD6: FFFFFF 
9FD9: FFFFFF 
9FDC: FFFFFF 
9FDF: FFFFFF 
9FE2: FFFFFF 
9FE5: FFFFFF 
9FE8: FFFFFF 
9FEB: FFFFFF 
9FEE: FFFFFF 
9FF1: FFFFFF 
9FF4: FFFFFF 
9FF7: FFFFFF 
9FFA: FFFFFF 
9FFD: FFFFFF 
A000: FFFFFF 
A003: FFFFFF 
A006: FFFFFF 
A009: FFFFFF 
A00C: FFFFFF 
A00F: FFFFFF 
A012: FFFFFF 
A015: FFFFFF 
A018: FFFFFF 
A01B: FFFFFF 
A01E: FFFFFF 
A021: FFFFFF 
A024: FFFFFF 
A027: FFFFFF 
A02A: FFFFFF 
A02D: FFFFFF 
A030: FFFFFF 
A033: FFFFFF 
A036: FFFFFF 
A039: FFFFFF 
A03C: FFFFFF 
A03F: FFFFFF 
A042: FFFFFF 
A045: FFFFFF 
A048: FFFFFF 
A04B: FFFFFF 
A04E: FFFFFF 
A051: FFFFFF 
A054: FFFFFF 
A057: FFFFFF 
A05A: FFFFFF 
A05D: FFFFFF 
A060: FFFFFF 
A063: FFFFFF 
A066: FFFFFF 
A069: FFFFFF 
A06C: FFFFFF 
A06F: FFFFFF 
A072: FFFFFF 
A075: FFFFFF 
A078: FFFFFF 
A07B: FFFFFF 
A07E: FFFFFF 
A081: FFFFFF 
A084: FFFFFF 
A087: FFFFFF 
A08A: FFFFFF 
A08D: FFFFFF 
A090: FFFFFF 
A093: FFFFFF 
A096: FFFFFF 
A099: FFFFFF 
A09C: FFFFFF 
A09F: FFFFFF 
A0A2: FFFFFF 
A0A5: FFFFFF 
A0A8: FFFFFF 
A0AB: FFFFFF 
A0AE: FFFFFF 
A0B1: FFFFFF 
A0B4: FFFFFF 
A0B7: FFFFFF 
A0BA: FFFFFF 
A0BD: FFFFFF 
A0C0: FFFFFF 
A0C3: FFFFFF 
A0C6: FFFFFF 
A0C9: FFFFFF 
A0CC: FFFFFF 
A0CF: FFFFFF 
A0D2: FFFFFF 
A0D5: FFFFFF 
A0D8: FFFFFF 
A0DB: FFFFFF 
A0DE: FFFFFF 
A0E1: FFFFFF 
A0E4: FFFFFF 
A0E7: FFFFFF 
A0EA: FFFFFF 
A0ED: FFFFFF 
A0F0: FFFFFF 
A0F3: FFFFFF 
A0F6: FFFFFF 
A0F9: FFFFFF 
A0FC: FFFFFF 
A0FF: FFFFFF 
A102: FFFFFF 
A105: FFFFFF 
A108: FFFFFF 
A10B: FFFFFF 
A10E: FFFFFF 
A111: FFFFFF 
A114: FFFFFF 
A117: FFFFFF 
A11A: FFFFFF 
A11D: FFFFFF 
A120: FFFFFF 
A123: FFFFFF 
A126: FFFFFF 
A129: FFFFFF 
A12C: FFFFFF 
A12F: FFFFFF 
A132: FFFFFF 
A135: FFFFFF 
A138: FFFFFF 
A13B: FFFFFF 
A13E: FFFFFF 
A141: FFFFFF 
A144: FFFFFF 
A147: FFFFFF 
A14A: FFFFFF 
A14D: FFFFFF 
A150: FFFFFF 
A153: FFFFFF 
A156: FFFFFF 
A159: FFFFFF 
A15C: FFFFFF 
A15F: FFFFFF 
A162: FFFFFF 
A165: FFFFFF 
A168: FFFFFF 
A16B: FFFFFF 
A16E: FFFFFF 
A171: FFFFFF 
A174: FFFFFF 
A177: FFFFFF 
A17A: FFFFFF 
A17D: FFFFFF 
A180: FFFFFF 
A183: FFFFFF 
A186: FFFFFF 
A189: FFFFFF 
A18C: FFFFFF 
A18F: FFFFFF 
A192: FFFFFF 
A195: FFFFFF 
A198: FFFFFF 
A19B: FFFFFF 
A19E: FFFFFF 
A1A1: FFFFFF 
A1A4: FFFFFF 
A1A7: FFFFFF 
A1AA: FFFFFF 
A1AD: FFFFFF 
A1B0: FFFFFF 
A1B3: FFFFFF 
A1B6: FFFFFF 
A1B9: FFFFFF 
A1BC: FFFFFF 
A1BF: FFFFFF 
A1C2: FFFFFF 
A1C5: FFFFFF 
A1C8: FFFFFF 
A1CB: FFFFFF 
A1CE: FFFFFF 
A1D1: FFFFFF 
A1D4: FFFFFF 
A1D7: FFFFFF 
A1DA: FFFFFF 
A1DD: FFFFFF 
A1E0: FFFFFF 
A1E3: FFFFFF 
A1E6: FFFFFF 
A1E9: FFFFFF 
A1EC: FFFFFF 
A1EF: FFFFFF 
A1F2: FFFFFF 
A1F5: FFFFFF 
A1F8: FFFFFF 
A1FB: FFFFFF 
A1FE: FFFFFF 
A201: FFFFFF 
A204: FFFFFF 
A207: FFFFFF 
A20A: FFFFFF 
A20D: FFFFFF 
A210: FFFFFF 
A213: FFFFFF 
A216: FFFFFF 
A219: FFFFFF 
A21C: FFFFFF 
A21F: FFFFFF 
A222: FFFFFF 
A225: FFFFFF 
A228: FFFFFF 
A22B: FFFFFF 
A22E: FFFFFF 
A231: FFFFFF 
A234: FFFFFF 
A237: FFFFFF 
A23A: FFFFFF 
A23D: FFFFFF 
A240: FFFFFF 
A243: FFFFFF 
A246: FFFFFF 
A249: FFFFFF 
A24C: FFFFFF 
A24F: FFFFFF 
A252: FFFFFF 
A255: FFFFFF 
A258: FFFFFF 
A25B: FFFFFF 
A25E: FFFFFF 
A261: FFFFFF 
A264: FFFFFF 
A267: FFFFFF 
A26A: FFFFFF 
A26D: FFFFFF 
A270: FFFFFF 
A273: FFFFFF 
A276: FFFFFF 
A279: FFFFFF 
A27C: FFFFFF 
A27F: FFFFFF 
A282: FFFFFF 
A285: FFFFFF 
A288: FFFFFF 
A28B: FFFFFF 
A28E: FFFFFF 
A291: FFFFFF 
A294: FFFFFF 
A297: FFFFFF 
A29A: FFFFFF 
A29D: FFFFFF 
A2A0: FFFFFF 
A2A3: FFFFFF 
A2A6: FFFFFF 
A2A9: FFFFFF 
A2AC: FFFFFF 
A2AF: FFFFFF 
A2B2: FFFFFF 
A2B5: FFFFFF 
A2B8: FFFFFF 
A2BB: FFFFFF 
A2BE: FFFFFF 
A2C1: FFFFFF 
A2C4: FFFFFF 
A2C7: FFFFFF 
A2CA: FFFFFF 
A2CD: FFFFFF 
A2D0: FFFFFF 
A2D3: FFFFFF 
A2D6: FFFFFF 
A2D9: FFFFFF 
A2DC: FFFFFF 
A2DF: FFFFFF 
A2E2: FFFFFF 
A2E5: FFFFFF 
A2E8: FFFFFF 
A2EB: FFFFFF 
A2EE: FFFFFF 
A2F1: FFFFFF 
A2F4: FFFFFF 
A2F7: FFFFFF 
A2FA: FFFFFF 
A2FD: FFFFFF 
A300: FFFFFF 
A303: FFFFFF 
A306: FFFFFF 
A309: FFFFFF 
A30C: FFFFFF 
A30F: FFFFFF 
A312: FFFFFF 
A315: FFFFFF 
A318: FFFFFF 
A31B: FFFFFF 
A31E: FFFFFF 
A321: FFFFFF 
A324: FFFFFF 
A327: FFFFFF 
A32A: FFFFFF 
A32D: FFFFFF 
A330: FFFFFF 
A333: FFFFFF 
A336: FFFFFF 
A339: FFFFFF 
A33C: FFFFFF 
A33F: FFFFFF 
A342: FFFFFF 
A345: FFFFFF 
A348: FFFFFF 
A34B: FFFFFF 
A34E: FFFFFF 
A351: FFFFFF 
A354: FFFFFF 
A357: FFFFFF 
A35A: FFFFFF 
A35D: FFFFFF 
A360: FFFFFF 
A363: FFFFFF 
A366: FFFFFF 
A369: FFFFFF 
A36C: FFFFFF 
A36F: FFFFFF 
A372: FFFFFF 
A375: FFFFFF 
A378: FFFFFF 
A37B: FFFFFF 
A37E: FFFFFF 
A381: FFFFFF 
A384: FFFFFF 
A387: FFFFFF 
A38A: FFFFFF 
A38D: FFFFFF 
A390: FFFFFF 
A393: FFFFFF 
A396: FFFFFF 
A399: FFFFFF 
A39C: FFFFFF 
A39F: FFFFFF 
A3A2: FFFFFF 
A3A5: FFFFFF 
A3A8: FFFFFF 
A3AB: FFFFFF 
A3AE: FFFFFF 
A3B1: FFFFFF 
A3B4: FFFFFF 
A3B7: FFFFFF 
A3BA: FFFFFF 
A3BD: FFFFFF 
A3C0: FFFFFF 
A3C3: FFFFFF 
A3C6: FFFFFF 
A3C9: FFFFFF 
A3CC: FFFFFF 
A3CF: FFFFFF 
A3D2: FFFFFF 
A3D5: FFFFFF 
A3D8: FFFFFF 
A3DB: FFFFFF 
A3DE: FFFFFF 
A3E1: FFFFFF 
A3E4: FFFFFF 
A3E7: FFFFFF 
A3EA: FFFFFF 
A3ED: FFFFFF 
A3F0: FFFFFF 
A3F3: FFFFFF 
A3F6: FFFFFF 
A3F9: FFFFFF 
A3FC: FFFFFF 
A3FF: FFFFFF 
A402: FFFFFF 
A405: FFFFFF 
A408: FFFFFF 
A40B: FFFFFF 
A40E: FFFFFF 
A411: FFFFFF 
A414: FFFFFF 
A417: FFFFFF 
A41A: FFFFFF 
A41D: FFFFFF 
A420: FFFFFF 
A423: FFFFFF 
A426: FFFFFF 
A429: FFFFFF 
A42C: FFFFFF 
A42F: FFFFFF 
A432: FFFFFF 
A435: FFFFFF 
A438: FFFFFF 
A43B: FFFFFF 
A43E: FFFFFF 
A441: FFFFFF 
A444: FFFFFF 
A447: FFFFFF 
A44A: FFFFFF 
A44D: FFFFFF 
A450: FFFFFF 
A453: FFFFFF 
A456: FFFFFF 
A459: FFFFFF 
A45C: FFFFFF 
A45F: FFFFFF 
A462: FFFFFF 
A465: FFFFFF 
A468: FFFFFF 
A46B: FFFFFF 
A46E: FFFFFF 
A471: FFFFFF 
A474: FFFFFF 
A477: FFFFFF 
A47A: FFFFFF 
A47D: FFFFFF 
A480: FFFFFF 
A483: FFFFFF 
A486: FFFFFF 
A489: FFFFFF 
A48C: FFFFFF 
A48F: FFFFFF 
A492: FFFFFF 
A495: FFFFFF 
A498: FFFFFF 
A49B: FFFFFF 
A49E: FFFFFF 
A4A1: FFFFFF 
A4A4: FFFFFF 
A4A7: FFFFFF 
A4AA: FFFFFF 
A4AD: FFFFFF 
A4B0: FFFFFF 
A4B3: FFFFFF 
A4B6: FFFFFF 
A4B9: FFFFFF 
A4BC: FFFFFF 
A4BF: FFFFFF 
A4C2: FFFFFF 
A4C5: FFFFFF 
A4C8: FFFFFF 
A4CB: FFFFFF 
A4CE: FFFFFF 
A4D1: FFFFFF 
A4D4: FFFFFF 
A4D7: FFFFFF 
A4DA: FFFFFF 
A4DD: FFFFFF 
A4E0: FFFFFF 
A4E3: FFFFFF 
A4E6: FFFFFF 
A4E9: FFFFFF 
A4EC: FFFFFF 
A4EF: FFFFFF 
A4F2: FFFFFF 
A4F5: FFFFFF 
A4F8: FFFFFF 
A4FB: FFFFFF 
A4FE: FFFFFF 
A501: FFFFFF 
A504: FFFFFF 
A507: FFFFFF 
A50A: FFFFFF 
A50D: FFFFFF 
A510: FFFFFF 
A513: FFFFFF 
A516: FFFFFF 
A519: FFFFFF 
A51C: FFFFFF 
A51F: FFFFFF 
A522: FFFFFF 
A525: FFFFFF 
A528: FFFFFF 
A52B: FFFFFF 
A52E: FFFFFF 
A531: FFFFFF 
A534: FFFFFF 
A537: FFFFFF 
A53A: FFFFFF 
A53D: FFFFFF 
A540: FFFFFF 
A543: FFFFFF 
A546: FFFFFF 
A549: FFFFFF 
A54C: FFFFFF 
A54F: FFFFFF 
A552: FFFFFF 
A555: FFFFFF 
A558: FFFFFF 
A55B: FFFFFF 
A55E: FFFFFF 
A561: FFFFFF 
A564: FFFFFF 
A567: FFFFFF 
A56A: FFFFFF 
A56D: FFFFFF 
A570: FFFFFF 
A573: FFFFFF 
A576: FFFFFF 
A579: FFFFFF 
A57C: FFFFFF 
A57F: FFFFFF 
A582: FFFFFF 
A585: FFFFFF 
A588: FFFFFF 
A58B: FFFFFF 
A58E: FFFFFF 
A591: FFFFFF 
A594: FFFFFF 
A597: FFFFFF 
A59A: FFFFFF 
A59D: FFFFFF 
A5A0: FFFFFF 
A5A3: FFFFFF 
A5A6: FFFFFF 
A5A9: FFFFFF 
A5AC: FFFFFF 
A5AF: FFFFFF 
A5B2: FFFFFF 
A5B5: FFFFFF 
A5B8: FFFFFF 
A5BB: FFFFFF 
A5BE: FFFFFF 
A5C1: FFFFFF 
A5C4: FFFFFF 
A5C7: FFFFFF 
A5CA: FFFFFF 
A5CD: FFFFFF 
A5D0: FFFFFF 
A5D3: FFFFFF 
A5D6: FFFFFF 
A5D9: FFFFFF 
A5DC: FFFFFF 
A5DF: FFFFFF 
A5E2: FFFFFF 
A5E5: FFFFFF 
A5E8: FFFFFF 
A5EB: FFFFFF 
A5EE: FFFFFF 
A5F1: FFFFFF 
A5F4: FFFFFF 
A5F7: FFFFFF 
A5FA: FFFFFF 
A5FD: FFFFFF 
A600: FFFFFF 
A603: FFFFFF 
A606: FFFFFF 
A609: FFFFFF 
A60C: FFFFFF 
A60F: FFFFFF 
A612: FFFFFF 
A615: FFFFFF 
A618: FFFFFF 
A61B: FFFFFF 
A61E: FFFFFF 
A621: FFFFFF 
A624: FFFFFF 
A627: FFFFFF 
A62A: FFFFFF 
A62D: FFFFFF 
A630: FFFFFF 
A633: FFFFFF 
A636: FFFFFF 
A639: FFFFFF 
A63C: FFFFFF 
A63F: FFFFFF 
A642: FFFFFF 
A645: FFFFFF 
A648: FFFFFF 
A64B: FFFFFF 
A64E: FFFFFF 
A651: FFFFFF 
A654: FFFFFF 
A657: FFFFFF 
A65A: FFFFFF 
A65D: FFFFFF 
A660: FFFFFF 
A663: FFFFFF 
A666: FFFFFF 
A669: FFFFFF 
A66C: FFFFFF 
A66F: FFFFFF 
A672: FFFFFF 
A675: FFFFFF 
A678: FFFFFF 
A67B: FFFFFF 
A67E: FFFFFF 
A681: FFFFFF 
A684: FFFFFF 
A687: FFFFFF 
A68A: FFFFFF 
A68D: FFFFFF 
A690: FFFFFF 
A693: FFFFFF 
A696: FFFFFF 
A699: FFFFFF 
A69C: FFFFFF 
A69F: FFFFFF 
A6A2: FFFFFF 
A6A5: FFFFFF 
A6A8: FFFFFF 
A6AB: FFFFFF 
A6AE: FFFFFF 
A6B1: FFFFFF 
A6B4: FFFFFF 
A6B7: FFFFFF 
A6BA: FFFFFF 
A6BD: FFFFFF 
A6C0: FFFFFF 
A6C3: FFFFFF 
A6C6: FFFFFF 
A6C9: FFFFFF 
A6CC: FFFFFF 
A6CF: FFFFFF 
A6D2: FFFFFF 
A6D5: FFFFFF 
A6D8: FFFFFF 
A6DB: FFFFFF 
A6DE: FFFFFF 
A6E1: FFFFFF 
A6E4: FFFFFF 
A6E7: FFFFFF 
A6EA: FFFFFF 
A6ED: FFFFFF 
A6F0: FFFFFF 
A6F3: FFFFFF 
A6F6: FFFFFF 
A6F9: FFFFFF 
A6FC: FFFFFF 
A6FF: FFFFFF 
A702: FFFFFF 
A705: FFFFFF 
A708: FFFFFF 
A70B: FFFFFF 
A70E: FFFFFF 
A711: FFFFFF 
A714: FFFFFF 
A717: FFFFFF 
A71A: FFFFFF 
A71D: FFFFFF 
A720: FFFFFF 
A723: FFFFFF 
A726: FFFFFF 
A729: FFFFFF 
A72C: FFFFFF 
A72F: FFFFFF 
A732: FFFFFF 
A735: FFFFFF 
A738: FFFFFF 
A73B: FFFFFF 
A73E: FFFFFF 
A741: FFFFFF 
A744: FFFFFF 
A747: FFFFFF 
A74A: FFFFFF 
A74D: FFFFFF 
A750: FFFFFF 
A753: FFFFFF 
A756: FFFFFF 
A759: FFFFFF 
A75C: FFFFFF 
A75F: FFFFFF 
A762: FFFFFF 
A765: FFFFFF 
A768: FFFFFF 
A76B: FFFFFF 
A76E: FFFFFF 
A771: FFFFFF 
A774: FFFFFF 
A777: FFFFFF 
A77A: FFFFFF 
A77D: FFFFFF 
A780: FFFFFF 
A783: FFFFFF 
A786: FFFFFF 
A789: FFFFFF 
A78C: FFFFFF 
A78F: FFFFFF 
A792: FFFFFF 
A795: FFFFFF 
A798: FFFFFF 
A79B: FFFFFF 
A79E: FFFFFF 
A7A1: FFFFFF 
A7A4: FFFFFF 
A7A7: FFFFFF 
A7AA: FFFFFF 
A7AD: FFFFFF 
A7B0: FFFFFF 
A7B3: FFFFFF 
A7B6: FFFFFF 
A7B9: FFFFFF 
A7BC: FFFFFF 
A7BF: FFFFFF 
A7C2: FFFFFF 
A7C5: FFFFFF 
A7C8: FFFFFF 
A7CB: FFFFFF 
A7CE: FFFFFF 
A7D1: FFFFFF 
A7D4: FFFFFF 
A7D7: FFFFFF 
A7DA: FFFFFF 
A7DD: FFFFFF 
A7E0: FFFFFF 
A7E3: FFFFFF 
A7E6: FFFFFF 
A7E9: FFFFFF 
A7EC: FFFFFF 
A7EF: FFFFFF 
A7F2: FFFFFF 
A7F5: FFFFFF 
A7F8: FFFFFF 
A7FB: FFFFFF 
A7FE: FFFFFF 
A801: FFFFFF 
A804: FFFFFF 
A807: FFFFFF 
A80A: FFFFFF 
A80D: FFFFFF 
A810: FFFFFF 
A813: FFFFFF 
A816: FFFFFF 
A819: FFFFFF 
A81C: FFFFFF 
A81F: FFFFFF 
A822: FFFFFF 
A825: FFFFFF 
A828: FFFFFF 
A82B: FFFFFF 
A82E: FFFFFF 
A831: FFFFFF 
A834: FFFFFF 
A837: FFFFFF 
A83A: FFFFFF 
A83D: FFFFFF 
A840: FFFFFF 
A843: FFFFFF 
A846: FFFFFF 
A849: FFFFFF 
A84C: FFFFFF 
A84F: FFFFFF 
A852: FFFFFF 
A855: FFFFFF 
A858: FFFFFF 
A85B: FFFFFF 
A85E: FFFFFF 
A861: FFFFFF 
A864: FFFFFF 
A867: FFFFFF 
A86A: FFFFFF 
A86D: FFFFFF 
A870: FFFFFF 
A873: FFFFFF 
A876: FFFFFF 
A879: FFFFFF 
A87C: FFFFFF 
A87F: FFFFFF 
A882: FFFFFF 
A885: FFFFFF 
A888: FFFFFF 
A88B: FFFFFF 
A88E: FFFFFF 
A891: FFFFFF 
A894: FFFFFF 
A897: FFFFFF 
A89A: FFFFFF 
A89D: FFFFFF 
A8A0: FFFFFF 
A8A3: FFFFFF 
A8A6: FFFFFF 
A8A9: FFFFFF 
A8AC: FFFFFF 
A8AF: FFFFFF 
A8B2: FFFFFF 
A8B5: FFFFFF 
A8B8: FFFFFF 
A8BB: FFFFFF 
A8BE: FFFFFF 
A8C1: FFFFFF 
A8C4: FFFFFF 
A8C7: FFFFFF 
A8CA: FFFFFF 
A8CD: FFFFFF 
A8D0: FFFFFF 
A8D3: FFFFFF 
A8D6: FFFFFF 
A8D9: FFFFFF 
A8DC: FFFFFF 
A8DF: FFFFFF 
A8E2: FFFFFF 
A8E5: FFFFFF 
A8E8: FFFFFF 
A8EB: FFFFFF 
A8EE: FFFFFF 
A8F1: FFFFFF 
A8F4: FFFFFF 
A8F7: FFFFFF 
A8FA: FFFFFF 
A8FD: FFFFFF 
A900: FFFFFF 
A903: FFFFFF 
A906: FFFFFF 
A909: FFFFFF 
A90C: FFFFFF 
A90F: FFFFFF 
A912: FFFFFF 
A915: FFFFFF 
A918: FFFFFF 
A91B: FFFFFF 
A91E: FFFFFF 
A921: FFFFFF 
A924: FFFFFF 
A927: FFFFFF 
A92A: FFFFFF 
A92D: FFFFFF 
A930: FFFFFF 
A933: FFFFFF 
A936: FFFFFF 
A939: FFFFFF 
A93C: FFFFFF 
A93F: FFFFFF 
A942: FFFFFF 
A945: FFFFFF 
A948: FFFFFF 
A94B: FFFFFF 
A94E: FFFFFF 
A951: FFFFFF 
A954: FFFFFF 
A957: FFFFFF 
A95A: FFFFFF 
A95D: FFFFFF 
A960: FFFFFF 
A963: FFFFFF 
A966: FFFFFF 
A969: FFFFFF 
A96C: FFFFFF 
A96F: FFFFFF 
A972: FFFFFF 
A975: FFFFFF 
A978: FFFFFF 
A97B: FFFFFF 
A97E: FFFFFF 
A981: FFFFFF 
A984: FFFFFF 
A987: FFFFFF 
A98A: FFFFFF 
A98D: FFFFFF 
A990: FFFFFF 
A993: FFFFFF 
A996: FFFFFF 
A999: FFFFFF 
A99C: FFFFFF 
A99F: FFFFFF 
A9A2: FFFFFF 
A9A5: FFFFFF 
A9A8: FFFFFF 
A9AB: FFFFFF 
A9AE: FFFFFF 
A9B1: FFFFFF 
A9B4: FFFFFF 
A9B7: FFFFFF 
A9BA: FFFFFF 
A9BD: FFFFFF 
A9C0: FFFFFF 
A9C3: FFFFFF 
A9C6: FFFFFF 
A9C9: FFFFFF 
A9CC: FFFFFF 
A9CF: FFFFFF 
A9D2: FFFFFF 
A9D5: FFFFFF 
A9D8: FFFFFF 
A9DB: FFFFFF 
A9DE: FFFFFF 
A9E1: FFFFFF 
A9E4: FFFFFF 
A9E7: FFFFFF 
A9EA: FFFFFF 
A9ED: FFFFFF 
A9F0: FFFFFF 
A9F3: FFFFFF 
A9F6: FFFFFF 
A9F9: FFFFFF 
A9FC: FFFFFF 
A9FF: FFEAEA 
AA02: EA     NOP
AA03: A901   LDAim 01
AA05: 8DF8FF STA FFF8 bios.flag EPROM lo
AA08: 8DF9FF STA FFF9 bios.flag EPROM med
AA0B: A900   LDAim 00
AA0D: A250   LDXim 50
AA0F: 85CA   STAz CA bs.Transfer3.vonL
AA11: 86CB   STXz CB bs.Transfer3.vonH
AA13: 85CE   STAz CE bs.Transfer3.nachL
AA15: 86CF   STXz CF bs.Transfer3.nachH
AA17: A9FF   LDAim FF
AA19: A261   LDXim 61
AA1B: 85CC   STAz CC bs.Transfer3.bisL
AA1D: 86CD   STXz CD bs.Transfer3.bisH
AA1F: 20403E JSR 3E40 hexedit.Transfer2
AA22: A900   LDAim 00
AA24: A2AA   LDXim AA
AA26: 85CA   STAz CA bs.Transfer3.vonL
AA28: 86CB   STXz CB bs.Transfer3.vonH
AA2A: 85CE   STAz CE bs.Transfer3.nachL
AA2C: 86CF   STXz CF bs.Transfer3.nachH
AA2E: A9FF   LDAim FF
AA30: A2B7   LDXim B7
AA32: 85CC   STAz CC bs.Transfer3.bisL
AA34: 86CD   STXz CD bs.Transfer3.bisH
AA36: 20403E JSR 3E40 hexedit.Transfer2
AA39: A900   LDAim 00
AA3B: 8DF9FF STA FFF9 bios.flag EPROM med
AA3E: 8DFAFF STA FFFA bios.flag EPROM hi/NMIadr
AA41: A901   LDAim 01
AA43: 8D081A STA 1A08 bs.param.ROMStatusMaster
AA46: 58     CLI
AA47: 4C22AD JMP AD22
AA4A: FFFFFF 
AA4D: FFFFFF 
AA50: FFFFFF 
AA53: FFFFFF 
AA56: FFFFFF 
AA59: FFFFFF 
AA5C: FFFFFF 
AA5F: FFFFFF 
AA62: FFFFFF 
AA65: FFFFFF 
AA68: FFFFFF 
AA6B: FFFFFF 
AA6E: FFFFFF 
AA71: FFFFFF 
AA74: FFFFFF 
AA77: FFFFFF 
AA7A: FFFFFF 
AA7D: FFFFFF 
AA80: FFFFFF 
AA83: FFFFFF 
AA86: FFFFFF 
AA89: FFFFFF 
AA8C: FFFFFF 
AA8F: FFFFFF 
AA92: FFFFFF 
AA95: FFFFFF 
AA98: FFFFFF 
AA9B: FFFFFF 
AA9E: FFFFFF 
AAA1: FFFFFF 
AAA4: FFFFFF 
AAA7: FFFFFF 
AAAA: FFFFFF 
AAAD: FFFFFF 
AAB0: FFFFFF 
AAB3: FFFFFF 
AAB6: FFFFFF 
AAB9: FFFFFF 
AABC: FFFFFF 
AABF: FFFFFF 
AAC2: FFFFFF 
AAC5: FFFFFF 
AAC8: FFFFFF 
AACB: FFFFFF 
AACE: FFFFFF 
AAD1: FFFFFF 
AAD4: FFFFFF 
AAD7: FFFFFF 
AADA: FF2233 
AADD: A200   LDXim 00
AADF: A007   LDYim 07
AAE1: 2C0016 BIT 1600 floppy.??
AAE4: 10FB   BPL -5>E1
AAE6: 5017   BVC +23>FF
AAE8: AD0116 LDA 1601 floppy.??
AAEB: 9D6A03 STAx 036A
AAEE: E8     INX
AAEF: 88     DEY
AAF0: D0EF   BNE -17>E1
AAF2: 2C0016 BIT 1600 floppy.??
AAF5: 10FB   BPL -5>F2
AAF7: 5006   BVC +6>FF
AAF9: AD0116 LDA 1601 floppy.??
AAFC: 18     CLC
AAFD: 90F3   BCC -13>F2
AAFF: 60     RTS
AB00: FFFFFF 
AB03: FFFFFF 
AB06: FFFFFF 
AB09: FFFFFF 
AB0C: FFFFFF 
AB0F: 22     
AB10: 33     
AB11: E007   CPXim 07
AB13: F016   BEQ +22>2B
AB15: E002   CPXim 02
AB17: F056   BEQ +86>6F
AB19: E001   CPXim 01
AB1B: F037   BEQ +55>54
AB1D: 4C41AB JMP AB41
AB20: FFFFFF 
AB23: FFFFFF 
AB26: FFFFFF 
AB29: 22     
AB2A: 33     
AB2B: A200   LDXim 00
AB2D: 86EA   STXz EA
AB2F: 20CE24 JSR 24CE hexedit.Blank
AB32: A6EA   LDXz EA
AB34: BD6A03 LDAx 036A
AB37: 20EF24 JSR 24EF hexedit.byteDru
AB3A: A6EA   LDXz EA
AB3C: E8     INX
AB3D: E007   CPXim 07
AB3F: D0EC   BNE -20>2D
AB41: 20C924 JSR 24C9 hexedit.2Blanks
AB44: AD0016 LDA 1600 floppy.??
AB47: 20EF24 JSR 24EF hexedit.byteDru
AB4A: 20C924 JSR 24C9 hexedit.2Blanks
AB4D: 20DDAD JSR ADDD
AB50: 60     RTS
AB51: FF2233 
AB54: 20CE24 JSR 24CE hexedit.Blank
AB57: AD6A03 LDA 036A
AB5A: 20EF24 JSR 24EF hexedit.byteDru
AB5D: 4C41AB JMP AB41
AB60: FFFFFF 
AB63: FF2233 
AB66: 4C66AB JMP AB66
AB69: FFFFFF 
AB6C: FF2233 
AB6F: EA     NOP
AB70: 20CE24 JSR 24CE hexedit.Blank
AB73: AD6A03 LDA 036A
AB76: 20EF24 JSR 24EF hexedit.byteDru
AB79: 20CE24 JSR 24CE hexedit.Blank
AB7C: AD6B03 LDA 036B
AB7F: 20EF24 JSR 24EF hexedit.byteDru
AB82: 4C41AB JMP AB41
AB85: FFFFFF 
AB88: FFFFFF 
AB8B: FFFFFF 
AB8E: FFFFFF 
AB91: FF2233 
AB94: 60     RTS
AB95: FFFF22 
AB98: 33     
AB99: A907   LDAim 07
AB9B: 20EF24 JSR 24EF hexedit.byteDru
AB9E: A907   LDAim 07
ABA0: 2069AC JSR AC69
ABA3: AD6903 LDA 0369
ABA6: 2069AC JSR AC69
ABA9: 201BAC JSR AC1B
ABAC: CA     DEX
ABAD: F0FA   BEQ -6>A9
ABAF: E8     INX
ABB0: A8     TAY
ABB1: AD6A03 LDA 036A
ABB4: 2920   ANDim 20
ABB6: F0F1   BEQ -15>A9
ABB8: 98     TYA
ABB9: 60     RTS
ABBA: A907   LDAim 07
ABBC: 20EF24 JSR 24EF hexedit.byteDru
ABBF: 209EAB JSR AB9E
ABC2: 209EAB JSR AB9E
ABC5: 60     RTS
ABC6: FFFFFF 
ABC9: FF2233 
ABCC: A903   LDAim 03
ABCE: 20EF24 JSR 24EF hexedit.byteDru
ABD1: A903   LDAim 03
ABD3: 2069AC JSR AC69
ABD6: AD7803 LDA 0378
ABD9: 2069AC JSR AC69
ABDC: AD7903 LDA 0379
ABDF: 2069AC JSR AC69
ABE2: A2FF   LDXim FF
ABE4: 60     RTS
ABE5: FFFFFF 
ABE8: FF2233 
ABEB: A904   LDAim 04
ABED: 20EF24 JSR 24EF hexedit.byteDru
ABF0: A904   LDAim 04
ABF2: 2069AC JSR AC69
ABF5: AD6E03 LDA 036E
ABF8: 0A     ASLa
ABF9: 0A     ASLa
ABFA: 0D6903 ORA 0369
ABFD: 2069AC JSR AC69
AC00: A200   LDXim 00
AC02: 2C0016 BIT 1600 floppy.??
AC05: 10FB   BPL -5>02
AC07: 5007   BVC +7>10
AC09: AD0116 LDA 1601 floppy.??
AC0C: 8D6A03 STA 036A
AC0F: E8     INX
AC10: 60     RTS
AC11: A908   LDAim 08
AC13: 20EF24 JSR 24EF hexedit.byteDru
AC16: A93A   LDAim 3A
AC18: 206324 JSR 2463 hexedit.write
AC1B: A908   LDAim 08
AC1D: 2069AC JSR AC69
AC20: A200   LDXim 00
AC22: 2C0016 BIT 1600 floppy.??
AC25: 10FB   BPL -5>22
AC27: 5012   BVC +18>3B
AC29: AD0116 LDA 1601 floppy.??
AC2C: 8D6A03 STA 036A
AC2F: E8     INX
AC30: 2C0016 BIT 1600 floppy.??
AC33: 10FB   BPL -5>30
AC35: 5004   BVC +4>3B
AC37: AD0116 LDA 1601 floppy.??
AC3A: E8     INX
AC3B: 60     RTS
AC3C: FFFFFF 
AC3F: FFFFFF 
AC42: FFFFFF 
AC45: FFFFFF 
AC48: FFFFFF 
AC4B: FFFFFF 
AC4E: FFFFFF 
AC51: FFFFFF 
AC54: FFFFFF 
AC57: FFFFFF 
AC5A: FFFFFF 
AC5D: FFFFFF 
AC60: FFFFFF 
AC63: FFFFFF 
AC66: FF2233 
AC69: EA     NOP
AC6A: EA     NOP
AC6B: 2C0016 BIT 1600 floppy.??
AC6E: 10FB   BPL -5>6B
AC70: 8D0116 STA 1601 floppy.??
AC73: 60     RTS
AC74: FF2233 
AC77: A90D   LDAim 0D
AC79: 20EF24 JSR 24EF hexedit.byteDru
AC7C: A93A   LDAim 3A
AC7E: 206324 JSR 2463 hexedit.write
AC81: A90D   LDAim 0D
AC83: 0D6803 ORA 0368
AC86: 2069AC JSR AC69
AC89: AD6E03 LDA 036E
AC8C: 0A     ASLa
AC8D: 0A     ASLa
AC8E: 0D6903 ORA 0369
AC91: 2069AC JSR AC69
AC94: AD7003 LDA 0370
AC97: 2069AC JSR AC69
AC9A: A274   LDXim 74
AC9C: A003   LDYim 03
AC9E: 2000AD JSR AD00
ACA1: EA     NOP
ACA2: EA     NOP
ACA3: EA     NOP
ACA4: A901   LDAim 01
ACA6: 8D6F03 STA 036F
ACA9: A26D   LDXim 6D
ACAB: A004   LDYim 04
ACAD: A920   LDAim 20
ACAF: 2C0016 BIT 1600 floppy.??
ACB2: 10FB   BPL -5>AF
ACB4: F009   BEQ +9>BF
ACB6: 2000AD JSR AD00
ACB9: EE6F03 INC 036F
ACBC: 4CA9AC JMP ACA9
ACBF: AE6F03 LDX 036F
ACC2: CA     DEX
ACC3: EC7403 CPX 0374
ACC6: F002   BEQ +2>CA
ACC8: E6EE   INCz EE
ACCA: A200   LDXim 00
ACCC: A003   LDYim 03
ACCE: 20E1AA JSR AAE1
ACD1: A207   LDXim 07
ACD3: 60     RTS
ACD4: FFFFFF 
ACD7: FFFFFF 
ACDA: FFFFFF 
ACDD: FFFFFF 
ACE0: FFFFFF 
ACE3: FFFFFF 
ACE6: FFFFFF 
ACE9: FFFFFF 
ACEC: FFFFFF 
ACEF: FFFFFF 
ACF2: FFFFFF 
ACF5: FFFFFF 
ACF8: FFFFFF 
ACFB: FFFFFF 
ACFE: 22     
ACFF: 33     
AD00: BD0003 LDAx 0300 serial.receive from PC
AD03: 2C0016 BIT 1600 floppy.??
AD06: 10FB   BPL -5>03
AD08: 8D0116 STA 1601 floppy.??
AD0B: E8     INX
AD0C: 88     DEY
AD0D: D0F1   BNE -15>00
AD0F: 60     RTS
AD10: FF2233 
AD13: 48     PHA
AD14: 8A     TXAa
AD15: 48     PHA
AD16: A5EE   LDAz EE
AD18: 095E   ORAim 5E
AD1A: 206324 JSR 2463 hexedit.write
AD1D: 68     PLA
AD1E: AA     TAX
AD1F: 68     PLA
AD20: 60     RTS
AD21: 33     
AD22: 206624 JSR 2466 hexedit.openOutVideo
AD25: EA     NOP
AD26: EA     NOP
AD27: 2013AD JSR AD13
AD2A: 2011AB JSR AB11
AD2D: 20D424 JSR 24D4 hexedit.CR
AD30: 206024 JSR 2460 hexedit.read
AD33: 48     PHA
AD34: 206324 JSR 2463 hexedit.write
AD37: 68     PLA
AD38: C93A   CMPim 3A
AD3A: 9003   BCC +3>3F
AD3C: 38     SEC
AD3D: E907   SBCim 07
AD3F: 290F   ANDim 0F
AD41: 0A     ASLa
AD42: AA     TAX
AD43: BD60AD LDAx AD60
AD46: 8D001A STA 1A00 bs.help1
AD49: BD61AD LDAx AD61
AD4C: 8D011A STA 1A01
AD4F: 2055AD JSR AD55
AD52: 4C25AD JMP AD25
AD55: A900   LDAim 00
AD57: 85EE   STAz EE
AD59: 6C001A JMPi 1A00 bs.help1
AD5C: FFFF22 
AD5F: 33     
AD60: E0B2   CPXim B2
AD62: 44     
AD63: B2     
AD64: 68     PLA
AD65: B434   LDYz 34
AD67: 592FB5 EORy B52F
AD6A: 07     
AD6B: B55B   LDAzx 5B bs.neueZeitH
AD6D: B58C   LDAzx 8C bs.RYSave
AD6F: B52D   LDAzx 2D
AD71: 52     
AD72: 2A     ROLa
AD73: B46F   LDYz 6F
AD75: 5177   EORiy 77
AD77: 57     
AD78: 99B488 STAy 88B4
AD7B: B7     
AD7C: 44     
AD7D: 55BB   EORzx BB
AD7F: B1FF   LDAiy FF monitor.MODE
AD81: FFFFFF 
AD84: FFFF22 
AD87: 33     
AD88: AD7A03 LDA 037A
AD8B: AE7B03 LDX 037B
AD8E: 85EA   STAz EA
AD90: 86EB   STXz EB
AD92: A900   LDAim 00
AD94: 85EC   STAz EC
AD96: 85ED   STAz ED
AD98: A906   LDAim 06
AD9A: 20EF24 JSR 24EF hexedit.byteDru
AD9D: A93A   LDAim 3A
AD9F: 206324 JSR 2463 hexedit.write
ADA2: 20CE24 JSR 24CE hexedit.Blank
ADA5: A906   LDAim 06
ADA7: 20BBAE JSR AEBB
ADAA: 4CBFAD JMP ADBF
ADAD: FFFFFF 
ADB0: FFFFFF 
ADB3: FFFFFF 
ADB6: FFFFFF 
ADB9: FFFFFF 
ADBC: FF2233 
ADBF: EA     NOP
ADC0: 2016AF JSR AF16
ADC3: 20C924 JSR 24C9 hexedit.2Blanks
ADC6: A5ED   LDAz ED
ADC8: 20EF24 JSR 24EF hexedit.byteDru
ADCB: A5EC   LDAz EC
ADCD: 20EF24 JSR 24EF hexedit.byteDru
ADD0: A921   LDAim 21
ADD2: 206324 JSR 2463 hexedit.write
ADD5: 20DDAA JSR AADD
ADD8: 60     RTS
ADD9: FFFF22 
ADDC: 33     
ADDD: 20C924 JSR 24C9 hexedit.2Blanks
ADE0: 20C924 JSR 24C9 hexedit.2Blanks
ADE3: A5ED   LDAz ED
ADE5: 20EF24 JSR 24EF hexedit.byteDru
ADE8: A5EC   LDAz EC
ADEA: 20EF24 JSR 24EF hexedit.byteDru
ADED: A921   LDAim 21
ADEF: 206324 JSR 2463 hexedit.write
ADF2: 20C924 JSR 24C9 hexedit.2Blanks
ADF5: 60     RTS
ADF6: FFFFFF 
ADF9: FFFFFF 
ADFC: FFFF22 
ADFF: 33     
AE00: A905   LDAim 05
AE02: 20EF24 JSR 24EF hexedit.byteDru
AE05: A93A   LDAim 3A
AE07: 206324 JSR 2463 hexedit.write
AE0A: 20CE24 JSR 24CE hexedit.Blank
AE0D: A203   LDXim 03
AE0F: BD7A03 LDAx 037A
AE12: 95EA   STAzx EA
AE14: CA     DEX
AE15: 10F8   BPL -8>0F
AE17: A900   LDAim 00
AE19: 85EC   STAz EC
AE1B: 85ED   STAz ED
AE1D: A905   LDAim 05
AE1F: 20BBAE JSR AEBB
AE22: 203DAE JSR AE3D
AE25: 4CC3AD JMP ADC3
AE28: FFFFFF 
AE2B: FFFFFF 
AE2E: FFFFFF 
AE31: FFFFFF 
AE34: FFFFFF 
AE37: FFFFFF 
AE3A: FF2233 
AE3D: A920   LDAim 20
AE3F: A000   LDYim 00
AE41: 2C0016 BIT 1600 floppy.??
AE44: 10FB   BPL -5>41
AE46: F018   BEQ +24>60
AE48: 7016   BCS +22>60
AE4A: B1EA   LDAiy EA
AE4C: 8D0116 STA 1601 floppy.??
AE4F: C8     INY
AE50: F012   BEQ +18>64
AE52: A920   LDAim 20
AE54: 2C0016 BIT 1600 floppy.??
AE57: 10FB   BPL -5>54
AE59: D0EF   BNE -17>4A
AE5B: 84EC   STYz EC
AE5D: EA     NOP
AE5E: 60     RTS
AE5F: 33     
AE60: E6EE   INCz EE
AE62: 60     RTS
AE63: 33     
AE64: E6ED   INCz ED
AE66: E6EB   INCz EB
AE68: 4C52AE JMP AE52
AE6B: FFFFFF 
AE6E: FFFFFF 
AE71: FFFFFF 
AE74: FFFFFF 
AE77: FFFFFF 
AE7A: FFFFFF 
AE7D: FFFFFF 
AE80: FFFFFF 
AE83: FFFFFF 
AE86: FFFFFF 
AE89: FFFFFF 
AE8C: FFFFFF 
AE8F: FFFFFF 
AE92: FFFFFF 
AE95: FFFFFF 
AE98: FFFFFF 
AE9B: FFFFFF 
AE9E: FFFFFF 
AEA1: FFFFFF 
AEA4: FFFFFF 
AEA7: FFFFFF 
AEAA: FFFFFF 
AEAD: FFFFFF 
AEB0: FFFFFF 
AEB3: FFFFFF 
AEB6: FFFFFF 
AEB9: 22     
AEBA: 33     
AEBB: 0D6803 ORA 0368
AEBE: 2069AC JSR AC69
AEC1: AD6E03 LDA 036E
AEC4: 0A     ASLa
AEC5: 0A     ASLa
AEC6: 0D6903 ORA 0369
AEC9: 2069AC JSR AC69
AECC: A26D   LDXim 6D
AECE: A007   LDYim 07
AED0: 2000AD JSR AD00
AED3: 60     RTS
AED4: FFFFFF 
AED7: FFFFFF 
AEDA: FFFFFF 
AEDD: FFFFFF 
AEE0: FFFFFF 
AEE3: A900   LDAim 00
AEE5: 85EC   STAz EC
AEE7: 85ED   STAz ED
AEE9: 60     RTS
AEEA: FFFF22 
AEED: 33     
AEEE: A902   LDAim 02
AEF0: 20EF24 JSR 24EF hexedit.byteDru
AEF3: A93A   LDAim 3A
AEF5: 206324 JSR 2463 hexedit.write
AEF8: 20CE24 JSR 24CE hexedit.Blank
AEFB: A203   LDXim 03
AEFD: BD7A03 LDAx 037A
AF00: 95EA   STAzx EA
AF02: CA     DEX
AF03: 10F8   BPL -8>FD
AF05: 20E3AE JSR AEE3
AF08: AD7403 LDA 0374
AF0B: 8D7103 STA 0371
AF0E: A902   LDAim 02
AF10: 20BBAE JSR AEBB
AF13: 60     RTS
AF14: 22     
AF15: 33     
AF16: A920   LDAim 20
AF18: A000   LDYim 00
AF1A: 2C0016 BIT 1600 floppy.??
AF1D: 10FB   BPL -5>1A
AF1F: F021   BEQ +33>42
AF21: 501F   BVC +31>42
AF23: AD0116 LDA 1601 floppy.??
AF26: 91EA   STAiy EA
AF28: C8     INY
AF29: F01A   BEQ +26>45
AF2B: A920   LDAim 20
AF2D: 2C0016 BIT 1600 floppy.??
AF30: 10FB   BPL -5>2D
AF32: D0EF   BNE -17>23
AF34: 84EC   STYz EC
AF36: 60     RTS
AF37: FFFFFF 
AF3A: FFFFFF 
AF3D: FFFFFF 
AF40: 22     
AF41: 33     
AF42: E6EE   INCz EE
AF44: 60     RTS
AF45: E6ED   INCz ED
AF47: E6EB   INCz EB
AF49: 4C2BAF JMP AF2B
AF4C: FFFFFF 
AF4F: FFFFFF 
AF52: FFFFFF 
AF55: FFFFFF 
AF58: FFFFFF 
AF5B: FFFFFF 
AF5E: FFFFFF 
AF61: FFFFFF 
AF64: FFFFFF 
AF67: FFFFFF 
AF6A: FFFFFF 
AF6D: FFFFFF 
AF70: FFFFFF 
AF73: FFFF22 
AF76: 33     
AF77: 20EEAE JSR AEEE
AF7A: 2016AF JSR AF16
AF7D: 20C924 JSR 24C9 hexedit.2Blanks
AF80: A5ED   LDAz ED
AF82: 20EF24 JSR 24EF hexedit.byteDru
AF85: A5EC   LDAz EC
AF87: 20EF24 JSR 24EF hexedit.byteDru
AF8A: A921   LDAim 21
AF8C: 206324 JSR 2463 hexedit.write
AF8F: 20C924 JSR 24C9 hexedit.2Blanks
AF92: 20DDAA JSR AADD
AF95: 60     RTS
AF96: FFFFFF 
AF99: FFFFFF 
AF9C: FFFFFF 
AF9F: FFFFFF 
AFA2: FFFFFF 
AFA5: FFFFFF 
AFA8: FFFFFF 
AFAB: FFFFFF 
AFAE: FFFFFF 
AFB1: FFFFFF 
AFB4: FFFFFF 
AFB7: FFFF22 
AFBA: 33     
AFBB: 206624 JSR 2466 hexedit.openOutVideo
AFBE: AD7A03 LDA 037A
AFC1: AE7B03 LDX 037B
AFC4: 85EA   STAz EA
AFC6: 86EB   STXz EB
AFC8: 20C924 JSR 24C9 hexedit.2Blanks
AFCB: A5ED   LDAz ED
AFCD: 20EF24 JSR 24EF hexedit.byteDru
AFD0: A5EC   LDAz EC
AFD2: 20EF24 JSR 24EF hexedit.byteDru
AFD5: 20D424 JSR 24D4 hexedit.CR
AFD8: A900   LDAim 00
AFDA: 8507   STAz 07
AFDC: A5EB   LDAz EB
AFDE: 8509   STAz 09
AFE0: A507   LDAz 07
AFE2: 20EF24 JSR 24EF hexedit.byteDru
AFE5: A93A   LDAim 3A
AFE7: 206324 JSR 2463 hexedit.write
AFEA: 20CE24 JSR 24CE hexedit.Blank
AFED: A000   LDYim 00
AFEF: 8408   STYz 08
AFF1: 2055B0 JSR B055
AFF4: E608   INCz 08
AFF6: A408   LDYz 08
AFF8: C010   CPYim 10
AFFA: D0F5   BNE -11>F1
AFFC: 20CE24 JSR 24CE hexedit.Blank
AFFF: A0F8   LDYim F8
B001: 8408   STYz 08
B003: 2055B0 JSR B055
B006: E608   INCz 08
B008: A408   LDYz 08
B00A: D0F7   BNE -9>03
B00C: 20D424 JSR 24D4 hexedit.CR
B00F: E607   INCz 07
B011: E609   INCz 09
B013: A507   LDAz 07
B015: C5ED   CMPz ED
B017: D0C7   BNE -57>E0
B019: A92A   LDAim 2A
B01B: 206324 JSR 2463 hexedit.write
B01E: 60     RTS
B01F: FF2233 
B022: 206624 JSR 2466 hexedit.openOutVideo
B025: 205451 JSR 5154
B028: 2011AB JSR AB11
B02B: 20D424 JSR 24D4 hexedit.CR
B02E: 20BEAF JSR AFBE
B031: 60     RTS
B032: FFFFFF 
B035: FFFFFF 
B038: FFFFFF 
B03B: FFFFFF 
B03E: FFFFFF 
B041: FFFFFF 
B044: FFFFFF 
B047: FFFFFF 
B04A: FFFFFF 
B04D: FFFFFF 
B050: FFFFFF 
B053: 22     
B054: 33     
B055: A000   LDYim 00
B057: B108   LDAiy 08
B059: C940   CMPim 40
B05B: D010   BNE +16>6D
B05D: 20CE24 JSR 24CE hexedit.Blank
B060: A92E   LDAim 2E
B062: 206324 JSR 2463 hexedit.write
B065: 20CE24 JSR 24CE hexedit.Blank
B068: 60     RTS
B069: FFFF22 
B06C: 33     
B06D: 20EF24 JSR 24EF hexedit.byteDru
B070: 20CE24 JSR 24CE hexedit.Blank
B073: 60     RTS
B074: FFFFFF 
B077: FFFFFF 
B07A: FFFFFF 
B07D: FFFFFF 
B080: FFFFFF 
B083: FFFFFF 
B086: 22     
B087: 33     
B088: A90A   LDAim 0A
B08A: 20EF24 JSR 24EF hexedit.byteDru
B08D: A90A   LDAim 0A
B08F: 0D6803 ORA 0368
B092: 2069AC JSR AC69
B095: AD6E03 LDA 036E
B098: 0A     ASLa
B099: 0A     ASLa
B09A: 0D6903 ORA 0369
B09D: 2069AC JSR AC69
B0A0: 20DDAA JSR AADD
B0A3: 60     RTS
B0A4: FFFFFF 
B0A7: FF2233 
B0AA: A90F   LDAim 0F
B0AC: 20EF24 JSR 24EF hexedit.byteDru
B0AF: A92E   LDAim 2E
B0B1: 206324 JSR 2463 hexedit.write
B0B4: A90F   LDAim 0F
B0B6: 2069AC JSR AC69
B0B9: AD6E03 LDA 036E
B0BC: 0A     ASLa
B0BD: 0A     ASLa
B0BE: 0D6903 ORA 0369
B0C1: 2069AC JSR AC69
B0C4: AD6D03 LDA 036D
B0C7: 2069AC JSR AC69
B0CA: 60     RTS
B0CB: FFFFFF 
B0CE: FFFFFF 
B0D1: FFFFFF 
B0D4: FFFFFF 
B0D7: FFFFFF 
B0DA: 00     BRK
B0DB: 22     
B0DC: 33     
B0DD: 203821 JSR 2138 drucker.writeplus
B0E0: 07     
B0E1: 466F   LSRz 6F
B0E3: 72     
B0E4: 6D6174 ADC 7461
B0E7: 20EAEA JSR EAEA
B0EA: 20F0AB JSR ABF0
B0ED: 2C0016 BIT 1600 floppy.??
B0F0: 10FB   BPL -5>ED
B0F2: AD0116 LDA 1601 floppy.??
B0F5: 29E0   ANDim E0
B0F7: C920   CMPim 20
B0F9: F003   BEQ +3>FE
B0FB: E6EE   INCz EE
B0FD: 60     RTS
B0FE: 20BAAB JSR ABBA
B101: A900   LDAim 00
B103: 8D6D03 STA 036D
B106: 20FAB1 JSR B1FA
B109: A900   LDAim 00
B10B: 8D6E03 STA 036E
B10E: 2081AC JSR AC81
B111: 2058B1 JSR B158
B114: EE6E03 INC 036E
B117: 2081AC JSR AC81
B11A: 2058B1 JSR B158
B11D: EE6D03 INC 036D
B120: EA     NOP
B121: EA     NOP
B122: EA     NOP
B123: EA     NOP
B124: EA     NOP
B125: EA     NOP
B126: AE6D03 LDX 036D
B129: EA     NOP
B12A: EC7703 CPX 0377
B12D: D0D7   BNE -41>06
B12F: 20BAAB JSR ABBA
B132: 60     RTS
B133: FFFFFF 
B136: FFFFFF 
B139: FFFFFF 
B13C: FFFFFF 
B13F: FFFFFF 
B142: FFFFFF 
B145: FFFFFF 
B148: FFFFFF 
B14B: FFFFFF 
B14E: FFFFFF 
B151: FFFFFF 
B154: FFFF22 
B157: 33     
B158: AD6A03 LDA 036A
B15B: 29C0   ANDim C0
B15D: F007   BEQ +7>66
B15F: 202BAB JSR AB2B
B162: E6EE   INCz EE
B164: 68     PLA
B165: 68     PLA
B166: 60     RTS
B167: FFFFFF 
B16A: FFFFFF 
B16D: FFFFFF 
B170: FFFFFF 
B173: FFFFFF 
B176: FFFFFF 
B179: FFFFFF 
B17C: FFFFFF 
B17F: FFFFFF 
B182: FFFFFF 
B185: FF2233 
B188: 20B4B0 JSR B0B4
B18B: A920   LDAim 20
B18D: 2C0016 BIT 1600 floppy.??
B190: D0FB   BNE -5>8D
B192: A908   LDAim 08
B194: 2069AC JSR AC69
B197: 2C0016 BIT 1600 floppy.??
B19A: 10FB   BPL -5>97
B19C: 5009   BVC +9>A7
B19E: AD0116 LDA 1601 floppy.??
B1A1: 20EF24 JSR 24EF hexedit.byteDru
B1A4: 18     CLC
B1A5: 90F0   BCC -16>97
B1A7: 20CE24 JSR 24CE hexedit.Blank
B1AA: 60     RTS
B1AB: FFFFFF 
B1AE: FFFFFF 
B1B1: FFFFFF 
B1B4: FFFFFF 
B1B7: FFFF22 
B1BA: 33     
B1BB: 203821 JSR 2138 drucker.writeplus
B1BE: 0553   ORAz 53
B1C0: 6565   ADCz 65
B1C2: 6B     
B1C3: 20EAEA JSR EAEA
B1C6: 206024 JSR 2460 hexedit.read
B1C9: C93A   CMPim 3A
B1CB: 9002   BCC +2>CF
B1CD: E907   SBCim 07
B1CF: 290F   ANDim 0F
B1D1: 0A     ASLa
B1D2: 0A     ASLa
B1D3: 0A     ASLa
B1D4: 0A     ASLa
B1D5: 85EA   STAz EA
B1D7: 206024 JSR 2460 hexedit.read
B1DA: C93A   CMPim 3A
B1DC: 9002   BCC +2>E0
B1DE: E907   SBCim 07
B1E0: 290F   ANDim 0F
B1E2: 05EA   ORAz EA
B1E4: 8D6D03 STA 036D
B1E7: 20EF24 JSR 24EF hexedit.byteDru
B1EA: 206024 JSR 2460 hexedit.read
B1ED: 2901   ANDim 01
B1EF: 8D6E03 STA 036E
B1F2: 20E224 JSR 24E2 hexedit.Nibble
B1F5: A93A   LDAim 3A
B1F7: 206324 JSR 2463 hexedit.write
B1FA: 4C4D52 JMP 524D
B1FD: 201BAC JSR AC1B
B200: CA     DEX
B201: F0FA   BEQ -6>FD
B203: E8     INX
B204: A8     TAY
B205: AD6A03 LDA 036A
B208: 2920   ANDim 20
B20A: F0F1   BEQ -15>FD
B20C: 98     TYA
B20D: 60     RTS
B20E: FFFFFF 
B211: FFFFFF 
B214: FFFF22 
B217: 33     
B218: 40     RTI
B219: 00     BRK
B21A: 00     BRK
B21B: 00     BRK
B21C: 00     BRK
B21D: 00     BRK
B21E: 00     BRK
B21F: 0101   ORAix 01
B221: 1020   BPL +32>43
B223: FF1032 
B226: 40     RTI
B227: 50EF   BVC -17>18
B229: 13     
B22A: 00     BRK
B22B: 9000   BCC +0>2D
B22D: 10FF   BPL -1>2E
B22F: FFFF22 
B232: 33     
B233: A215   LDXim 15
B235: BD18B2 LDAx B218
B238: 9D6803 STAx 0368
B23B: CA     DEX
B23C: 10F7   BPL -9>35
B23E: 60     RTS
B23F: FFFFFF 
B242: 22     
B243: 33     
B244: A901   LDAim 01
B246: D002   BNE +2>4A
B248: A900   LDAim 00
B24A: 8D2016 STA 1620
B24D: A94D   LDAim 4D
B24F: 206324 JSR 2463 hexedit.write
B252: 60     RTS
B253: FFFFFF 
B256: FFFFFF 
B259: FFFFFF 
B25C: FFFF22 
B25F: 33     
B260: 206024 JSR 2460 hexedit.read
B263: C93A   CMPim 3A
B265: 9002   BCC +2>69
B267: E907   SBCim 07
B269: 290F   ANDim 0F
B26B: 60     RTS
B26C: 2060B2 JSR B260
B26F: 0A     ASLa
B270: 0A     ASLa
B271: 0A     ASLa
B272: 0A     ASLa
B273: 85EA   STAz EA
B275: 2060B2 JSR B260
B278: 05EA   ORAz EA
B27A: 85EA   STAz EA
B27C: 20EF24 JSR 24EF hexedit.byteDru
B27F: A5EA   LDAz EA
B281: 60     RTS
B282: FFFFFF 
B285: FFFFFF 
B288: FFFFFF 
B28B: FFFFFF 
B28E: FFFFFF 
B291: FF2233 
B294: 206CB2 JSR B26C
B297: A200   LDXim 00
B299: 8E7A03 STX 037A
B29C: 8D7B03 STA 037B
B29F: 60     RTS
B2A0: FFFFFF 
B2A3: FFFFFF 
B2A6: FFFFFF 
B2A9: FFFFFF 
B2AC: FFFFFF 
B2AF: FF2233 
B2B2: A901   LDAim 01
B2B4: D002   BNE +2>B8
B2B6: A900   LDAim 00
B2B8: 8D6303 STA 0363
B2BB: 20CE24 JSR 24CE hexedit.Blank
B2BE: 2060B2 JSR B260
B2C1: 8D2B03 STA 032B
B2C4: 20E224 JSR 24E2 hexedit.Nibble
B2C7: 206CB2 JSR B26C
B2CA: 8D2A03 STA 032A
B2CD: 20D653 JSR 53D6
B2D0: 60     RTS
B2D1: FFFFFF 
B2D4: FFFFFF 
B2D7: FFFFFF 
B2DA: FFFFFF 
B2DD: FF2233 
B2E0: 2060B2 JSR B260
B2E3: 2907   ANDim 07
B2E5: 8D2303 STA 0323
B2E8: 206624 JSR 2466 hexedit.openOutVideo
B2EB: 20C924 JSR 24C9 hexedit.2Blanks
B2EE: AD2303 LDA 0323
B2F1: 20E224 JSR 24E2 hexedit.Nibble
B2F4: 20C924 JSR 24C9 hexedit.2Blanks
B2F7: AC2303 LDY 0323
B2FA: 200D56 JSR 560D
B2FD: A5EB   LDAz EB
B2FF: 20EF24 JSR 24EF hexedit.byteDru
B302: A5EA   LDAz EA
B304: 20EF24 JSR 24EF hexedit.byteDru
B307: 20C924 JSR 24C9 hexedit.2Blanks
B30A: AD2303 LDA 0323
B30D: 0A     ASLa
B30E: AA     TAX
B30F: 48     PHA
B310: BD4F03 LDAx 034F
B313: 48     PHA
B314: 0A     ASLa
B315: A918   LDAim 18
B317: 2A     ROLa
B318: 206324 JSR 2463 hexedit.write
B31B: 20CE24 JSR 24CE hexedit.Blank
B31E: 68     PLA
B31F: 297F   ANDim 7F
B321: 20EF24 JSR 24EF hexedit.byteDru
B324: 68     PLA
B325: AA     TAX
B326: BD4E03 LDAx 034E
B329: 20EF24 JSR 24EF hexedit.byteDru
B32C: 20C924 JSR 24C9 hexedit.2Blanks
B32F: AD3203 LDA 0332
B332: 20E224 JSR 24E2 hexedit.Nibble
B335: 20CE24 JSR 24CE hexedit.Blank
B338: 200A56 JSR 560A
B33B: 20A15C JSR 5CA1
B33E: 48     PHA
B33F: A000   LDYim 00
B341: B1EA   LDAiy EA
B343: 9900A9 STAy A900
B346: C8     INY
B347: D0F8   BNE -8>41
B349: 68     PLA
B34A: 8DF8FF STA FFF8 bios.flag EPROM lo
B34D: 8D081A STA 1A08 bs.param.ROMStatusMaster
B350: 206FB3 JSR B36F
B353: 20D424 JSR 24D4 hexedit.CR
B356: 60     RTS
B357: FFFFFF 
B35A: FFFFFF 
B35D: FFFFFF 
B360: FFFFFF 
B363: FFFFFF 
B366: FFFFFF 
B369: FFFFFF 
B36C: FF2233 
B36F: A900   LDAim 00
B371: A2A9   LDXim A9
B373: 85EA   STAz EA
B375: 86EB   STXz EB
B377: A9FF   LDAim FF
B379: 85EC   STAz EC
B37B: 20D424 JSR 24D4 hexedit.CR
B37E: E6EC   INCz EC
B380: 20D424 JSR 24D4 hexedit.CR
B383: A5EC   LDAz EC
B385: 20E224 JSR 24E2 hexedit.Nibble
B388: A93A   LDAim 3A
B38A: 206324 JSR 2463 hexedit.write
B38D: 20C924 JSR 24C9 hexedit.2Blanks
B390: A000   LDYim 00
B392: B1EA   LDAiy EA
B394: 20EF24 JSR 24EF hexedit.byteDru
B397: 20CE24 JSR 24CE hexedit.Blank
B39A: E6EA   INCz EA
B39C: A5EA   LDAz EA
B39E: EA     NOP
B39F: EA     NOP
B3A0: 290F   ANDim 0F
B3A2: F01A   BEQ +26>BE
B3A4: 2907   ANDim 07
B3A6: D0E8   BNE -24>90
B3A8: 20CE24 JSR 24CE hexedit.Blank
B3AB: 18     CLC
B3AC: 90E2   BCC -30>90
B3AE: FFFFFF 
B3B1: FFFFFF 
B3B4: FFFFFF 
B3B7: FFFFFF 
B3BA: FFFF22 
B3BD: 33     
B3BE: 20C924 JSR 24C9 hexedit.2Blanks
B3C1: 20C924 JSR 24C9 hexedit.2Blanks
B3C4: 38     SEC
B3C5: A5EA   LDAz EA
B3C7: E910   SBCim 10
B3C9: 85EA   STAz EA
B3CB: EA     NOP
B3CC: EA     NOP
B3CD: EA     NOP
B3CE: EA     NOP
B3CF: A000   LDYim 00
B3D1: B1EA   LDAiy EA
B3D3: C920   CMPim 20
B3D5: B002   BCS +2>D9
B3D7: A92E   LDAim 2E
B3D9: 206324 JSR 2463 hexedit.write
B3DC: E6EA   INCz EA
B3DE: A5EA   LDAz EA
B3E0: F00E   BEQ +14>F0
B3E2: 290F   ANDim 0F
B3E4: F098   BEQ -104>7E
B3E6: 2907   ANDim 07
B3E8: D003   BNE +3>ED
B3EA: 20CE24 JSR 24CE hexedit.Blank
B3ED: 18     CLC
B3EE: 90DF   BCC -33>CF
B3F0: 60     RTS
B3F1: FFFFFF 
B3F4: FFFFFF 
B3F7: FFFFFF 
B3FA: FFFFFF 
B3FD: FFFFFF 
B400: FFFFFF 
B403: FFFFFF 
B406: FFFFFF 
B409: FFFFFF 
B40C: FFFFFF 
B40F: FFFFFF 
B412: FFFFFF 
B415: FFFFFF 
B418: FFFFFF 
B41B: FFFFFF 
B41E: FFFFFF 
B421: FFFFFF 
B424: FFFFFF 
B427: FF2233 
B42A: 203821 JSR 2138 drucker.writeplus
B42D: 08     PHP
B42E: 207374 JSR 7473
B431: 6174   ADCix 74
B433: 7573   ADCzx 73
B435: 20EAEA JSR EAEA
B438: 2060B2 JSR B260
B43B: 2907   ANDim 07
B43D: 8D2303 STA 0323
B440: 48     PHA
B441: 20E224 JSR 24E2 hexedit.Nibble
B444: 206CB2 JSR B26C
B447: A8     TAY
B448: 68     PLA
B449: 0A     ASLa
B44A: 48     PHA
B44B: AA     TAX
B44C: 98     TYA
B44D: 9D4F03 STAx 034F
B450: 206CB2 JSR B26C
B453: A8     TAY
B454: 68     PLA
B455: AA     TAX
B456: 98     TYA
B457: 9D4E03 STAx 034E
B45A: 20CE24 JSR 24CE hexedit.Blank
B45D: A201   LDXim 01
B45F: 60     RTS
B460: FFFFFF 
B463: FFFFFF 
B466: 22     
B467: 33     
B468: 203821 JSR 2138 drucker.writeplus
B46B: 0620   ASLz 20
B46D: 68     PLA
B46E: 6F     
B46F: 6C20EA JMPi EA20
B472: EA     NOP
B473: 2060B2 JSR B260
B476: 2907   ANDim 07
B478: 8D2303 STA 0323
B47B: 20E224 JSR 24E2 hexedit.Nibble
B47E: 20CE24 JSR 24CE hexedit.Blank
B481: 2060B2 JSR B260
B484: 290F   ANDim 0F
B486: 8D1903 STA 0319
B489: 206CB2 JSR B26C
B48C: 8D1803 STA 0318
B48F: 206B55 JSR 556B
B492: A207   LDXim 07
B494: 60     RTS
B495: FFFF22 
B498: 33     
B499: 203821 JSR 2138 drucker.writeplus
B49C: 0920   ORAim 20
B49E: 6E6577 ROR 7765
B4A1: 6669   RORz 69
B4A3: 6C6520 JMPi 2065
B4A6: EA     NOP
B4A7: EA     NOP
B4A8: A200   LDXim 00
B4AA: 86EA   STXz EA
B4AC: 206024 JSR 2460 hexedit.read
B4AF: 48     PHA
B4B0: 206324 JSR 2463 hexedit.write
B4B3: 68     PLA
B4B4: C980   CMPim 80
B4B6: B010   BCS +16>C8
B4B8: C920   CMPim 20
B4BA: 900C   BCC +12>C8
B4BC: A6EA   LDXz EA
B4BE: 9DD802 STAx 02D8
B4C1: E8     INX
B4C2: E020   CPXim 20
B4C4: 90E4   BCC -28>AA
B4C6: B004   BCS +4>CC
B4C8: A6EA   LDXz EA
B4CA: F00D   BEQ +13>D9
B4CC: A920   LDAim 20
B4CE: 9DD802 STAx 02D8
B4D1: E8     INX
B4D2: E020   CPXim 20
B4D4: 90F8   BCC -8>CE
B4D6: EA     NOP
B4D7: EA     NOP
B4D8: EA     NOP
B4D9: 20FE5B JSR 5BFE
B4DC: A002   LDYim 02
B4DE: 200D56 JSR 560D
B4E1: 20A15C JSR 5CA1
B4E4: 48     PHA
B4E5: A000   LDYim 00
B4E7: B1EA   LDAiy EA
B4E9: AA     TAX
B4EA: 68     PLA
B4EB: 8D081A STA 1A08 bs.param.ROMStatusMaster
B4EE: 8DF8FF STA FFF8 bios.flag EPROM lo
B4F1: 8A     TXAa
B4F2: 206324 JSR 2463 hexedit.write
B4F5: E6EA   INCz EA
B4F7: A4EA   LDYz EA
B4F9: C020   CPYim 20
B4FB: 90E4   BCC -28>E1
B4FD: AD1C03 LDA 031C
B500: 85EE   STAz EE
B502: A207   LDXim 07
B504: 60     RTS
B505: 22     
B506: 33     
B507: 203821 JSR 2138 drucker.writeplus
B50A: 0620   ASLz 20
B50C: 73     
B50D: 6176   ADCix 76
B50F: 6520   ADCz 20
B511: EA     NOP
B512: EA     NOP
B513: A002   LDYim 02
B515: 200D56 JSR 560D
B518: 200061 JSR 6100
B51B: AD1C03 LDA 031C
B51E: 85EE   STAz EE
B520: A207   LDXim 07
B522: 60     RTS
B523: FFFFFF 
B526: FFFFFF 
B529: FFFFFF 
B52C: FF2233 
B52F: 203821 JSR 2138 drucker.writeplus
B532: 0620   ASLz 20
B534: 6C6F61 JMPi 616F
B537: 64     
B538: 20EAEA JSR EAEA
B53B: 204E60 JSR 604E
B53E: A900   LDAim 00
B540: 8D5603 STA 0356
B543: 8D5703 STA 0357
B546: A207   LDXim 07
B548: 60     RTS
B549: FFFFFF 
B54C: FFFFFF 
B54F: FFFFFF 
B552: FFFFFF 
B555: FFFFFF 
B558: FF2233 
B55B: 203821 JSR 2138 drucker.writeplus
B55E: 08     PHP
B55F: 207665 JSR 6576
B562: 72     
B563: 6966   ADCim 66
B565: 7920EA ADCy EA20
B568: EA     NOP
B569: 205260 JSR 6052
B56C: A900   LDAim 00
B56E: 8D5603 STA 0356
B571: 8D5703 STA 0357
B574: A207   LDXim 07
B576: 60     RTS
B577: FFFFFF 
B57A: FFFFFF 
B57D: FFFFFF 
B580: FFFFFF 
B583: FFFFFF 
B586: FFFFFF 
B589: FF2233 
B58C: 203821 JSR 2138 drucker.writeplus
B58F: 07     
B590: 20636C JSR 6C63
B593: 6561   ADCz 61
B595: 72     
B596: 20EAEA JSR EAEA
B599: 20215E JSR 5E21
B59C: A207   LDXim 07
B59E: 60     RTS
B59F: FFFFFF 
B5A2: FFFFFF 
B5A5: FFFF22 
B5A8: 33     
B5A9: A220   LDXim 20
B5AB: 86EC   STXz EC
B5AD: A000   LDYim 00
B5AF: 205BB6 JSR B65B
B5B2: C920   CMPim 20
B5B4: F00A   BEQ +10>C0
B5B6: 206324 JSR 2463 hexedit.write
B5B9: E6EA   INCz EA
B5BB: C6EC   DECz EC
B5BD: D0EE   BNE -18>AD
B5BF: EA     NOP
B5C0: A923   LDAim 23
B5C2: 8598   STAz 98 hexedit.videoSpa
B5C4: 20FD22 JSR 22FD hexedit.cursAdrSql
B5C7: A900   LDAim 00
B5C9: 85EA   STAz EA
B5CB: 60     RTS
B5CC: FFFF22 
B5CF: 33     
B5D0: A003   LDYim 03
B5D2: 84EC   STYz EC
B5D4: 86EA   STXz EA
B5D6: A000   LDYim 00
B5D8: 205BB6 JSR B65B
B5DB: 20EF24 JSR 24EF hexedit.byteDru
B5DE: A6EA   LDXz EA
B5E0: E8     INX
B5E1: C6EC   DECz EC
B5E3: D0EF   BNE -17>D4
B5E5: 20C924 JSR 24C9 hexedit.2Blanks
B5E8: A900   LDAim 00
B5EA: 85EA   STAz EA
B5EC: 60     RTS
B5ED: FFFFFF 
B5F0: FFFFFF 
B5F3: 22     
B5F4: 33     
B5F5: A003   LDYim 03
B5F7: 84EC   STYz EC
B5F9: 86EA   STXz EA
B5FB: A000   LDYim 00
B5FD: 205BB6 JSR B65B
B600: 20EF24 JSR 24EF hexedit.byteDru
B603: A6EA   LDXz EA
B605: CA     DEX
B606: C6EC   DECz EC
B608: D0EF   BNE -17>F9
B60A: 20C924 JSR 24C9 hexedit.2Blanks
B60D: A900   LDAim 00
B60F: 85EA   STAz EA
B611: 60     RTS
B612: FFFFFF 
B615: 22     
B616: 33     
B617: 20D424 JSR 24D4 hexedit.CR
B61A: A599   LDAz 99 hexedit.video2
B61C: D003   BNE +3>21
B61E: 206024 JSR 2460 hexedit.read
B621: A002   LDYim 02
B623: 200D56 JSR 560D
B626: 20A9B5 JSR B5A9
B629: A020   LDYim 20
B62B: 205BB6 JSR B65B
B62E: 20E224 JSR 24E2 hexedit.Nibble
B631: 20C924 JSR 24C9 hexedit.2Blanks
B634: A223   LDXim 23
B636: 20F5B5 JSR B5F5
B639: A226   LDXim 26
B63B: 20F5B5 JSR B5F5
B63E: A227   LDXim 27
B640: 20D0B5 JSR B5D0
B643: A22A   LDXim 2A
B645: 20D0B5 JSR B5D0
B648: A22E   LDXim 2E
B64A: A002   LDYim 02
B64C: 20F7B5 JSR B5F7
B64F: 60     RTS
B650: FFFFFF 
B653: FFFFFF 
B656: FFFFFF 
B659: 22     
B65A: 33     
B65B: A900   LDAim 00
B65D: 8DF8FF STA FFF8 bios.flag EPROM lo
B660: B1EA   LDAiy EA
B662: AE081A LDX 1A08 bs.param.ROMStatusMaster
B665: 8EF8FF STX FFF8 bios.flag EPROM lo
B668: 60     RTS
B669: 33     
B66A: FF0002 
B66D: 202020 JSR 2020
B670: 206669 JSR 6966
B673: 6C656E JMPi 6E65
B676: 616D   ADCix 6D hexedit.spaTty
B678: 6500   ADCz 00
B67A: 00     BRK
B67B: 00     BRK
B67C: 00     BRK
B67D: 00     BRK
B67E: 00     BRK
B67F: 00     BRK
B680: 00     BRK
B681: 00     BRK
B682: 00     BRK
B683: 00     BRK
B684: 00     BRK
B685: 00     BRK
B686: 00     BRK
B687: 00     BRK
B688: 00     BRK
B689: 00     BRK
B68A: 00     BRK
B68B: 00     BRK
B68C: 00     BRK
B68D: 00     BRK
B68E: 00     BRK
B68F: 74     
B690: 797000 ADCy 0070
B693: 6162   ADCix 62
B695: 73     
B696: 6F     
B697: 6C7574 JMPi 7475
B69A: 206C61 JSR 616C
B69D: 656E   ADCz 6E hexedit.zeiTty
B69F: 67     
B6A0: 6520   ADCz 20
B6A2: 206572 JSR 7265
B6A5: 7A     
B6A6: 6575   ADCz 75
B6A8: 67     
B6A9: 74     
B6AA: 206265 JSR 6562
B6AD: 6E7574 ROR 7475
B6B0: 7A     
B6B1: 74     
B6B2: 207365 JSR 6573
B6B5: 63     
B6B6: 202020 JSR 2020
B6B9: 2D2D2D AND 2D2D
B6BC: 2D2045 AND 4520
B6BF: 6E6465 ROR 6564
B6C2: 202D2D JSR 2D2D
B6C5: 2D2D1D AND 1D2D
B6C8: 03     
B6C9: FFFFFF 
B6CC: FFFFFF 
B6CF: FFFFFF 
B6D2: FF2233 
B6D5: 206624 JSR 2466 hexedit.openOutVideo
B6D8: A000   LDYim 00
B6DA: 200D56 JSR 560D
B6DD: 20A9B5 JSR B5A9
B6E0: A020   LDYim 20
B6E2: 205BB6 JSR B65B
B6E5: 20E224 JSR 24E2 hexedit.Nibble
B6E8: 20C924 JSR 24C9 hexedit.2Blanks
B6EB: A222   LDXim 22
B6ED: 20D0B5 JSR B5D0
B6F0: A22A   LDXim 2A
B6F2: A002   LDYim 02
B6F4: 20F7B5 JSR B5F7
B6F7: 203821 JSR 2138 drucker.writeplus
B6FA: 07     
B6FB: 6672   RORz 72
B6FD: 6569   ADCz 69
B6FF: 3B     
B700: 2020EA JSR EA20
B703: EA     NOP
B704: A02B   LDYim 2B
B706: 205BB6 JSR B65B
B709: 20EF24 JSR 24EF hexedit.byteDru
B70C: 203821 JSR 2138 drucker.writeplus
B70F: 0620   ASLz 20
B711: 6669   RORz 69
B713: 6C6573 JMPi 7365
B716: EA     NOP
B717: EA     NOP
B718: 60     RTS
B719: FFFFFF 
B71C: FFFFFF 
B71F: FFFFFF 
B722: FFFFFF 
B725: FFFFFF 
B728: FF2233 
B72B: 20D5B6 JSR B6D5
B72E: 200325 JSR 2503 hexedit.lwriteVonBis
B731: 6DB6B5 ADC B5B6
B734: B6EA   LDXzy EA
B736: EA     NOP
B737: 20A15C JSR 5CA1
B73A: 48     PHA
B73B: A200   LDXim 00
B73D: F004   BEQ +4>43
B73F: AE1E03 LDX 031E
B742: E8     INX
B743: 8E1E03 STX 031E
B746: EC2B20 CPX 202B
B749: F01C   BEQ +28>67
B74B: 207C59 JSR 597C
B74E: A902   LDAim 02
B750: 8D2303 STA 0323
B753: 206B55 JSR 556B
B756: 68     PLA
B757: 8D081A STA 1A08 bs.param.ROMStatusMaster
B75A: 8DF8FF STA FFF8 bios.flag EPROM lo
B75D: 2017B6 JSR B617
B760: 20A15C JSR 5CA1
B763: 48     PHA
B764: 18     CLC
B765: 90D8   BCC -40>3F
B767: 68     PLA
B768: 8D081A STA 1A08 bs.param.ROMStatusMaster
B76B: 8DF8FF STA FFF8 bios.flag EPROM lo
B76E: 200325 JSR 2503 hexedit.lwriteVonBis
B771: B6B6   LDXzy B6
B773: C6B6   DECz B6
B775: EA     NOP
B776: EA     NOP
B777: 60     RTS
B778: FFFFFF 
B77B: FFFFFF 
B77E: FFFFFF 
B781: FFFFFF 
B784: FFFF22 
B787: 33     
B788: A901   LDAim 01
B78A: 8D081A STA 1A08 bs.param.ROMStatusMaster
B78D: 202BB7 JSR B72B
B790: A901   LDAim 01
B792: 8D2016 STA 1620
B795: A207   LDXim 07
B797: 60     RTS
B798: FFFFFF 
B79B: FFFFFF 
B79E: FFFFFF 
B7A1: FFFFFF 
B7A4: FFFFFF 
B7A7: FFFFFF 
B7AA: FFFFFF 
B7AD: FFFFFF 
B7B0: FFFFFF 
B7B3: FFFFFF 
B7B6: FFFFFF 
B7B9: FFFFFF 
B7BC: FFFFFF 
B7BF: FFFFFF 
B7C2: FFFFFF 
B7C5: FFFFFF 
B7C8: FFFFFF 
B7CB: FFFFFF 
B7CE: FFFFFF 
B7D1: FFFFFF 
B7D4: FFFFFF 
B7D7: FFFFFF 
B7DA: FFFFFF 
B7DD: FFFFFF 
B7E0: FFFFFF 
B7E3: FFFFFF 
B7E6: FFFFFF 
B7E9: FFFFFF 
B7EC: FFFFFF 
B7EF: FFFFFF 
B7F2: FFFFFF 
B7F5: FFFFFF 
B7F8: FFFFFF 
B7FB: FFFFFF 
B7FE: FFFFFF 
B801: FFFFFF 
B804: FFFFFF 
B807: FFFFFF 
B80A: FFFFFF 
B80D: FFFFFF 
B810: FFFFFF 
B813: FFFFFF 
B816: FFFFFF 
B819: FFFFFF 
B81C: FFFFFF 
B81F: FFFFFF 
B822: FFFFFF 
B825: FFFFFF 
B828: FFFFFF 
B82B: FFFFFF 
B82E: FFFFFF 
B831: FFFFFF 
B834: FFFFFF 
B837: FFFFFF 
B83A: FFFFFF 
B83D: FFFFFF 
B840: FFFFFF 
B843: FFFFFF 
B846: FFFFFF 
B849: FFFFFF 
B84C: FFFFFF 
B84F: FFFFFF 
B852: FFFFFF 
B855: FFFFFF 
B858: FFFFFF 
B85B: FFFFFF 
B85E: FFFFFF 
B861: FFFFFF 
B864: FFFFFF 
B867: FFFFFF 
B86A: FFFFFF 
B86D: FFFFFF 
B870: FFFFFF 
B873: FFFFFF 
B876: FFFFFF 
B879: FFFFFF 
B87C: FFFFFF 
B87F: FFFFFF 
B882: FFFFFF 
B885: FFFFFF 
B888: FFFFFF 
B88B: FFFFFF 
B88E: FFFFFF 
B891: FFFFFF 
B894: FFFFFF 
B897: FFFFFF 
B89A: FFFFFF 
B89D: FFFFFF 
B8A0: FFFFFF 
B8A3: FFFFFF 
B8A6: FFFFFF 
B8A9: FFFFFF 
B8AC: FFFFFF 
B8AF: FFFFFF 
B8B2: FFFFFF 
B8B5: FFFFFF 
B8B8: FFFFFF 
B8BB: FFFFFF 
B8BE: FFFFFF 
B8C1: FFFFFF 
B8C4: FFFFFF 
B8C7: FFFFFF 
B8CA: FFFFFF 
B8CD: FFFFFF 
B8D0: FFFFFF 
B8D3: FFFFFF 
B8D6: FFFFFF 
B8D9: FFFFFF 
B8DC: FFFFFF 
B8DF: FFFFFF 
B8E2: FFFFFF 
B8E5: FFFFFF 
B8E8: FFFFFF 
B8EB: FFFFFF 
B8EE: FFFFFF 
B8F1: FFFFFF 
B8F4: FFFFFF 
B8F7: FFFFFF 
B8FA: FFFFFF 
B8FD: FFFFFF 
B900: FFFFFF 
B903: FFFFFF 
B906: FFFFFF 
B909: FFFFFF 
B90C: FFFFFF 
B90F: FFFFFF 
B912: FFFFFF 
B915: FFFFFF 
B918: FFFFFF 
B91B: FFFFFF 
B91E: FFFFFF 
B921: FFFFFF 
B924: FFFFFF 
B927: FFFFFF 
B92A: FFFFFF 
B92D: FFFFFF 
B930: FFFFFF 
B933: FFFFFF 
B936: FFFFFF 
B939: FFFFFF 
B93C: FFFFFF 
B93F: FFFFFF 
B942: FFFFFF 
B945: FFFFFF 
B948: FFFFFF 
B94B: FFFFFF 
B94E: FFFFFF 
B951: FFFFFF 
B954: FFFFFF 
B957: FFFFFF 
B95A: FFFFFF 
B95D: FFFFFF 
B960: FFFFFF 
B963: FFFFFF 
B966: FFFFFF 
B969: FFFFFF 
B96C: FFFFFF 
B96F: FFFFFF 
B972: FFFFFF 
B975: FFFFFF 
B978: FFFFFF 
B97B: FFFFFF 
B97E: FFFFFF 
B981: FFFFFF 
B984: FFFFFF 
B987: FFFFFF 
B98A: FFFFFF 
B98D: FFFFFF 
B990: FFFFFF 
B993: FFFFFF 
B996: FFFFFF 
B999: FFFFFF 
B99C: FFFFFF 
B99F: FFFFFF 
B9A2: FFFFFF 
B9A5: FFFFFF 
B9A8: FFFFFF 
B9AB: FFFFFF 
B9AE: FFFFFF 
B9B1: FFFFFF 
B9B4: FFFFFF 
B9B7: FFFFFF 
B9BA: FFFFFF 
B9BD: FFFFFF 
B9C0: FFFFFF 
B9C3: FFFFFF 
B9C6: FFFFFF 
B9C9: FFFFFF 
B9CC: FFFFFF 
B9CF: FFFFFF 
B9D2: FFFFFF 
B9D5: FFFFFF 
B9D8: FFFFFF 
B9DB: FFFFFF 
B9DE: FFFFFF 
B9E1: FFFFFF 
B9E4: FFFFFF 
B9E7: FFFFFF 
B9EA: FFFFFF 
B9ED: FFFFFF 
B9F0: FFFFFF 
B9F3: FFFFFF 
B9F6: FFFFFF 
B9F9: FFFFFF 
B9FC: FFFFFF 
B9FF: FFFFFF 
BA02: FFFFFF 
BA05: FFFFFF 
BA08: FFFFFF 
BA0B: FFFFFF 
BA0E: FFFFFF 
BA11: FFFFFF 
BA14: FFFFFF 
BA17: FFFFFF 
BA1A: FFFFFF 
BA1D: FFFFFF 
BA20: FFFFFF 
BA23: FFFFFF 
BA26: FFFFFF 
BA29: FFFFFF 
BA2C: FFFFFF 
BA2F: FFFFFF 
BA32: FFFFFF 
BA35: FFFFFF 
BA38: FFFFFF 
BA3B: FFFFFF 
BA3E: FFFFFF 
BA41: FFFFFF 
BA44: FFFFFF 
BA47: FFFFFF 
BA4A: FFFFFF 
BA4D: FFFFFF 
BA50: FFFFFF 
BA53: FFFFFF 
BA56: FFFFFF 
BA59: FFFFFF 
BA5C: FFFFFF 
BA5F: FFFFFF 
BA62: FFFFFF 
BA65: FFFFFF 
BA68: FFFFFF 
BA6B: FFFFFF 
BA6E: FFFFFF 
BA71: FFFFFF 
BA74: FFFFFF 
BA77: FFFFFF 
BA7A: FFFFFF 
BA7D: FFFFFF 
BA80: FFFFFF 
BA83: FFFFFF 
BA86: FFFFFF 
BA89: FFFFFF 
BA8C: FFFFFF 
BA8F: FFFFFF 
BA92: FFFFFF 
BA95: FFFFFF 
BA98: FFFFFF 
BA9B: FFFFFF 
BA9E: FFFFFF 
BAA1: FFFFFF 
BAA4: FFFFFF 
BAA7: FFFFFF 
BAAA: FFFFFF 
BAAD: FFFFFF 
BAB0: FFFFFF 
BAB3: FFFFFF 
BAB6: FFFFFF 
BAB9: FFFFFF 
BABC: FFFFFF 
BABF: FFFFFF 
BAC2: FFFFFF 
BAC5: FFFFFF 
BAC8: FFFFFF 
BACB: FFFFFF 
BACE: FFFFFF 
BAD1: FFFFFF 
BAD4: FFFFFF 
BAD7: FFFFFF 
BADA: FFFFFF 
BADD: FFFFFF 
BAE0: FFFFFF 
BAE3: FFFFFF 
BAE6: FFFFFF 
BAE9: FFFFFF 
BAEC: FFFFFF 
BAEF: FFFFFF 
BAF2: FFFFFF 
BAF5: FFFFFF 
BAF8: FFFFFF 
BAFB: FFFFFF 
BAFE: FFFFFF 
BB01: FFFFFF 
BB04: FFFFFF 
BB07: FFFFFF 
BB0A: FFFFFF 
BB0D: FFFFFF 
BB10: FFFFFF 
BB13: FFFFFF 
BB16: FFFFFF 
BB19: FFFFFF 
BB1C: FFFFFF 
BB1F: FFFFFF 
BB22: FFFFFF 
BB25: FFFFFF 
BB28: FFFFFF 
BB2B: FFFFFF 
BB2E: FFFFFF 
BB31: FFFFFF 
BB34: FFFFFF 
BB37: FFFFFF 
BB3A: FFFFFF 
BB3D: FFFFFF 
BB40: FFFFFF 
BB43: FFFFFF 
BB46: FFFFFF 
BB49: FFFFFF 
BB4C: FFFFFF 
BB4F: FFFFFF 
BB52: FFFFFF 
BB55: FFFFFF 
BB58: FFFFFF 
BB5B: FFFFFF 
BB5E: FFFFFF 
BB61: FFFFFF 
BB64: FFFFFF 
BB67: FFFFFF 
BB6A: FFFFFF 
BB6D: FFFFFF 
BB70: FFFFFF 
BB73: FFFFFF 
BB76: FFFFFF 
BB79: FFFFFF 
BB7C: FFFFFF 
BB7F: FFFFFF 
BB82: FFFFFF 
BB85: FFFFFF 
BB88: FFFFFF 
BB8B: FFFFFF 
BB8E: FFFFFF 
BB91: FFFFFF 
BB94: FFFFFF 
BB97: FFFFFF 
BB9A: FFFFFF 
BB9D: FFFFFF 
BBA0: FFFFFF 
BBA3: FFFFFF 
BBA6: FFFFFF 
BBA9: FFFFFF 
BBAC: FFFFFF 
BBAF: FFFFFF 
BBB2: FFFFFF 
BBB5: FFFFFF 
BBB8: FFFFFF 
BBBB: FFFFFF 
BBBE: FFFFFF 
BBC1: FFFFFF 
BBC4: FFFFFF 
BBC7: FFFFFF 
BBCA: FFFFFF 
BBCD: FFFFFF 
BBD0: FFFFFF 
BBD3: FFFFFF 
BBD6: FFFFFF 
BBD9: FFFFFF 
BBDC: FFFFFF 
BBDF: FFFFFF 
BBE2: FFFFFF 
BBE5: FFFFFF 
BBE8: FFFFFF 
BBEB: FFFFFF 
BBEE: FFFFFF 
BBF1: FFFFFF 
BBF4: FFFFFF 
BBF7: FFFFFF 
BBFA: FFFFFF 
BBFD: FFFFFF 
BC00: FFFFFF 
BC03: FFFFFF 
BC06: FFFFFF 
BC09: FFFFFF 
BC0C: FFFFFF 
BC0F: FFFFFF 
BC12: FFFFFF 
BC15: FFFFFF 
BC18: FFFFFF 
BC1B: FFFFFF 
BC1E: FFFFFF 
BC21: FFFFFF 
BC24: FFFFFF 
BC27: FFFFFF 
BC2A: FFFFFF 
BC2D: FFFFFF 
BC30: FFFFFF 
BC33: FFFFFF 
BC36: FFFFFF 
BC39: FFFFFF 
BC3C: FFFFFF 
BC3F: FFFFFF 
BC42: FFFFFF 
BC45: FFFFFF 
BC48: FFFFFF 
BC4B: FFFFFF 
BC4E: FFFFFF 
BC51: FFFFFF 
BC54: FFFFFF 
BC57: FFFFFF 
BC5A: FFFFFF 
BC5D: FFFFFF 
BC60: FFFFFF 
BC63: FFFFFF 
BC66: FFFFFF 
BC69: FFFFFF 
BC6C: FFFFFF 
BC6F: FFFFFF 
BC72: FFFFFF 
BC75: FFFFFF 
BC78: FFFFFF 
BC7B: FFFFFF 
BC7E: FFFFFF 
BC81: FFFFFF 
BC84: FFFFFF 
BC87: FFFFFF 
BC8A: FFFFFF 
BC8D: FFFFFF 
BC90: FFFFFF 
BC93: FFFFFF 
BC96: FFFFFF 
BC99: FFFFFF 
BC9C: FFFFFF 
BC9F: FFFFFF 
BCA2: FFFFFF 
BCA5: FFFFFF 
BCA8: FFFFFF 
BCAB: FFFFFF 
BCAE: FFFFFF 
BCB1: FFFFFF 
BCB4: FFFFFF 
BCB7: FFFFFF 
BCBA: FFFFFF 
BCBD: FFFFFF 
BCC0: FFFFFF 
BCC3: FFFFFF 
BCC6: FFFFFF 
BCC9: FFFFFF 
BCCC: FFFFFF 
BCCF: FFFFFF 
BCD2: FFFFFF 
BCD5: FFFFFF 
BCD8: FFFFFF 
BCDB: FFFFFF 
BCDE: FFFFFF 
BCE1: FFFFFF 
BCE4: FFFFFF 
BCE7: FFFFFF 
BCEA: FFFFFF 
BCED: FFFFFF 
BCF0: FFFFFF 
BCF3: FFFFFF 
BCF6: FFFFFF 
BCF9: FFFFFF 
BCFC: FFFFFF 
BCFF: FFFFFF 
BD02: FFFFFF 
BD05: FFFFFF 
BD08: FFFFFF 
BD0B: FFFFFF 
BD0E: FFFFFF 
BD11: FFFFFF 
BD14: FFFFFF 
BD17: FFFFFF 
BD1A: FFFFFF 
BD1D: FFFFFF 
BD20: FFFFFF 
BD23: FFFFFF 
BD26: FFFFFF 
BD29: FFFFFF 
BD2C: FFFFFF 
BD2F: FFFFFF 
BD32: FFFFFF 
BD35: FFFFFF 
BD38: FFFFFF 
BD3B: FFFFFF 
BD3E: FFFFFF 
BD41: FFFFFF 
BD44: FFFFFF 
BD47: FFFFFF 
BD4A: FFFFFF 
BD4D: FFFFFF 
BD50: FFFFFF 
BD53: FFFFFF 
BD56: FFFFFF 
BD59: FFFFFF 
BD5C: FFFFFF 
BD5F: FFFFFF 
BD62: FFFFFF 
BD65: FFFFFF 
BD68: FFFFFF 
BD6B: FFFFFF 
BD6E: FFFFFF 
BD71: FFFFFF 
BD74: FFFFFF 
BD77: FFFFFF 
BD7A: FFFFFF 
BD7D: FFFFFF 
BD80: FFFFFF 
BD83: FFFFFF 
BD86: FFFFFF 
BD89: FFFFFF 
BD8C: FFFFFF 
BD8F: FFFFFF 
BD92: FFFFFF 
BD95: FFFFFF 
BD98: FFFFFF 
BD9B: FFFFFF 
BD9E: FFFFFF 
BDA1: FFFFFF 
BDA4: FFFFFF 
BDA7: FFFFFF 
BDAA: FFFFFF 
BDAD: FFFFFF 
BDB0: FFFFFF 
BDB3: FFFFFF 
BDB6: FFFFFF 
BDB9: FFFFFF 
BDBC: FFFFFF 
BDBF: FFFFFF 
BDC2: FFFFFF 
BDC5: FFFFFF 
BDC8: FFFFFF 
BDCB: FFFFFF 
BDCE: FFFFFF 
BDD1: FFFFFF 
BDD4: FFFFFF 
BDD7: FFFFFF 
BDDA: FFFFFF 
BDDD: FFFFFF 
BDE0: FFFFFF 
BDE3: FFFFFF 
BDE6: FFFFFF 
BDE9: FFFFFF 
BDEC: FFFFFF 
BDEF: FFFFFF 
BDF2: FFFFFF 
BDF5: FFFFFF 
BDF8: FFFFFF 
BDFB: FFFFFF 
BDFE: FFFF7F 
BE01: 40     RTI
BE02: 7F     
BE03: 3B     
BE04: 80     
BE05: 4645   LSRz 45 hexedit.da.erstes
BE07: 44     
BE08: 42     
BE09: 80     
BE0A: 7F     
BE0B: 3B     
BE0C: 48     PHA
BE0D: 48     PHA
BE0E: 8D1080 STA 8010
BE11: 3B     
BE12: 80     
BE13: 1080   BPL -128>95
BE15: 13     
BE16: 12     
BE17: 2DFFFF AND FFFF bios.flag EPROM Bank
BE1A: 9080   BCC -128>9C
BE1C: FFFFFF 
BE1F: FFFFFF 
BE22: FF5210 
BE25: 6E585F ROR 5F58
BE28: 80     
BE29: FFFFFF 
BE2C: FFFFFF 
BE2F: FFFFFF 
BE32: FFFFFF 
BE35: FFFF2C 
BE38: 80     
BE39: 4A     LSRa
BE3A: 4B     
BE3B: 4C4D4E JMP 4E4D
BE3E: 5051   BVC +81>91
BE40: 1B     
BE41: 80     
BE42: 2C802C BIT 2C80
BE45: 3B     
BE46: 6A     RORa
BE47: 72     
BE48: 43     
BE49: 73     
BE4A: 97     
BE4B: 2C3B3A BIT 3A3B
BE4E: 2C3B97 BIT 973B
BE51: A61B   LDXz 1B
BE53: 80     
BE54: FF972C 
BE57: 80     
BE58: FFFFFF 
BE5B: FFFFFF 
BE5E: FFFF13 
BE61: 12     
BE62: 1110   ORAiy 10
BE64: 28     PLP
BE65: 6E7475 ROR 7574
BE68: 907F   BCC +127>E9
BE6A: 1B     
BE6B: 2E2880 ROL 8028
BE6E: 7F     
BE6F: 28     PLP
BE70: 2C802B BIT 2B80
BE73: 2D1F9C AND 9C1F
BE76: A23E   LDXim 3E
BE78: 3C     
BE79: 18     CLC
BE7A: 17     
BE7B: 3D1980 ORAx 8019
BE7E: 80     
BE7F: A3     
BE80: 2A     ROLa
BE81: 2F     
BE82: 261A   ROLz 1A
BE84: 6F     
BE85: 80     
BE86: 2B     
BE87: 2D2180 AND 8021
BE8A: FF5980 
BE8D: 62     
BE8E: 63     
BE8F: 8E5A80 STX 805A
BE92: FFFFFF 
BE95: FFFFFF 
BE98: FFFFFF 
BE9B: FFFFFF 
BE9E: FFFFFF 
BEA1: FFFFFF 
BEA4: FFFFFF 
BEA7: FFFFFF 
BEAA: FFFFFF 
BEAD: FFFFFF 
BEB0: FFFFFF 
BEB3: FFFFFF 
BEB6: FFFFFF 
BEB9: FFFFFF 
BEBC: FFFFFF 
BEBF: FF0000 
BEC2: 00     BRK
BEC3: 00     BRK
BEC4: 00     BRK
BEC5: 00     BRK
BEC6: 00     BRK
BEC7: 00     BRK
BEC8: 00     BRK
BEC9: 00     BRK
BECA: 00     BRK
BECB: 00     BRK
BECC: 00     BRK
BECD: 00     BRK
BECE: 00     BRK
BECF: 00     BRK
BED0: 00     BRK
BED1: 00     BRK
BED2: 00     BRK
BED3: 00     BRK
BED4: 00     BRK
BED5: 00     BRK
BED6: 00     BRK
BED7: 00     BRK
BED8: 00     BRK
BED9: 00     BRK
BEDA: 00     BRK
BEDB: 00     BRK
BEDC: 00     BRK
BEDD: 00     BRK
BEDE: 00     BRK
BEDF: 00     BRK
BEE0: 00     BRK
BEE1: 00     BRK
BEE2: 00     BRK
BEE3: 00     BRK
BEE4: 00     BRK
BEE5: 00     BRK
BEE6: 00     BRK
BEE7: 00     BRK
BEE8: 00     BRK
BEE9: 00     BRK
BEEA: 00     BRK
BEEB: 00     BRK
BEEC: 00     BRK
BEED: 00     BRK
BEEE: 00     BRK
BEEF: 00     BRK
BEF0: 00     BRK
BEF1: 00     BRK
BEF2: 00     BRK
BEF3: 00     BRK
BEF4: 00     BRK
BEF5: 00     BRK
BEF6: 00     BRK
BEF7: 00     BRK
BEF8: 00     BRK
BEF9: 00     BRK
BEFA: 00     BRK
BEFB: 00     BRK
BEFC: 00     BRK
BEFD: 00     BRK
BEFE: 00     BRK
BEFF: 00     BRK
BF00: 00     BRK
BF01: 00     BRK
BF02: 14     
BF03: 14     
BF04: 14     
BF05: 1518   ORAzx 18
BF07: 1B     
BF08: 23     
BF09: 2B     
BF0A: 2C3435 BIT 3534
BF0D: 3535   ANDzx 35
BF0F: 3639   ROLzx 39
BF11: 3A     
BF12: 3B     
BF13: 3C     
BF14: 43     
BF15: 44     
BF16: 4648   LSRz 48 hexedit.da.adrL
BF18: 4B     
BF19: 00     BRK
BF1A: 4C5354 JMP 5453
BF1D: FFFFFF 
BF20: FFFFFF 
BF23: 54     
BF24: 5661   LSRzx 61
BF26: 6A     RORa
BF27: 78     SEI
BF28: 82     
BF29: 83     
BF2A: FFFFFF 
BF2D: FFFFFF 
BF30: FFFFFF 
BF33: FFFFFF 
BF36: FFE0E4 
BF39: E5E5   SBCz E5 editor.ENDADH
BF3B: E5E5   SBCz E5 editor.ENDADH
BF3D: E5E5   SBCz E5 editor.ENDADH
BF3F: E5E5   SBCz E5 editor.ENDADH
BF41: EEEFF6 INC F6EF
BF44: F7     
BF45: F8     SED
BF46: F8     SED
BF47: F9FD01 SBCy 01FD
BF4A: 04     
BF4B: 07     
BF4C: 0A     ASLa
BF4D: 0C     
BF4E: 1013   BPL +19>63
BF50: 1518   ORAzx 18
BF52: 191D1E ORAy 1E1D
BF55: 28     PLP
BF56: 2B     
BF57: 3031   BMI +49>8A
BF59: FFFFFF 
BF5C: FFFFFF 
BF5F: FF4042 
BF62: 44     
BF63: 4649   LSRz 49 hexedit.da.adrH
BF65: 4B     
BF66: 4E5358 LSR 5853
BF69: 5F     
BF6A: 6D7177 ADC 7771
BF6D: 80     
BF6E: 8181   STAix 81 bs.KPUe.savePCH
BF70: 8D9192 STA 9291
BF73: 9598   STAzx 98 hexedit.videoSpa
BF75: 9B     
BF76: 9B     
BF77: 9C     
BF78: 9D9E9F STAx 9F9E
BF7B: A0A1   LDYim A1
BF7D: A2A3   LDXim A3
BF7F: A7     
BF80: A8     TAY
BF81: AEB4BA LDX BAB4
BF84: C0C6   CPYim C6
BF86: C7     
BF87: CDD3D9 CMP D9D3
BF8A: DA     
BF8B: E0E3   CPXim E3
BF8D: E4E4   CPXz E4 editor.ENDADL
BF8F: E9EA   SBCim EA
BF91: EDEEFF SBC FFEE
BF94: FFFFFF 
BF97: FFFFFF 
BF9A: FFFFFF 
BF9D: FFFFFF 
BFA0: FFFFFF 
BFA3: FFFFFF 
BFA6: FFFFFF 
BFA9: FFFFFF 
BFAC: FFFFFF 
BFAF: FFFFFF 
BFB2: FFFFFF 
BFB5: FFFFFF 
BFB8: FFFFFF 
BFBB: FFFFFF 
BFBE: FFFF00 
BFC1: 00     BRK
BFC2: 00     BRK
BFC3: 00     BRK
BFC4: 00     BRK
BFC5: 00     BRK
BFC6: 00     BRK
BFC7: 00     BRK
BFC8: 00     BRK
BFC9: 00     BRK
BFCA: 00     BRK
BFCB: 00     BRK
BFCC: 00     BRK
BFCD: 00     BRK
BFCE: 00     BRK
BFCF: 00     BRK
BFD0: 00     BRK
BFD1: 00     BRK
BFD2: 00     BRK
BFD3: 00     BRK
BFD4: 00     BRK
BFD5: 00     BRK
BFD6: 00     BRK
BFD7: 00     BRK
BFD8: 00     BRK
BFD9: 00     BRK
BFDA: 00     BRK
BFDB: 00     BRK
BFDC: 00     BRK
BFDD: 00     BRK
BFDE: 00     BRK
BFDF: 00     BRK
BFE0: 00     BRK
BFE1: 00     BRK
BFE2: 00     BRK
BFE3: 00     BRK
BFE4: 00     BRK
BFE5: 00     BRK
BFE6: 00     BRK
BFE7: 00     BRK
BFE8: 00     BRK
BFE9: 00     BRK
BFEA: 00     BRK
BFEB: 00     BRK
BFEC: 00     BRK
BFED: 00     BRK
BFEE: 00     BRK
BFEF: 00     BRK
BFF0: 00     BRK
BFF1: 00     BRK
BFF2: 00     BRK
BFF3: 00     BRK
BFF4: 00     BRK
BFF5: 00     BRK
BFF6: 00     BRK
BFF7: 00     BRK
BFF8: 00     BRK
BFF9: 00     BRK
BFFA: 00     BRK
BFFB: 00     BRK
BFFC: 00     BRK
BFFD: 00     BRK
BFFE: 00     BRK
BFFF: 00     BRK
C000: 00     BRK
C001: 00     BRK
C002: 00     BRK
C003: 00     BRK
C004: 00     BRK
C005: 00     BRK
C006: 00     BRK
C007: 00     BRK
C008: 00     BRK
C009: 00     BRK
C00A: 00     BRK
C00B: 00     BRK
C00C: 00     BRK
C00D: 00     BRK
C00E: 00     BRK
C00F: 00     BRK
C010: 00     BRK
C011: 00     BRK
C012: 00     BRK
C013: 00     BRK
C014: 00     BRK
C015: 00     BRK
C016: 00     BRK
C017: 00     BRK
C018: 00     BRK
C019: 00     BRK
C01A: 00     BRK
C01B: 00     BRK
C01C: 00     BRK
C01D: 00     BRK
C01E: 00     BRK
C01F: 00     BRK
C020: 00     BRK
C021: 00     BRK
C022: 00     BRK
C023: 00     BRK
C024: 00     BRK
C025: 00     BRK
C026: 00     BRK
C027: 00     BRK
C028: 00     BRK
C029: 00     BRK
C02A: 00     BRK
C02B: 00     BRK
C02C: 00     BRK
C02D: 00     BRK
C02E: 00     BRK
C02F: 00     BRK
C030: 00     BRK
C031: 00     BRK
C032: 00     BRK
C033: 00     BRK
C034: 00     BRK
C035: 00     BRK
C036: 00     BRK
C037: 00     BRK
C038: 00     BRK
C039: 00     BRK
C03A: 00     BRK
C03B: 00     BRK
C03C: 00     BRK
C03D: 00     BRK
C03E: 00     BRK
C03F: 00     BRK
C040: 00     BRK
C041: 00     BRK
C042: 00     BRK
C043: 00     BRK
C044: 00     BRK
C045: 00     BRK
C046: 00     BRK
C047: 00     BRK
C048: 00     BRK
C049: 0101   ORAix 01
C04B: 0101   ORAix 01
C04D: 0101   ORAix 01
C04F: 0101   ORAix 01
C051: 0101   ORAix 01
C053: 0101   ORAix 01
C055: 0101   ORAix 01
C057: 0101   ORAix 01
C059: 0101   ORAix 01
C05B: 0101   ORAix 01
C05D: 0101   ORAix 01
C05F: 0101   ORAix 01
C061: 0101   ORAix 01
C063: 0101   ORAix 01
C065: 0101   ORAix 01
C067: 0101   ORAix 01
C069: 0101   ORAix 01
C06B: 0101   ORAix 01
C06D: 0101   ORAix 01
C06F: 0101   ORAix 01
C071: 0101   ORAix 01
C073: 0101   ORAix 01
C075: 0101   ORAix 01
C077: 0101   ORAix 01
C079: 0101   ORAix 01
C07B: 0101   ORAix 01
C07D: 0101   ORAix 01
C07F: 0101   ORAix 01
C081: 0101   ORAix 01
C083: 0101   ORAix 01
C085: 0101   ORAix 01
C087: 0101   ORAix 01
C089: 0101   ORAix 01
C08B: 0101   ORAix 01
C08D: 0101   ORAix 01
C08F: 0101   ORAix 01
C091: 0101   ORAix 01
C093: 0101   ORAix 01
C095: 0101   ORAix 01
C097: 0101   ORAix 01
C099: 0101   ORAix 01
C09B: 0101   ORAix 01
C09D: 0101   ORAix 01
C09F: 0101   ORAix 01
C0A1: 0101   ORAix 01
C0A3: 0101   ORAix 01
C0A5: 0101   ORAix 01
C0A7: 0101   ORAix 01
C0A9: 0101   ORAix 01
C0AB: 0101   ORAix 01
C0AD: 0101   ORAix 01
C0AF: 0101   ORAix 01
C0B1: FFFFFF 
C0B4: FFFFFF 
C0B7: FFFFFF 
C0BA: FFFFFF 
C0BD: FFFFFF 
C0C0: 00     BRK
C0C1: 0102   ORAix 02
C0C3: 03     
C0C4: 050B   ORAz 0B
C0C6: 0D0F11 ORA 110F
C0C9: 13     
C0CA: 1518   ORAzx 18
C0CC: 00     BRK
C0CD: 1A     
C0CE: 23     
C0CF: 37     
C0D0: 394042 ANDy 4240
C0D3: 44     
C0D4: 464B   LSRz 4B
C0D6: 4E5152 LSR 5251
C0D9: FFFFFF 
C0DC: 60     RTS
C0DD: 696A   ADCim 6A
C0DF: 6E6F70 ROR 706F
C0E2: 72     
C0E3: 7677   RORzx 77
C0E5: 7E7F80 RORx 807F
C0E8: 868A   STXz 8A bs.ACSave
C0EA: FFFFFF 
C0ED: FFFFFF 
C0F0: FFFFFF 
C0F3: FFFFFF 
C0F6: FFFFFF 
C0F9: FFFFFF 
C0FC: FFFF00 
C0FF: 00     BRK
C100: 1080   BPL -128>82
C102: 0180   ORAix 80 bs.KPUe.savePCL
C104: 00     BRK
C105: 83     
C106: 4180   EORix 80 bs.KPUe.savePCL
C108: 04     
C109: 8447   STYz 47 hexedit.da.drittes
C10B: 80     
C10C: 08     PHP
C10D: 8680   STXz 80 bs.KPUe.savePCL
C10F: 0B     
C110: 8E4980 STX 8049
C113: 0C     
C114: 00     BRK
C115: 87     
C116: 83     
C117: 8489   STYz 89
C119: 83     
C11A: 8412   STYz 12
C11C: 80     
C11D: 0512   ORAz 12
C11F: 80     
C120: 0683   ASLz 83 bs.KPUe.adrParamsH
C122: 8412   STYz 12
C124: 80     
C125: 0912   ORAim 12
C127: 80     
C128: 0A     ASLa
C129: 83     
C12A: 8400   STYz 00
C12C: 7F     
C12D: 7F     
C12E: 7F     
C12F: 7F     
C130: 7F     
C131: 7F     
C132: 7F     
C133: 7F     
C134: 8685   STXz 85
C136: 80     
C137: 0F     
C138: 87     
C139: 00     BRK
C13A: 89     
C13B: 00     BRK
C13C: 80     
C13D: 0D3D8A ORA 8A3D
C140: 80     
C141: 0E8800 ASL 0088
C144: 80     
C145: 1580   ORAzx 80 bs.KPUe.savePCL
C147: 1613   ASLzx 13
C149: 80     
C14A: 17     
C14B: 8B     
C14C: 80     
C14D: 1091   BPL -111>E0
C14F: 1080   BPL -128>D1
C151: 118F   ORAiy 8F bs.aktTask
C153: 00     BRK
C154: 948E   STYz 8E bs.maxTask
C156: 80     
C157: 28     PLP
C158: 98     TYA
C159: 3D8029 ORAx 2980
C15C: 97     
C15D: 3B     
C15E: 80     
C15F: 2A     ROLa
C160: 8EA03D STX 3DA0
C163: 80     
C164: 2697   ROLz 97
C166: 3B     
C167: 80     
C168: 27     
C169: 8E103D STX 3D10
C16C: 80     
C16D: 5597   EORzx 97
C16F: 80     
C170: 56A9   LSRzx A9
C172: AB     
C173: 60     RTS
C174: AA     TAX
C175: 80     
C176: 57     
C177: 8E8058 STX 5880
C17A: 97     
C17B: 80     
C17C: 54     
C17D: 60     RTS
C17E: AA     TAX
C17F: 80     
C180: 598E00 EORy 008E bs.maxTask
C183: FFFFFF 
C186: FFFFFF 
C189: FFFFFF 
C18C: FFFFFF 
C18F: FFFFFF 
C192: FFFFFF 
C195: FFFFFF 
C198: FFFFFF 
C19B: FFFFFF 
C19E: FFFFFF 
C1A1: FFFFFF 
C1A4: FFFFFF 
C1A7: FFFFFF 
C1AA: FFFFFF 
C1AD: FFFFFF 
C1B0: FFFFFF 
C1B3: FFFFFF 
C1B6: FFFFFF 
C1B9: FFFFFF 
C1BC: FFFFFF 
C1BF: FFFFFF 
C1C2: FFFFFF 
C1C5: FFFFFF 
C1C8: FFFFFF 
C1CB: FFFFFF 
C1CE: FFFFFF 
C1D1: FFFFFF 
C1D4: FFFFFF 
C1D7: FFFFFF 
C1DA: FFFFFF 
C1DD: FFFFFF 
C1E0: 1080   BPL -128>62
C1E2: 118F   ORAiy 8F bs.aktTask
C1E4: 00     BRK
C1E5: 8A     TXAa
C1E6: 80     
C1E7: 12     
C1E8: 3A     
C1E9: 8A     TXAa
C1EA: 80     
C1EB: 13     
C1EC: 92     
C1ED: 1D008A ORAx 8A00
C1F0: 80     
C1F1: 14     
C1F2: 3A     
C1F3: 8A     TXAa
C1F4: 80     
C1F5: 13     
C1F6: 00     BRK
C1F7: 9496   STYz 96
C1F9: 97     
C1FA: 80     
C1FB: 18     CLC
C1FC: 93     
C1FD: 97     
C1FE: 80     
C1FF: 199380 ORAy 8093
C202: 2193   ANDix 93
C204: 80     
C205: 1A     
C206: 9580   STAzx 80 bs.KPUe.savePCL
C208: 1C     
C209: 9480   STYz 80 bs.KPUe.savePCL
C20B: 1C     
C20C: 97     
C20D: 80     
C20E: 1B     
C20F: 93     
C210: 80     
C211: 1D9480 ORAx 8094
C214: 1D801E ORAx 1E80
C217: 93     
C218: A8     TAY
C219: 80     
C21A: 2B     
C21B: 991D00 STAy 001D
C21E: FFFFFF 
C221: FFFFFF 
C224: FFFFFF 
C227: FF8030 
C22A: 9A     TXS
C22B: 80     
C22C: 33     
C22D: 97     
C22E: 80     
C22F: 3132   ANDiy 32
C231: FFFFFF 
C234: FFFFFF 
C237: FFFFFF 
C23A: FFFFFF 
C23D: FFFFFF 
C240: 80     
C241: 1F     
C242: 80     
C243: 1F     
C244: 80     
C245: 1F     
C246: 80     
C247: 209E97 JSR 979E
C24A: 29A0   ANDim A0
C24C: 80     
C24D: 2528   ANDz 28
C24F: 97     
C250: 2980   ANDim 80
C252: 42     
C253: 28     PLP
C254: 97     
C255: 2980   ANDim 80
C257: 43     
C258: 80     
C259: 40     RTI
C25A: 28     PLP
C25B: 97     
C25C: 2980   ANDim 80
C25E: 41FF   EORix FF monitor.MODE
C260: FFFFFF 
C263: FFFFFF 
C266: FFFFFF 
C269: FFFFFF 
C26C: FF802B 
C26F: 991D80 STAy 801D
C272: 00     BRK
C273: 1080   BPL -128>F5
C275: 00     BRK
C276: 9E     
C277: 80     
C278: 00     BRK
C279: 1080   BPL -128>FB
C27B: 00     BRK
C27C: A129   LDAix 29
C27E: 80     
C27F: 00     BRK
C280: 00     BRK
C281: 102C   BPL +44>AF
C283: 80     
C284: 22     
C285: 97     
C286: 2C8023 BIT 2380
C289: 97     
C28A: 2980   ANDim 80
C28C: 2410   BITz 10
C28E: 80     
C28F: 00     BRK
C290: A100   LDAix 00
C292: 9C     
C293: 80     
C294: 34     
C295: 9C     
C296: 80     
C297: 359C   ANDzx 9C
C299: 80     
C29A: 3DA4A5 ORAx A5A4
C29D: A5A5   LDAz A5
C29F: A5A5   LDAz A5
C2A1: A500   LDAz 00
C2A3: 37     
C2A4: A280   LDXim 80
C2A6: 38     SEC
C2A7: A7     
C2A8: 80     
C2A9: 39A380 ANDy 80A3
C2AC: 3A     
C2AD: A7     
C2AE: 80     
C2AF: 39A380 ANDy 80A3
C2B2: 3A     
C2B3: A7     
C2B4: 80     
C2B5: 3B     
C2B6: A3     
C2B7: 80     
C2B8: 3C     
C2B9: A7     
C2BA: 80     
C2BB: 3EA380 ASLx 80A3
C2BE: 3F     
C2BF: A7     
C2C0: 80     
C2C1: 39A380 ANDy 80A3
C2C4: 3A     
C2C5: A7     
C2C6: 00     BRK
C2C7: 80     
C2C8: 39A680 ANDy 80A6
C2CB: 3A     
C2CC: A8     TAY
C2CD: 80     
C2CE: 39A680 ANDy 80A6
C2D1: 3A     
C2D2: A8     TAY
C2D3: 80     
C2D4: 3B     
C2D5: A680   LDXz 80 bs.KPUe.savePCL
C2D7: 3C     
C2D8: A8     TAY
C2D9: 00     BRK
C2DA: 00     BRK
C2DB: 7F     
C2DC: 7F     
C2DD: 7F     
C2DE: 7F     
C2DF: 7F     
C2E0: 97     
C2E1: 80     
C2E2: 5051   BVC +81>35
C2E4: 97     
C2E5: 64     
C2E6: 80     
C2E7: 53     
C2E8: AA     TAX
C2E9: AA     TAX
C2EA: 97     
C2EB: 80     
C2EC: 52     
C2ED: 5A     
C2EE: FFFFFF 
C2F1: FFFFFF 
C2F4: FFFFFF 
C2F7: FFFFFF 
C2FA: FFFFFF 
C2FD: FFFFFF 
C300: FFFFFF 
C303: FFFFFF 
C306: FFFFFF 
C309: FFFFFF 
C30C: FFFFFF 
C30F: FFFFFF 
C312: FFFFFF 
C315: FFFFFF 
C318: FFFFFF 
C31B: FFFFFF 
C31E: FFFFFF 
C321: FFFFFF 
C324: FFFFFF 
C327: FFFFFF 
C32A: FFFFFF 
C32D: FFFFFF 
C330: FFFFFF 
C333: FFFFFF 
C336: FFFFFF 
C339: FFFFFF 
C33C: FFFFFF 
C33F: FFFFFF 
C342: FFFFFF 
C345: FFFFFF 
C348: FFFFFF 
C34B: FFFFFF 
C34E: FFFFFF 
C351: FFFFFF 
C354: FFFFFF 
C357: FFFFFF 
C35A: FFFFFF 
C35D: FFFFFF 
C360: FFFFFF 
C363: FFFFFF 
C366: FFFFFF 
C369: FFFFFF 
C36C: FFFFFF 
C36F: FFFFFF 
C372: FFFFFF 
C375: FFFFFF 
C378: FFFFFF 
C37B: FFFFFF 
C37E: 22     
C37F: 33     
C380: 00     BRK
C381: 0102   ORAix 02
C383: 03     
C384: 050B   ORAz 0B
C386: 0D0F11 ORA 110F
C389: 13     
C38A: 1518   ORAzx 18
C38C: 00     BRK
C38D: 1A     
C38E: 23     
C38F: 37     
C390: 394042 ANDy 4240
C393: 44     
C394: 464B   LSRz 4B
C396: 4E5152 LSR 5251
C399: 5556   EORzx 56 hexedit.helpH
C39B: 58     CLI
C39C: 60     RTS
C39D: 696A   ADCim 6A
C39F: 6E6F70 ROR 706F
C3A2: 72     
C3A3: 7677   RORzx 77
C3A5: 7E7F80 RORx 807F
C3A8: 868B   STXz 8B bs.RXSave
C3AA: 8D9092 STA 9290
C3AD: FFFFFF 
C3B0: FFFFFF 
C3B3: FFFFFF 
C3B6: FFFFFF 
C3B9: FFFFFF 
C3BC: FFFFFF 
C3BF: FFFF00 
C3C2: A3     
C3C3: 80     
C3C4: 00     BRK
C3C5: A7     
C3C6: 00     BRK
C3C7: 80     
C3C8: 00     BRK
C3C9: A680   LDXz 80 bs.KPUe.savePCL
C3CB: 00     BRK
C3CC: A8     TAY
C3CD: 80     
C3CE: 00     BRK
C3CF: A680   LDXz 80 bs.KPUe.savePCL
C3D1: 00     BRK
C3D2: A8     TAY
C3D3: 80     
C3D4: 00     BRK
C3D5: A680   LDXz 80 bs.KPUe.savePCL
C3D7: 00     BRK
C3D8: A8     TAY
C3D9: 00     BRK
C3DA: 00     BRK
C3DB: A4A5   LDYz A5
C3DD: A5A5   LDAz A5
C3DF: A5A5   LDAz A5
C3E1: A500   LDAz 00
C3E3: 00     BRK
C3E4: A280   LDXim 80
C3E6: 00     BRK
C3E7: A7     
C3E8: 80     
C3E9: 00     BRK
C3EA: A3     
C3EB: 80     
C3EC: 00     BRK
C3ED: A7     
C3EE: 80     
C3EF: 00     BRK
C3F0: A3     
C3F1: 80     
C3F2: 00     BRK
C3F3: A7     
C3F4: 80     
C3F5: 00     BRK
C3F6: A3     
C3F7: 80     
C3F8: 00     BRK
C3F9: A7     
C3FA: 80     
C3FB: 00     BRK
C3FC: A3     
C3FD: 80     
C3FE: 00     BRK
C3FF: A7     
C400: 48     PHA
C401: 00     BRK
C402: 0111   ORAix 11
C404: 00     BRK
C405: 00     BRK
C406: 0D0F11 ORA 110F
C409: 1619   ASLzx 19
C40B: 1C     
C40C: 1F     
C40D: 22     
C40E: 2426   BITz 26
C410: 28     PLP
C411: 2A     ROLa
C412: 2C2F34 BIT 342F
C415: 393952 ANDy 5239
C418: 27     
C419: 42     
C41A: 58     CLI
C41B: 7E3E3C RORx 3C3E
C41E: 2D7FF2 AND F27F
C421: F3     
C422: F4     
C423: FF45FF 
C426: 4DFF7F EOR 7FFF
C429: 1DF2F3 ORAx F3F2
C42C: FF7F1D 
C42F: FF271D 
C432: FF271D 
C435: FFF2F3 
C438: FFF3FF 
C43B: 3DFF3D ORAx 3DFF
C43E: FF3DFF 
C441: 2DFF27 AND 27FF
C444: 7F     
C445: FF2730 
C448: 317F   ANDiy 7F bs.KPUe.saveRY
C44A: 1D277F ORAx 7F27
C44D: 1DF1F3 ORAx F3F1
C450: FFFFFF 
C453: 97     
C454: FFFF00 
C457: 60     RTS
C458: 2160   ANDix 60
C45A: 60     RTS
C45B: 60     RTS
C45C: 60     RTS
C45D: 60     RTS
C45E: 60     RTS
C45F: 53     
C460: 60     RTS
C461: 60     RTS
C462: 74     
C463: 202000 JSR 0020
C466: 200053 JSR 5300
C469: 202020 JSR 2020
C46C: 205320 JSR 2053
C46F: 202100 JSR 0021
C472: 00     BRK
C473: 2100   ANDix 00
C475: 00     BRK
C476: 202016 JSR 1620
C479: 201735 JSR 3517
C47C: 14     
C47D: 3514   ANDzx 14
C47F: 3514   ANDzx 14
C481: 3514   ANDzx 14
C483: 28     PLP
C484: 02     
C485: 302A   BMI +42>B1
C487: 3030   BMI +48>B9
C489: 02     
C48A: 1B     
C48B: 2902   ANDim 02
C48D: 1B     
C48E: 3030   BMI +48>C0
C490: FFFFFF 
C493: FFFFFF 
C496: 00     BRK
C497: 02     
C498: 0E0607 ASL 0706
C49B: 0A     ASLa
C49C: 0B     
C49D: 0C     
C49E: 0D1108 ORA 0811
C4A1: 0911   ORAim 11
C4A3: 0103   ORAix 03
C4A5: 08     PHP
C4A6: 04     
C4A7: 08     PHP
C4A8: 1101   ORAiy 01
C4AA: 08     PHP
C4AB: 08     PHP
C4AC: 0511   ORAz 11
C4AE: 0105   ORAix 05
C4B0: 0F     
C4B1: 08     PHP
C4B2: 08     PHP
C4B3: 1008   BPL +8>BD
C4B5: 08     PHP
C4B6: 08     PHP
C4B7: 08     PHP
C4B8: 1109   ORAiy 09
C4BA: 1111   ORAiy 11
C4BC: 1111   ORAiy 11
C4BE: 1111   ORAiy 11
C4C0: 1111   ORAiy 11
C4C2: 1111   ORAiy 11
C4C4: 110E   ORAiy 0E
C4C6: 110F   ORAiy 0F
C4C8: 0F     
C4C9: 110F   ORAiy 0F
C4CB: 1111   ORAiy 11
C4CD: 1010   BPL +16>DF
C4CF: 10FF   BPL -1>D0
C4D1: FFFFFF 
C4D4: 00     BRK
C4D5: 00     BRK
C4D6: 00     BRK
C4D7: 00     BRK
C4D8: 07     
C4D9: 0E1216 ASL 1612
C4DC: 1A     
C4DD: 1F     
C4DE: 27     
C4DF: 2A     ROLa
C4E0: 2F     
C4E1: 393D41 ANDy 413D
C4E4: 464B   LSRz 4B
C4E6: 5056   BVC +86>3E
C4E8: 5A     
C4E9: 5D6063 EORx 6360
C4EC: 67     
C4ED: 6B     
C4EE: 7075   BCS +117>65
C4F0: 78     SEI
C4F1: 7A     
C4F2: 7C     
C4F3: 7E8286 RORx 8682
C4F6: 88     DEY
C4F7: 8D8F94 STA 948F
C4FA: 969A   STXzy 9A hexedit.video3
C4FC: 9F     
C4FD: A6A8   LDXz A8
C4FF: AB     
C500: AF     
C501: B4B8   LDYz B8
C503: BCBFC5 LDYx C5BF
C506: CB     
C507: CED2D7 DEC D7D2
C50A: DA     
C50B: DF     
C50C: E6EC   INCz EC
C50E: FFFFFF 
C511: FFFF00 
C514: FFFF02 ---- text data
C517: 50524F47 52414D4D 41434849 4E45434F  'PROGRAMMACHINECO'
C527: 44454C49 4E455A45 524F4944 454E545A  'DELINEZEROIDENTZ'
C537: 45524F50 41474544 434C4245 47494E45  'EROPAGEDCLBEGINE'
C547: 4E445052 4F475241 4D494E54 37494E54  'NDPROGRAMINT7INT'
C557: 38494E54 3135494E 54313649 4E543331  '8INT15INT16INT31'
C567: 20202020 20204348 41524249 54505554  '      CHARBITPUT'
C577: 47455450 524F4346 554E4353 5441434B  'GETPROCFUNCSTACK'
C587: 53545255 43464F52 4259544F 49465448  'STRUCFORBYTOIFTH'
C597: 454E454C 53454649 5748494C 45444F55  'ENELSEFIWHILEDOU'
C5A7: 4E54494C 4F445748 454E4252 45414B45  'NTILODWHENBREAKE'
C5B7: 4E445052 4F43494E 4F555452 45414457  'NDPROCINOUTREADW'
C5C7: 52495445 534B4950 50555348 504F5052  'RITESKIPPUSHPOPR'
C5D7: 45545552 4E535542 5354524D 4F445452  'ETURNSUBSTRMODTR'
C5E7: 55454641 4C534543 4F4C434C 45415243  'UEFALSECOLCLEARC'
C5F7: 48415253 54524249 54535452 FFFFFFFF  'HARSTRBITSTR????'
C607: FFFFFFFF FFFFFFFF FFFFFFFF FFFFFFFF  '????????????????'
C617: FFFFFFFF FFFFFFFF FFFFFFFF FFFFFFFF  '????????????????'
C627: FFFFFFFF FFFF '??????'
C62D: 03     
C62E: 22     
C62F: 33     
C630: C9F1   CMPim F1
C632: D015   BNE +21>49
C634: EA     NOP
C635: EA     NOP
C636: EA     NOP
C637: EA     NOP
C638: A556   LDAz 56 hexedit.helpH
C63A: C941   CMPim 41
C63C: B001   BCS +1>3F
C63E: 60     RTS
C63F: C947   CMPim 47
C641: B003   BCS +3>46
C643: A900   LDAim 00
C645: 60     RTS
C646: A901   LDAim 01
C648: 60     RTS
C649: C9F2   CMPim F2
C64B: D023   BNE +35>70
C64D: EA     NOP
C64E: EA     NOP
C64F: A556   LDAz 56 hexedit.helpH
C651: C941   CMPim 41
C653: 900C   BCC +12>61
C655: EA     NOP
C656: EA     NOP
C657: C95B   CMPim 5B
C659: B003   BCS +3>5E
C65B: A900   LDAim 00
C65D: 60     RTS
C65E: A901   LDAim 01
C660: 60     RTS
C661: C940   CMPim 40
C663: F00A   BEQ +10>6F
C665: C923   CMPim 23
C667: F006   BEQ +6>6F
C669: C924   CMPim 24
C66B: F002   BEQ +2>6F
C66D: C925   CMPim 25
C66F: 60     RTS
C670: C9F3   CMPim F3
C672: D013   BNE +19>87
C674: EA     NOP
C675: EA     NOP
C676: A556   LDAz 56 hexedit.helpH
C678: C930   CMPim 30
C67A: B001   BCS +1>7D
C67C: 60     RTS
C67D: C93A   CMPim 3A
C67F: B003   BCS +3>84
C681: A900   LDAim 00
C683: 60     RTS
C684: A901   LDAim 01
C686: 60     RTS
C687: C9F4   CMPim F4
C689: D02A   BNE +42>B5
C68B: EA     NOP
C68C: EA     NOP
C68D: A556   LDAz 56 hexedit.helpH
C68F: C921   CMPim 21
C691: F01C   BEQ +28>AF
C693: C926   CMPim 26
C695: 901B   BCC +27>B2
C697: C930   CMPim 30
C699: 9014   BCC +20>AF
C69B: C93A   CMPim 3A
C69D: 9013   BCC +19>B2
C69F: C93F   CMPim 3F
C6A1: 900C   BCC +12>AF
C6A3: C95B   CMPim 5B
C6A5: 900B   BCC +11>B2
C6A7: C95F   CMPim 5F
C6A9: 9004   BCC +4>AF
C6AB: C97E   CMPim 7E
C6AD: D003   BNE +3>B2
C6AF: A900   LDAim 00
C6B1: 60     RTS
C6B2: A901   LDAim 01
C6B4: 60     RTS
C6B5: C9FF   CMPim FF
C6B7: 60     RTS
C6B8: FFFFFF 
C6BB: FFFF00 
C6BE: 00     BRK
C6BF: 00     BRK
C6C0: EA     NOP
C6C1: EA     NOP
C6C2: EA     NOP
C6C3: AE02C4 LDX C402
C6C6: 865F   STXz 5F bs.breakZeitH
C6C8: A560   LDAz 60
C6CA: 855D   STAz 5D bs.uhrZeitH
C6CC: A561   LDAz 61
C6CE: 855E   STAz 5E bs.breakZeitL
C6D0: A65F   LDXz 5F bs.breakZeitH
C6D2: BD04C4 LDAx C404
C6D5: 8557   STAz 57 bs.topWait
C6D7: A65F   LDXz 5F bs.breakZeitH
C6D9: A557   LDAz 57 bs.topWait
C6DB: DD05C4 CMPx C405
C6DE: F039   BEQ +57>19
C6E0: AA     TAX
C6E1: BD17C4 LDAx C417
C6E4: 300A   BMI +10>F0
C6E6: EA     NOP
C6E7: EA     NOP
C6E8: C556   CMPz 56 hexedit.helpH
C6EA: F00D   BEQ +13>F9
C6EC: E657   INCz 57 bs.topWait
C6EE: D0E7   BNE -25>D7
C6F0: 2030C6 JSR C630
C6F3: F004   BEQ +4>F9
C6F5: E657   INCz 57 bs.topWait
C6F7: D0DE   BNE -34>D7
C6F9: BD97C4 LDAx C497
C6FC: 48     PHA
C6FD: 20B5C7 JSR C7B5
C700: 4C10C7 JMP C710
C703: FFFFFF 
C706: FFFFFF 
C709: FFFFFF 
C70C: FFFF00 
C70F: 00     BRK
C710: 68     PLA
C711: 855F   STAz 5F bs.breakZeitH
C713: CD03C4 CMP C403
C716: D0B8   BNE -72>D0
C718: 60     RTS
C719: 200325 JSR 2503 hexedit.lwriteVonBis
C71C: 44     
C71D: C7     
C71E: 61C7   ADCix C7
C720: EA     NOP
C721: EA     NOP
C722: A561   LDAz 61
C724: 20EF24 JSR 24EF hexedit.byteDru
C727: A560   LDAz 60
C729: 20EF24 JSR 24EF hexedit.byteDru
C72C: 20CE24 JSR 24CE hexedit.Blank
C72F: EA     NOP
C730: EA     NOP
C731: A556   LDAz 56 hexedit.helpH
C733: 20EF24 JSR 24EF hexedit.byteDru
C736: 20CE24 JSR 24CE hexedit.Blank
C739: A55F   LDAz 5F bs.breakZeitH
C73B: 20EF24 JSR 24EF hexedit.byteDru
C73E: 4C3EC7 JMP C73E
C741: FFFF02 ---- text data
C744: 6665686C 65723A20 756E6572 77617274  'fehler: unerwart'
C754: 65746573 207A6569 6368656E 3A20 'etes zeichen: '
C762: 03     
C763: FFFFFF 
C766: 00     BRK
C767: 00     BRK
C768: A000   LDYim 00
C76A: B15D   LDAiy 5D bs.uhrZeitH
C76C: 206324 JSR 2463 hexedit.write
C76F: E65D   INCz 5D bs.uhrZeitH
C771: D002   BNE +2>75
C773: E65E   INCz 5E bs.breakZeitL
C775: A55D   LDAz 5D bs.uhrZeitH
C777: C55B   CMPz 5B bs.neueZeitH
C779: EA     NOP
C77A: EA     NOP
C77B: A55E   LDAz 5E bs.breakZeitL
C77D: E55C   SBCz 5C bs.uhrZeitL
C77F: 90E7   BCC -25>68
C781: A9BB   LDAim BB
C783: 206324 JSR 2463 hexedit.write
C786: 60     RTS
C787: FF0000 
C78A: EA     NOP
C78B: 0A     ASLa
C78C: D001   BNE +1>8F
C78E: 60     RTS
C78F: AA     TAX
C790: BD9DC7 LDAx C79D
C793: 8D9DC7 STA C79D
C796: BD9EC7 LDAx C79E
C799: 8D9EC7 STA C79E
C79C: 4CBAC8 JMP C8BA
C79F: 99CB30 STAy 30CB
C7A2: C8     INY
C7A3: BA     TSX
C7A4: C8     INY
C7A5: C0C8   CPYim C8
C7A7: D0C8   BNE -56>71
C7A9: 79CB2F ADCy 2FCB
C7AC: D0C3   BNE -61>71
C7AE: CC3ECE CPY CE3E
C7B1: 30CE   BMI -50>81
C7B3: 00     BRK
C7B4: C9BD   CMPim BD
C7B6: 57     
C7B7: C448   CPYz 48 hexedit.da.adrL
C7B9: 2940   ANDim 40
C7BB: F003   BEQ +3>C0
C7BD: 2099CB JSR CB99
C7C0: 68     PLA
C7C1: 48     PHA
C7C2: 2920   ANDim 20
C7C4: F003   BEQ +3>C9
C7C6: 20FEC7 JSR C7FE
C7C9: 68     PLA
C7CA: 48     PHA
C7CB: 2910   ANDim 10
C7CD: F008   BEQ +8>D7
C7CF: A460   LDYz 60
C7D1: 845B   STYz 5B bs.neueZeitH
C7D3: A461   LDYz 61
C7D5: 845C   STYz 5C bs.uhrZeitL
C7D7: 68     PLA
C7D8: 290F   ANDim 0F
C7DA: 4C8AC7 JMP C78A
C7DD: FFFFFF 
C7E0: 00     BRK
C7E1: 00     BRK
C7E2: BD57C4 LDAx C457
C7E5: 48     PHA
C7E6: 20CE24 JSR 24CE hexedit.Blank
C7E9: A55F   LDAz 5F bs.breakZeitH
C7EB: 20EF24 JSR 24EF hexedit.byteDru
C7EE: A000   LDYim 00
C7F0: B160   LDAiy 60
C7F2: 206324 JSR 2463 hexedit.write
C7F5: A557   LDAz 57 bs.topWait
C7F7: 20EF24 JSR 24EF hexedit.byteDru
C7FA: 68     PLA
C7FB: 60     RTS
C7FC: 00     BRK
C7FD: 00     BRK
C7FE: EA     NOP
C7FF: EA     NOP
C800: 2016C9 JSR C916
C803: 48     PHA
C804: 20A123 JSR 23A1 hexedit.block.rangeIn
C807: 9004   BCC +4>0D
C809: A97F   LDAim 7F
C80B: D014   BNE +20>21
C80D: A000   LDYim 00
C80F: B160   LDAiy 60
C811: EA     NOP
C812: EA     NOP
C813: EA     NOP
C814: EA     NOP
C815: EA     NOP
C816: EA     NOP
C817: C961   CMPim 61
C819: 9006   BCC +6>21
C81B: C97B   CMPim 7B
C81D: B002   BCS +2>21
C81F: 295F   ANDim 5F
C821: 8556   STAz 56 hexedit.helpH
C823: 68     PLA
C824: 60     RTS
C825: FFFFFF 
C828: FFFFFF 
C82B: FFFFFF 
C82E: 00     BRK
C82F: 00     BRK
C830: 200325 JSR 2503 hexedit.lwriteVonBis
C833: 50C8   BVC -56>FD
C835: 6F     
C836: C8     INY
C837: EA     NOP
C838: A252   LDXim 52
C83A: 2080C8 JSR C880
C83D: 200625 JSR 2506 hexedit.writeVonBis
C840: 70C8   BCS -56>0A
C842: 77     
C843: C8     INY
C844: 2068C7 JSR C768
C847: 4C47C8 JMP C847
C84A: FFFFFF 
C84D: FFFF02 ---- text data
C850: 756E6572 77617274 65746573 20446174  'unerwartetes Dat'
C860: 6569656E 64652069 6E205A65 696C6520  'eiende in Zeile '
C870: 2068696E 7465723A  ' hinter:'
C878: 03     
C879: 8A     TXAa
C87A: 48     PHA
C87B: 20D424 JSR 24D4 hexedit.CR
C87E: 68     PLA
C87F: AA     TAX
C880: A900   LDAim 00
C882: 8554   STAz 54
C884: 8555   STAz 55 hexedit.helpL
C886: B500   LDAzx 00
C888: 48     PHA
C889: B501   LDAzx 01
C88B: 48     PHA
C88C: 8A     TXAa
C88D: 48     PHA
C88E: F8     SED
C88F: A010   LDYim 10
C891: 1600   ASLzx 00
C893: 3601   ROLzx 01
C895: A554   LDAz 54
C897: 6554   ADCz 54
C899: 8554   STAz 54
C89B: A555   LDAz 55 hexedit.helpL
C89D: 6555   ADCz 55 hexedit.helpL
C89F: 8555   STAz 55 hexedit.helpL
C8A1: 88     DEY
C8A2: D0ED   BNE -19>91
C8A4: D8     CLD
C8A5: 20EF24 JSR 24EF hexedit.byteDru
C8A8: A554   LDAz 54
C8AA: 20EF24 JSR 24EF hexedit.byteDru
C8AD: 68     PLA
C8AE: AA     TAX
C8AF: 68     PLA
C8B0: 9501   STAzx 01
C8B2: 68     PLA
C8B3: 9500   STAzx 00
C8B5: 60     RTS
C8B6: FFFF00 
C8B9: 00     BRK
C8BA: A914   LDAim 14
C8BC: 855A   STAz 5A bs.neueZeitL
C8BE: 60     RTS
C8BF: 00     BRK
C8C0: A000   LDYim 00
C8C2: B15D   LDAiy 5D bs.uhrZeitH
C8C4: C97E   CMPim 7E
C8C6: D002   BNE +2>CA
C8C8: A91F   LDAim 1F
C8CA: 293F   ANDim 3F
C8CC: 855A   STAz 5A bs.neueZeitL
C8CE: 60     RTS
C8CF: 00     BRK
C8D0: A000   LDYim 00
C8D2: B15D   LDAiy 5D bs.uhrZeitH
C8D4: A01A   LDYim 1A
C8D6: C97E   CMPim 7E
C8D8: F00B   BEQ +11>E5
C8DA: 88     DEY
C8DB: C92D   CMPim 2D
C8DD: F006   BEQ +6>E5
C8DF: 88     DEY
C8E0: C93E   CMPim 3E
C8E2: F001   BEQ +1>E5
C8E4: 88     DEY
C8E5: 845A   STYz 5A bs.neueZeitL
C8E7: 60     RTS
C8E8: A910   LDAim 10
C8EA: 855A   STAz 5A bs.neueZeitL
C8EC: 60     RTS
C8ED: A913   LDAim 13
C8EF: 855A   STAz 5A bs.neueZeitL
C8F1: 60     RTS
C8F2: A911   LDAim 11
C8F4: 855A   STAz 5A bs.neueZeitL
C8F6: 60     RTS
C8F7: A912   LDAim 12
C8F9: D002   BNE +2>FD
C8FB: A915   LDAim 15
C8FD: 855A   STAz 5A bs.neueZeitL
C8FF: 60     RTS
C900: A558   LDAz 58 bs.aktZeitL
C902: CD00C4 CMP C400
C905: F005   BEQ +5>0C
C907: A920   LDAim 20
C909: 8556   STAz 56 hexedit.helpH
C90B: 60     RTS
C90C: A920   LDAim 20
C90E: 20B8C7 JSR C7B8
C911: 60     RTS
C912: FFFF00 
C915: 00     BRK
C916: 20DB23 JSR 23DB hexedit.block.incCursIn
C919: A556   LDAz 56 hexedit.helpH
C91B: C91D   CMPim 1D
C91D: D00B   BNE +11>2A
C91F: E652   INCz 52
C921: D002   BNE +2>25
C923: E653   INCz 53
C925: A900   LDAim 00
C927: 8558   STAz 58 bs.aktZeitL
C929: 60     RTS
C92A: E658   INCz 58 bs.aktZeitL
C92C: 60     RTS
C92D: FFFF02 ---- text data
C930: 40204120 42202320 7F205820 52203C3D  '@ A B #  X R <='
C940: 3E3D2D2D 7E3D5B20 5C205D20 5E207E20  '>=--~=[ \ ] ^ ~ '
C950: 3F3F2120 3F3F3F3F 3F3F3F3F 26202720  '??! ????????& ' '
C960: 28202820 2A202B20 2C202D20 2E202F20  '( ( * + , - . / '
C970: 3F3F3F3F 3F3F3F3F 3F3F3F3F 3F3F3F3F  '????????????????'
C980: 3F3F3F3F 3A203B20 3C203D20 3E203F '????: ; < = > ?'
C98F: 03     
C990: A55A   LDAz 5A bs.neueZeitL
C992: C940   CMPim 40
C994: 9002   BCC +2>98
C996: A916   LDAim 16
C998: 0A     ASLa
C999: AA     TAX
C99A: BD10C9 LDAx C910
C99D: 206324 JSR 2463 hexedit.write
C9A0: A55A   LDAz 5A bs.neueZeitL
C9A2: C940   CMPim 40
C9A4: 9002   BCC +2>A8
C9A6: A916   LDAim 16
C9A8: 0A     ASLa
C9A9: AA     TAX
C9AA: BD11C9 LDAx C911
C9AD: 206324 JSR 2463 hexedit.write
C9B0: 4C75C7 JMP C775
C9B3: 00     BRK
C9B4: 00     BRK
C9B5: 20E923 JSR 23E9 hexedit.block.initInFile
C9B8: 2003C8 JSR C803
C9BB: 206624 JSR 2466 hexedit.openOutVideo
C9BE: 2049CA JSR CA49
C9C1: 20DAC9 JSR C9DA
C9C4: 20B2CC JSR CCB2
C9C7: 20C3C6 JSR C6C3
C9CA: 2090C9 JSR C990
C9CD: A55A   LDAz 5A bs.neueZeitL
C9CF: C914   CMPim 14
C9D1: D0F4   BNE -12>C7
C9D3: 2074CD JSR CD74
C9D6: 4C1D1C JMP 1C1D monitor.RESET
C9D9: 00     BRK
C9DA: A900   LDAim 00
C9DC: 8558   STAz 58 bs.aktZeitL
C9DE: 8553   STAz 53
C9E0: A901   LDAim 01
C9E2: 8552   STAz 52
C9E4: 60     RTS
C9E5: FFFFFF 
C9E8: FFFFFF 
C9EB: FFFFF7 
C9EE: 00     BRK
C9EF: 00     BRK
C9F0: A910   LDAim 10
C9F2: 855A   STAz 5A bs.neueZeitL
C9F4: 38     SEC
C9F5: A55B   LDAz 5B bs.neueZeitH
C9F7: E55D   SBCz 5D bs.uhrZeitH
C9F9: 8551   STAz 51
C9FB: A55C   LDAz 5C bs.uhrZeitL
C9FD: E55E   SBCz 5E bs.breakZeitL
C9FF: F001   BEQ +1>02
CA01: 60     RTS
CA02: A551   LDAz 51
CA04: C90B   CMPim 0B
CA06: 9001   BCC +1>09
CA08: 60     RTS
CA09: A200   LDXim 00
CA0B: 8650   STXz 50
CA0D: 38     SEC
CA0E: BDD8C4 LDAx C4D8
CA11: FDD7C4 SBCx C4D7
CA14: C551   CMPz 51
CA16: D024   BNE +36>3C
CA18: A000   LDYim 00
CA1A: BDD7C4 LDAx C4D7
CA1D: AA     TAX
CA1E: B15D   LDAiy 5D bs.uhrZeitH
CA20: C961   CMPim 61
CA22: 9006   BCC +6>2A
CA24: C97B   CMPim 7B
CA26: B002   BCS +2>2A
CA28: 295F   ANDim 5F
CA2A: DD17C5 CMPx C517
CA2D: D00D   BNE +13>3C
CA2F: E8     INX
CA30: C8     INY
CA31: C451   CPYz 51
CA33: D0E9   BNE -23>1E
CA35: A550   LDAz 50
CA37: 4940   EORim 40
CA39: 855A   STAz 5A bs.neueZeitL
CA3B: 60     RTS
CA3C: E650   INCz 50
CA3E: A650   LDXz 50
CA40: E036   CPXim 36
CA42: D0C9   BNE -55>0D
CA44: 60     RTS
CA45: FFFFFF 
CA48: 00     BRK
CA49: A900   LDAim 00
CA4B: A6DD   LDXz DD
CA4D: 8547   STAz 47 hexedit.da.drittes
CA4F: 8648   STXz 48 hexedit.da.adrL
CA51: A6C2   LDXz C2
CA53: 8545   STAz 45 hexedit.da.erstes
CA55: 8646   STXz 46 hexedit.da.zweites
CA57: 60     RTS
CA58: FFFF00 
CA5B: 00     BRK
CA5C: EA     NOP
CA5D: EA     NOP
CA5E: EA     NOP
CA5F: 38     SEC
CA60: A55B   LDAz 5B bs.neueZeitH
CA62: E55D   SBCz 5D bs.uhrZeitH
CA64: 8551   STAz 51
CA66: A900   LDAim 00
CA68: 8541   STAz 41 hexedit.da.nr
CA6A: A5C2   LDAz C2
CA6C: EA     NOP
CA6D: 8542   STAz 42 hexedit.da.laenge
CA6F: A541   LDAz 41 hexedit.da.nr
CA71: C545   CMPz 45 hexedit.da.erstes
CA73: D007   BNE +7>7C
CA75: A542   LDAz 42 hexedit.da.laenge
CA77: C546   CMPz 46 hexedit.da.zweites
CA79: D001   BNE +1>7C
CA7B: 60     RTS
CA7C: A00D   LDYim 0D
CA7E: B141   LDAiy 41 hexedit.da.nr
CA80: C551   CMPz 51
CA82: D022   BNE +34>A6
CA84: A00B   LDYim 0B
CA86: B141   LDAiy 41 hexedit.da.nr
CA88: 853F   STAz 3F
CA8A: C8     INY
CA8B: B141   LDAiy 41 hexedit.da.nr
CA8D: 8540   STAz 40
CA8F: A451   LDYz 51
CA91: 88     DEY
CA92: B15D   LDAiy 5D bs.uhrZeitH
CA94: C961   CMPim 61
CA96: 9006   BCC +6>9E
CA98: C97B   CMPim 7B
CA9A: B002   BCS +2>9E
CA9C: 295F   ANDim 5F
CA9E: D13F   CMPiy 3F
CAA0: D004   BNE +4>A6
CAA2: 88     DEY
CAA3: 10ED   BPL -19>92
CAA5: 60     RTS
CAA6: 18     CLC
CAA7: A541   LDAz 41 hexedit.da.nr
CAA9: 690E   ADCim 0E
CAAB: 8541   STAz 41 hexedit.da.nr
CAAD: 9002   BCC +2>B1
CAAF: E642   INCz 42 hexedit.da.laenge
CAB1: 4C6FCA JMP CA6F
CAB4: EA     NOP
CAB5: 18     CLC
CAB6: A547   LDAz 47 hexedit.da.drittes
CAB8: 853F   STAz 3F
CABA: 6551   ADCz 51
CABC: 8547   STAz 47 hexedit.da.drittes
CABE: A548   LDAz 48 hexedit.da.adrL
CAC0: 8540   STAz 40
CAC2: 6900   ADCim 00
CAC4: 8548   STAz 48 hexedit.da.adrL
CAC6: C5C0   CMPz C0
CAC8: EA     NOP
CAC9: 900F   BCC +15>DA
CACB: 200325 JSR 2503 hexedit.lwriteVonBis
CACE: 2B     
CACF: CB     
CAD0: 4B     
CAD1: CB     
CAD2: A252   LDXim 52
CAD4: 2080C8 JSR C880
CAD7: 4CD7CA JMP CAD7
CADA: 18     CLC
CADB: A545   LDAz 45 hexedit.da.erstes
CADD: EA     NOP
CADE: 690E   ADCim 0E
CAE0: 8545   STAz 45 hexedit.da.erstes
CAE2: A546   LDAz 46 hexedit.da.zweites
CAE4: EA     NOP
CAE5: EA     NOP
CAE6: 6900   ADCim 00
CAE8: 8546   STAz 46 hexedit.da.zweites
CAEA: C5C4   CMPz C4
CAEC: EA     NOP
CAED: 900B   BCC +11>FA
CAEF: 200325 JSR 2503 hexedit.lwriteVonBis
CAF2: 4CCB6B JMP 6BCB
CAF5: CB     
CAF6: EA     NOP
CAF7: 4CD2CA JMP CAD2
CAFA: A451   LDYz 51
CAFC: 88     DEY
CAFD: B15D   LDAiy 5D bs.uhrZeitH
CAFF: C961   CMPim 61
CB01: 9006   BCC +6>09
CB03: C97F   CMPim 7F
CB05: B002   BCS +2>09
CB07: 295F   ANDim 5F
CB09: 913F   STAiy 3F
CB0B: 88     DEY
CB0C: 10EF   BPL -17>FD
CB0E: A000   LDYim 00
CB10: A900   LDAim 00
CB12: 9141   STAiy 41 hexedit.da.nr
CB14: A00B   LDYim 0B
CB16: A53F   LDAz 3F
CB18: 9141   STAiy 41 hexedit.da.nr
CB1A: C8     INY
CB1B: A540   LDAz 40
CB1D: 9141   STAiy 41 hexedit.da.nr
CB1F: C8     INY
CB20: A551   LDAz 51
CB22: 9141   STAiy 41 hexedit.da.nr
CB24: 60     RTS
CB25: FFFFFF 
CB28: FFFF02 ---- text data
CB2B: 4665686C 65723A4E 616D656E 6C697374  'Fehler:Namenlist'
CB3B: 65207A75 206B7572 7A2E205A 65696C65  'e zu kurz. Zeile'
CB4B: 20466568 6C65723A 44656B6C 6C697374  ' Fehler:Dekllist'
CB5B: 65207A75 206B7572 7A2E205A 65696C65  'e zu kurz. Zeile'
CB6B: 20 ' '
CB6C: 03     
CB6D: FFFFFF 
CB70: FFFFFF 
CB73: FFFFFF 
CB76: FF0000 
CB79: 20F0C9 JSR C9F0
CB7C: A55A   LDAz 5A bs.neueZeitL
CB7E: C910   CMPim 10
CB80: F001   BEQ +1>83
CB82: 60     RTS
CB83: 205CCA JSR CA5C
CB86: F001   BEQ +1>89
CB88: 60     RTS
CB89: 20B4CA JSR CAB4
CB8C: 60     RTS
CB8D: FFFFFF 
CB90: FFFFFF 
CB93: FFFFFF 
CB96: FF0000 
CB99: A560   LDAz 60
CB9B: 855D   STAz 5D bs.uhrZeitH
CB9D: A561   LDAz 61
CB9F: 855E   STAz 5E bs.breakZeitL
CBA1: A558   LDAz 58 bs.aktZeitL
CBA3: 8559   STAz 59 bs.aktZeitH
CBA5: 60     RTS
CBA6: FFFFFF 
CBA9: FFFFFF 
CBAC: FFFFFF 
CBAF: FFFFFF 
CBB2: FF0000 
CBB5: EA     NOP
CBB6: EA     NOP
CBB7: EA     NOP
CBB8: EA     NOP
CBB9: EA     NOP
CBBA: 20F0CC JSR CCF0
CBBD: A55D   LDAz 5D bs.uhrZeitH
CBBF: 8554   STAz 54
CBC1: A55E   LDAz 5E bs.breakZeitL
CBC3: 8555   STAz 55 hexedit.helpL
CBC5: A559   LDAz 59 bs.aktZeitH
CBC7: 8550   STAz 50
CBC9: A900   LDAim 00
CBCB: 851E   STAz 1E
CBCD: 851F   STAz 1F
CBCF: A554   LDAz 54
CBD1: C55B   CMPz 5B bs.neueZeitH
CBD3: D007   BNE +7>DC
CBD5: A555   LDAz 55 hexedit.helpL
CBD7: C55C   CMPz 5C bs.uhrZeitL
CBD9: D001   BNE +1>DC
CBDB: 60     RTS
CBDC: A000   LDYim 00
CBDE: B154   LDAiy 54
CBE0: C91D   CMPim 1D
CBE2: D014   BNE +20>F8
CBE4: A550   LDAz 50
CBE6: CD00C4 CMP C400
CBE9: F007   BEQ +7>F2
CBEB: A920   LDAim 20
CBED: 200ACC JSR CC0A
CBF0: D0F2   BNE -14>E4
CBF2: A900   LDAim 00
CBF4: 8550   STAz 50
CBF6: F003   BEQ +3>FB
CBF8: 200ACC JSR CC0A
CBFB: E654   INCz 54
CBFD: D002   BNE +2>01
CBFF: E655   INCz 55 hexedit.helpL
CC01: 4CCFCB JMP CBCF
CC04: FFFFFF 
CC07: FF0000 
CC0A: 911C   STAiy 1C
CC0C: E61C   INCz 1C
CC0E: D002   BNE +2>12
CC10: E61D   INCz 1D
CC12: E61E   INCz 1E
CC14: D002   BNE +2>18
CC16: E61F   INCz 1F
CC18: E650   INCz 50
CC1A: A51D   LDAz 1D
CC1C: C5D5   CMPz D5
CC1E: EA     NOP
CC1F: 900C   BCC +12>2D
CC21: 200325 JSR 2503 hexedit.lwriteVonBis
CC24: 31CC   ANDiy CC bs.Transfer3.bisL
CC26: 52     
CC27: CCEAEA CPY EAEA
CC2A: 4CD2CA JMP CAD2
CC2D: 60     RTS
CC2E: FFFF02 ---- text data
CC31: 4665686C 65723A4B 6F6E7374 64617461  'Fehler:Konstdata'
CC41: 20207A75 206B7572 7A2E205A 65696C65  '  zu kurz. Zeile'
CC51: 20 ' '
CC52: 03     
CC53: 00     BRK
CC54: 00     BRK
CC55: 48     PHA
CC56: 2051CE JSR CE51
CC59: EA     NOP
CC5A: A61F   LDXz 1F
CC5C: D025   BNE +37>83
CC5E: A61E   LDXz 1E
CC60: E001   CPXim 01
CC62: D01F   BNE +31>83
CC64: A002   LDYim 02
CC66: B13F   LDAiy 3F
CC68: C8     INY
CC69: 9149   STAiy 49 hexedit.da.adrH
CC6B: A900   LDAim 00
CC6D: C8     INY
CC6E: 9149   STAiy 49 hexedit.da.adrH
CC70: C8     INY
CC71: 9149   STAiy 49 hexedit.da.adrH
CC73: C8     INY
CC74: 9149   STAiy 49 hexedit.da.adrH
CC76: A53F   LDAz 3F
CC78: 851C   STAz 1C
CC7A: A540   LDAz 40
CC7C: 851D   STAz 1D
CC7E: 68     PLA
CC7F: 0940   ORAim 40
CC81: D017   BNE +23>9A
CC83: A51F   LDAz 1F
CC85: A006   LDYim 06
CC87: 9149   STAiy 49 hexedit.da.adrH
CC89: A001   LDYim 01
CC8B: 913F   STAiy 3F
CC8D: A51E   LDAz 1E
CC8F: A005   LDYim 05
CC91: 9149   STAiy 49 hexedit.da.adrH
CC93: A000   LDYim 00
CC95: 913F   STAiy 3F
CC97: 68     PLA
CC98: 09A0   ORAim A0
CC9A: A000   LDYim 00
CC9C: 9149   STAiy 49 hexedit.da.adrH
CC9E: C8     INY
CC9F: A53F   LDAz 3F
CCA1: 9149   STAiy 49 hexedit.da.adrH
CCA3: C8     INY
CCA4: A540   LDAz 40
CCA6: 9149   STAiy 49 hexedit.da.adrH
CCA8: 60     RTS
CCA9: FFFFFF 
CCAC: FFFFFF 
CCAF: FF0000 
CCB2: A900   LDAim 00
CCB4: A6C6   LDXz C6
CCB6: 8549   STAz 49 hexedit.da.adrH
CCB8: 864A   STXz 4A
CCBA: A6D3   LDXz D3
CCBC: 851C   STAz 1C
CCBE: 861D   STXz 1D
CCC0: 60     RTS
CCC1: 00     BRK
CCC2: 00     BRK
CCC3: A911   LDAim 11
CCC5: 855A   STAz 5A bs.neueZeitL
CCC7: 20B5CB JSR CBB5
CCCA: A906   LDAim 06
CCCC: 2055CC JSR CC55
CCCF: 209BCE JSR CE9B
CCD2: B009   BCS +9>DD
CCD4: A53F   LDAz 3F
CCD6: 851C   STAz 1C
CCD8: A540   LDAz 40
CCDA: 851D   STAz 1D
CCDC: 60     RTS
CCDD: 18     CLC
CCDE: A549   LDAz 49 hexedit.da.adrH
CCE0: 6907   ADCim 07
CCE2: 8549   STAz 49 hexedit.da.adrH
CCE4: 9002   BCC +2>E8
CCE6: E64A   INCz 4A
CCE8: 60     RTS
CCE9: FFFFFF 
CCEC: FFFF00 
CCEF: 00     BRK
CCF0: A51C   LDAz 1C
CCF2: 853F   STAz 3F
CCF4: A51D   LDAz 1D
CCF6: 8540   STAz 40
CCF8: 18     CLC
CCF9: A902   LDAim 02
CCFB: 651C   ADCz 1C
CCFD: 851C   STAz 1C
CCFF: 9002   BCC +2>03
CD01: E61D   INCz 1D
CD03: 60     RTS
CD04: FFFFFF 
CD07: FF0000 
CD0A: 18     CLC
CD0B: 651E   ADCz 1E
CD0D: 851E   STAz 1E
CD0F: 9002   BCC +2>13
CD11: E61F   INCz 1F
CD13: 60     RTS
CD14: FFFFFF 
CD17: FF0000 
CD1A: A551   LDAz 51
CD1C: 2907   ANDim 07
CD1E: C907   CMPim 07
CD20: D00E   BNE +14>30
CD22: A907   LDAim 07
CD24: 200ACD JSR CD0A
CD27: A003   LDYim 03
CD29: 461F   LSRz 1F
CD2B: 661E   RORz 1E
CD2D: 88     DEY
CD2E: D0F9   BNE -7>29
CD30: 60     RTS
CD31: FFFFFF 
CD34: FFFFFF 
CD37: FFFFFF 
CD3A: FFFFFF 
CD3D: FFFFFF 
CD40: FFFFFF 
CD43: FFFFFF 
CD46: FFFFFF 
CD49: FFFFFF 
CD4C: FFFFFF 
CD4F: FFFFFF 
CD52: FF0000 
CD55: A000   LDYim 00
CD57: B15D   LDAiy 5D bs.uhrZeitH
CD59: C91D   CMPim 1D
CD5B: F00B   BEQ +11>68
CD5D: A55D   LDAz 5D bs.uhrZeitH
CD5F: D002   BNE +2>63
CD61: C65E   DECz 5E bs.breakZeitL
CD63: C65D   DECz 5D bs.uhrZeitH
CD65: 4C55CD JMP CD55
CD68: E65D   INCz 5D bs.uhrZeitH
CD6A: D002   BNE +2>6E
CD6C: E65E   INCz 5E bs.breakZeitL
CD6E: 60     RTS
CD6F: FFFFFF 
CD72: 00     BRK
CD73: 00     BRK
CD74: A900   LDAim 00
CD76: A6C6   LDXz C6
CD78: 8520   STAz 20
CD7A: 8621   STXz 21
CD7C: EA     NOP
CD7D: 20D424 JSR 24D4 hexedit.CR
CD80: 2027D9 JSR D927
CD83: 18     CLC
CD84: A520   LDAz 20
CD86: 6907   ADCim 07
CD88: 8520   STAz 20
CD8A: A521   LDAz 21
CD8C: 6900   ADCim 00
CD8E: 8521   STAz 21
CD90: A520   LDAz 20
CD92: C549   CMPz 49 hexedit.da.adrH
CD94: A521   LDAz 21
CD96: E54A   SBCz 4A
CD98: 90E3   BCC -29>7D
CD9A: 60     RTS
CD9B: FFFFFF 
CD9E: FFFFFF 
CDA1: FFFF00 
CDA4: 00     BRK
CDA5: EA     NOP
CDA6: EA     NOP
CDA7: EA     NOP
CDA8: EA     NOP
CDA9: EA     NOP
CDAA: 20F0CC JSR CCF0
CDAD: A55B   LDAz 5B bs.neueZeitH
CDAF: 8554   STAz 54
CDB1: A55C   LDAz 5C bs.uhrZeitL
CDB3: 8555   STAz 55 hexedit.helpL
CDB5: A900   LDAim 00
CDB7: 851E   STAz 1E
CDB9: 851F   STAz 1F
CDBB: 8550   STAz 50
CDBD: A554   LDAz 54
CDBF: C55D   CMPz 5D bs.uhrZeitH
CDC1: D006   BNE +6>C9
CDC3: A555   LDAz 55 hexedit.helpL
CDC5: C55E   CMPz 5E bs.breakZeitL
CDC7: F02F   BEQ +47>F8
CDC9: A554   LDAz 54
CDCB: D002   BNE +2>CF
CDCD: C655   DECz 55 hexedit.helpL
CDCF: C654   DECz 54
CDD1: A000   LDYim 00
CDD3: B154   LDAiy 54
CDD5: C91D   CMPim 1D
CDD7: F01C   BEQ +28>F5
CDD9: A550   LDAz 50
CDDB: D006   BNE +6>E3
CDDD: 8551   STAz 51
CDDF: A908   LDAim 08
CDE1: 8550   STAz 50
CDE3: B154   LDAiy 54
CDE5: 4A     LSRa
CDE6: 6651   RORz 51
CDE8: E61E   INCz 1E
CDEA: D002   BNE +2>EE
CDEC: E61F   INCz 1F
CDEE: C650   DECz 50
CDF0: D003   BNE +3>F5
CDF2: 200FCE JSR CE0F
CDF5: 4CBDCD JMP CDBD
CDF8: C650   DECz 50
CDFA: 300A   BMI +10>06
CDFC: 18     CLC
CDFD: 6651   RORz 51
CDFF: C650   DECz 50
CE01: 10F9   BPL -7>FC
CE03: 200FCE JSR CE0F
CE06: 60     RTS
CE07: FFFFFF 
CE0A: FFFFFF 
CE0D: 00     BRK
CE0E: 00     BRK
CE0F: A551   LDAz 51
CE11: A000   LDYim 00
CE13: 911C   STAiy 1C
CE15: E61C   INCz 1C
CE17: D002   BNE +2>1B
CE19: E61D   INCz 1D
CE1B: A51D   LDAz 1D
CE1D: C5D5   CMPz D5
CE1F: EA     NOP
CE20: 9003   BCC +3>25
CE22: 4C21CC JMP CC21
CE25: 60     RTS
CE26: FFFFFF 
CE29: FFFFFF 
CE2C: FFFF00 
CE2F: 00     BRK
CE30: A912   LDAim 12
CE32: 855A   STAz 5A bs.neueZeitL
CE34: 20A5CD JSR CDA5
CE37: A907   LDAim 07
CE39: 4CCCCC JMP CCCC
CE3C: 00     BRK
CE3D: 00     BRK
CE3E: A912   LDAim 12
CE40: 855A   STAz 5A bs.neueZeitL
CE42: 2035CF JSR CF35
CE45: A907   LDAim 07
CE47: 4CCCCC JMP CCCC
CE4A: FFFFFF 
CE4D: FFFF00 
CE50: 00     BRK
CE51: 18     CLC
CE52: A549   LDAz 49 hexedit.da.adrH
CE54: 6907   ADCim 07
CE56: A54A   LDAz 4A
CE58: 6900   ADCim 00
CE5A: C5C8   CMPz C8
CE5C: EA     NOP
CE5D: 9031   BCC +49>90
CE5F: 200325 JSR 2503 hexedit.lwriteVonBis
CE62: 6ECE8E ROR 8ECE
CE65: CEEAEA DEC EAEA
CE68: 4CD2CA JMP CAD2
CE6B: FFFF02 ---- text data
CE6E: 4665686C 65723A4B 6F6E7374 6C697374  'Fehler:Konstlist'
CE7E: 65207A75 206B7572 7A2E205A 65696C65  'e zu kurz. Zeile'
CE8E: 20 ' '
CE8F: 03     
CE90: 60     RTS
CE91: FFFFFF 
CE94: FFFFFF 
CE97: FFFF00 
CE9A: 00     BRK
CE9B: A900   LDAim 00
CE9D: A6C6   LDXz C6
CE9F: 8520   STAz 20
CEA1: 8621   STXz 21
CEA3: EA     NOP
CEA4: A520   LDAz 20
CEA6: C549   CMPz 49 hexedit.da.adrH
CEA8: A521   LDAz 21
CEAA: E54A   SBCz 4A
CEAC: 9001   BCC +1>AF
CEAE: 60     RTS
CEAF: A000   LDYim 00
CEB1: B149   LDAiy 49 hexedit.da.adrH
CEB3: D120   CMPiy 20
CEB5: 8551   STAz 51
CEB7: D06A   BNE +106>23
CEB9: A006   LDYim 06
CEBB: B149   LDAiy 49 hexedit.da.adrH
CEBD: D120   CMPiy 20
CEBF: 851F   STAz 1F
CEC1: D060   BNE +96>23
CEC3: 88     DEY
CEC4: B149   LDAiy 49 hexedit.da.adrH
CEC6: D120   CMPiy 20
CEC8: 851E   STAz 1E
CECA: D057   BNE +87>23
CECC: A551   LDAz 51
CECE: 3010   BMI +16>E0
CED0: 88     DEY
CED1: B149   LDAiy 49 hexedit.da.adrH
CED3: D120   CMPiy 20
CED5: D04C   BNE +76>23
CED7: 88     DEY
CED8: B149   LDAiy 49 hexedit.da.adrH
CEDA: D120   CMPiy 20
CEDC: D045   BNE +69>23
CEDE: 18     CLC
CEDF: 60     RTS
CEE0: A002   LDYim 02
CEE2: B120   LDAiy 20
CEE4: 8555   STAz 55 hexedit.helpL
CEE6: 88     DEY
CEE7: B120   LDAiy 20
CEE9: 8554   STAz 54
CEEB: A53F   LDAz 3F
CEED: 8541   STAz 41 hexedit.da.nr
CEEF: A540   LDAz 40
CEF1: 8542   STAz 42 hexedit.da.laenge
CEF3: 201ACD JSR CD1A
CEF6: A902   LDAim 02
CEF8: 200ACD JSR CD0A
CEFB: EA     NOP
CEFC: EA     NOP
CEFD: EA     NOP
CEFE: EA     NOP
CEFF: EA     NOP
CF00: A000   LDYim 00
CF02: A51E   LDAz 1E
CF04: D006   BNE +6>0C
CF06: C61F   DECz 1F
CF08: 1002   BPL +2>0C
CF0A: 18     CLC
CF0B: 60     RTS
CF0C: C61E   DECz 1E
CF0E: B154   LDAiy 54
CF10: D141   CMPiy 41 hexedit.da.nr
CF12: D00F   BNE +15>23
CF14: E654   INCz 54
CF16: D002   BNE +2>1A
CF18: E655   INCz 55 hexedit.helpL
CF1A: E641   INCz 41 hexedit.da.nr
CF1C: D002   BNE +2>20
CF1E: E642   INCz 42 hexedit.da.laenge
CF20: 4C02CF JMP CF02
CF23: 18     CLC
CF24: A520   LDAz 20
CF26: 6907   ADCim 07
CF28: 8520   STAz 20
CF2A: 9002   BCC +2>2E
CF2C: E621   INCz 21
CF2E: 4CA4CE JMP CEA4
CF31: FFFF00 
CF34: 00     BRK
CF35: EA     NOP
CF36: EA     NOP
CF37: EA     NOP
CF38: EA     NOP
CF39: EA     NOP
CF3A: 20F0CC JSR CCF0
CF3D: A55B   LDAz 5B bs.neueZeitH
CF3F: 8554   STAz 54
CF41: A55C   LDAz 5C bs.uhrZeitL
CF43: 8555   STAz 55 hexedit.helpL
CF45: A900   LDAim 00
CF47: 851E   STAz 1E
CF49: 851F   STAz 1F
CF4B: A902   LDAim 02
CF4D: 8550   STAz 50
CF4F: A554   LDAz 54
CF51: C55D   CMPz 5D bs.uhrZeitH
CF53: D006   BNE +6>5B
CF55: A555   LDAz 55 hexedit.helpL
CF57: C55E   CMPz 5E bs.breakZeitL
CF59: F031   BEQ +49>8C
CF5B: A554   LDAz 54
CF5D: D002   BNE +2>61
CF5F: C655   DECz 55 hexedit.helpL
CF61: C654   DECz 54
CF63: A000   LDYim 00
CF65: B154   LDAiy 54
CF67: C91D   CMPim 1D
CF69: F0E4   BEQ -28>4F
CF6B: 20A6CF JSR CFA6
CF6E: C650   DECz 50
CF70: D00F   BNE +15>81
CF72: A202   LDXim 02
CF74: 8650   STXz 50
CF76: 0A     ASLa
CF77: 0A     ASLa
CF78: 0A     ASLa
CF79: 0A     ASLa
CF7A: 0551   ORAz 51
CF7C: 2011CE JSR CE11
CF7F: 9002   BCC +2>83
CF81: 8551   STAz 51
CF83: E61E   INCz 1E
CF85: D002   BNE +2>89
CF87: E61F   INCz 1F
CF89: 4C4FCF JMP CF4F
CF8C: C650   DECz 50
CF8E: D003   BNE +3>93
CF90: 200FCE JSR CE0F
CF93: 061E   ASLz 1E
CF95: 261F   ROLz 1F
CF97: 061E   ASLz 1E
CF99: 261F   ROLz 1F
CF9B: 60     RTS
CF9C: FFFFFF 
CF9F: FFFFFF 
CFA2: FFFF00 
CFA5: 00     BRK
CFA6: C93A   CMPim 3A
CFA8: 9003   BCC +3>AD
CFAA: 38     SEC
CFAB: E907   SBCim 07
CFAD: 290F   ANDim 0F
CFAF: 60     RTS
CFB0: 00     BRK
CFB1: FFFFFF 
CFB4: FFFFFF 
CFB7: 00     BRK
CFB8: 00     BRK
CFB9: FFFF02 ---- text data
CFBC: 4665686C 65723A5A 61686C20 7A752067  'Fehler:Zahl zu g'
CFCC: 726F7373 2E205A65 696C6520  'ross. Zeile '
CFD8: 03     
CFD9: 200325 JSR 2503 hexedit.lwriteVonBis
CFDC: BCCFD7 LDYx D7CF
CFDF: CF     
CFE0: EA     NOP
CFE1: EA     NOP
CFE2: 4CD2CA JMP CAD2
CFE5: FFFFFF 
CFE8: FFFFFF 
CFEB: 00     BRK
CFEC: 00     BRK
CFED: A203   LDXim 03
CFEF: B518   LDAzx 18
CFF1: 9514   STAzx 14
CFF3: CA     DEX
CFF4: 10F9   BPL -7>EF
CFF6: 60     RTS
CFF7: 18     CLC
CFF8: A200   LDXim 00
CFFA: A004   LDYim 04
CFFC: B518   LDAzx 18
CFFE: 7514   ADCzx 14
D000: 9518   STAzx 18
D002: E8     INX
D003: 88     DEY
D004: D0F6   BNE -10>FC
D006: 9003   BCC +3>0B
D008: 20D9CF JSR CFD9
D00B: 60     RTS
D00C: 0618   ASLz 18
D00E: 2619   ROLz 19
D010: 261A   ROLz 1A
D012: 261B   ROLz 1B
D014: 9003   BCC +3>19
D016: 20D9CF JSR CFD9
D019: 60     RTS
D01A: 200CD0 JSR D00C
D01D: 20EDCF JSR CFED
D020: 200CD0 JSR D00C
D023: 200CD0 JSR D00C
D026: 20F7CF JSR CFF7
D029: 60     RTS
D02A: FFFFFF 
D02D: 00     BRK
D02E: 00     BRK
D02F: A51C   LDAz 1C
D031: 853F   STAz 3F
D033: A51D   LDAz 1D
D035: 8540   STAz 40
D037: A55D   LDAz 5D bs.uhrZeitH
D039: 8554   STAz 54
D03B: A55E   LDAz 5E bs.breakZeitL
D03D: 8555   STAz 55 hexedit.helpL
D03F: A900   LDAim 00
D041: 8518   STAz 18
D043: 8519   STAz 19
D045: 851A   STAz 1A
D047: 851B   STAz 1B
D049: A000   LDYim 00
D04B: B154   LDAiy 54
D04D: 290F   ANDim 0F
D04F: 18     CLC
D050: 6518   ADCz 18
D052: 8518   STAz 18
D054: 900F   BCC +15>65
D056: E619   INCz 19
D058: D00B   BNE +11>65
D05A: E61A   INCz 1A
D05C: D007   BNE +7>65
D05E: E61B   INCz 1B
D060: D003   BNE +3>65
D062: 20D9CF JSR CFD9
D065: E654   INCz 54
D067: D002   BNE +2>6B
D069: E655   INCz 55 hexedit.helpL
D06B: A554   LDAz 54
D06D: C55B   CMPz 5B bs.neueZeitH
D06F: D006   BNE +6>77
D071: A555   LDAz 55 hexedit.helpL
D073: C55C   CMPz 5C bs.uhrZeitL
D075: F006   BEQ +6>7D
D077: 201AD0 JSR D01A
D07A: 4C49D0 JMP D049
D07D: 2051CE JSR CE51
D080: A006   LDYim 06
D082: A203   LDXim 03
D084: B518   LDAzx 18
D086: 9149   STAiy 49 hexedit.da.adrH
D088: 88     DEY
D089: CA     DEX
D08A: 10F8   BPL -8>84
D08C: A244   LDXim 44
D08E: A51B   LDAz 1B
D090: 1005   BPL +5>97
D092: 20D9CF JSR CFD9
D095: 60     RTS
D096: EA     NOP
D097: 051A   ORAz 1A
D099: D00F   BNE +15>AA
D09B: CA     DEX
D09C: A519   LDAz 19
D09E: 300A   BMI +10>AA
D0A0: CA     DEX
D0A1: 0A     ASLa
D0A2: D006   BNE +6>AA
D0A4: CA     DEX
D0A5: A518   LDAz 18
D0A7: 3001   BMI +1>AA
D0A9: CA     DEX
D0AA: 8A     TXAa
D0AB: 209ACC JSR CC9A
D0AE: EA     NOP
D0AF: EA     NOP
D0B0: EA     NOP
D0B1: A913   LDAim 13
D0B3: 855A   STAz 5A bs.neueZeitL
D0B5: 4CCFCC JMP CCCF
D0B8: 00     BRK
D0B9: 00     BRK
D0BA: 00     BRK
D0BB: 00     BRK
D0BC: 00     BRK
D0BD: 00     BRK
D0BE: A900   LDAim 00
D0C0: A6C2   LDXz C2
D0C2: 8520   STAz 20
D0C4: 8621   STXz 21
D0C6: EA     NOP
D0C7: 20D424 JSR 24D4 hexedit.CR
D0CA: 2027D9 JSR D927
D0CD: 20C924 JSR 24C9 hexedit.2Blanks
D0D0: A00B   LDYim 0B
D0D2: B120   LDAiy 20
D0D4: 853F   STAz 3F
D0D6: C8     INY
D0D7: B120   LDAiy 20
D0D9: 8540   STAz 40
D0DB: C8     INY
D0DC: B120   LDAiy 20
D0DE: 8551   STAz 51
D0E0: A000   LDYim 00
D0E2: 8450   STYz 50
D0E4: B13F   LDAiy 3F
D0E6: 206324 JSR 2463 hexedit.write
D0E9: A450   LDYz 50
D0EB: C8     INY
D0EC: C451   CPYz 51
D0EE: D0F2   BNE -14>E2
D0F0: 18     CLC
D0F1: A520   LDAz 20
D0F3: 690E   ADCim 0E
D0F5: 8520   STAz 20
D0F7: 9002   BCC +2>FB
D0F9: E621   INCz 21
D0FB: A520   LDAz 20
D0FD: C545   CMPz 45 hexedit.da.erstes
D0FF: A521   LDAz 21
D101: E546   SBCz 46 hexedit.da.zweites
D103: 90C2   BCC -62>C7
D105: 60     RTS
D106: FFFFFF 
D109: FFFFFF 
D10C: FFFF00 
D10F: 00     BRK
D110: 0C     
D111: 07     
D112: 1107   ORAiy 07
D114: 0C     
D115: 0911   ORAim 11
D117: 090C   ORAim 0C
D119: 0B     
D11A: 110B   ORAiy 0B
D11C: 0C     
D11D: 0D110D ORA 0D11
D120: 0C     
D121: 0F     
D122: 110F   ORAiy 0F
D124: 0C     
D125: 1111   ORAiy 11
D127: 110C   ORAiy 0C
D129: 13     
D12A: 1113   ORAiy 13
D12C: 0C     
D12D: 1511   ORAzx 11
D12F: 1516   ORAzx 16
D131: 07     
D132: 1609   ASLzx 09
D134: 160B   ASLzx 0B
D136: 160D   ASLzx 0D
D138: 160F   ASLzx 0F
D13A: 1611   ASLzx 11
D13C: 1613   ASLzx 13
D13E: 1615   ASLzx 15
D140: 62     
D141: 00     BRK
D142: 64     
D143: 00     BRK
D144: D600   DECzx 00
D146: D8     CLD
D147: 00     BRK
D148: D2     
D149: 00     BRK
D14A: D4     
D14B: 00     BRK
D14C: D000   BNE +0>4E
D14E: DA     
D14F: 00     BRK
D150: 3900B4 ANDy B400
D153: 00     BRK
D154: DC     
D155: 00     BRK
D156: BF     
D157: 00     BRK
D158: C100   CMPix 00
D15A: C3     
D15B: 00     BRK
D15C: C500   CMPz 00
D15E: C7     
D15F: 00     BRK
D160: 60     RTS
D161: 00     BRK
D162: 12     
D163: 00     BRK
D164: 1C     
D165: 00     BRK
D166: 43     
D167: 00     BRK
D168: B2     
D169: 00     BRK
D16A: 47     
D16B: 00     BRK
D16C: 4500   EORz 00
D16E: 4900   EORim 00
D170: 00     BRK
D171: 00     BRK
D172: FFFF02 ---- text data
D175: 434F4D50 494C4552 1D1D2020 284B6F6D  'COMPILER??  (Kom'
D185: 6D616E64 6F732063 20672061 2065206C  'mandos c g a e l'
D195: 2073291D 1D ' s)??'
D19A: 00     BRK
D19B: 00     BRK
D19C: 00     BRK
D19D: 00     BRK
D19E: 00     BRK
D19F: 00     BRK
D1A0: 00     BRK
D1A1: 00     BRK
D1A2: 202020 JSR 2020
D1A5: 202020 JSR 2020
D1A8: 766F   RORzx 6F
D1AA: 6E2020 ROR 2020
D1AD: 62     
D1AE: 6973   ADCim 73
D1B0: 202061 JSR 6120
D1B3: 6B     
D1B4: 74     
D1B5: 201D1D JSR 1D1D
D1B8: 1D536F ORAx 6F53
D1BB: 7572   ADCzx 72
D1BD: 63     
D1BE: 651D   ADCz 1D
D1C0: 1D436F ORAx 6F43
D1C3: 64     
D1C4: 651D   ADCz 1D
D1C6: 1D4461 ORAx 6144
D1C9: 74     
D1CA: 611D   ADCix 1D
D1CC: 1D5A65 ORAx 655A
D1CF: 72     
D1D0: 6F     
D1D1: 1D1D4D ORAx 4D1D
D1D4: 6572   ADCz 72
D1D6: 6B     
D1D7: 651D   ADCz 1D
D1D9: 1D4E61 ORAx 614E
D1DC: 6D656E ADC 6E65
D1DF: 6C6973 JMPi 7369
D1E2: 74     
D1E3: 1D1D03 ORAx 031D
D1E6: FFFFFF 
D1E9: FF0000 
D1EC: 206624 JSR 2466 hexedit.openOutVideo
D1EF: 203923 JSR 2339 hexedit.setCurs
D1F2: 2400   BITz 00
D1F4: 200625 JSR 2506 hexedit.writeVonBis
D1F7: 75D1   ADCzx D1
D1F9: E4D1   CPXz D1
D1FB: EA     NOP
D1FC: A22E   LDXim 2E
D1FE: 8606   STXz 06
D200: BD40D1 LDAx D140
D203: 8504   STAz 04
D205: BD41D1 LDAx D141
D208: 8505   STAz 05
D20A: BD10D1 LDAx D110
D20D: 8598   STAz 98 hexedit.videoSpa
D20F: BD11D1 LDAx D111
D212: 8599   STAz 99 hexedit.video2
D214: 20FD22 JSR 22FD hexedit.cursAdrSql
D217: A001   LDYim 01
D219: B104   LDAiy 04
D21B: 20EF24 JSR 24EF hexedit.byteDru
D21E: A000   LDYim 00
D220: B104   LDAiy 04
D222: 20EF24 JSR 24EF hexedit.byteDru
D225: C606   DECz 06
D227: C606   DECz 06
D229: A606   LDXz 06
D22B: 10D3   BPL -45>00
D22D: 206423 JSR 2364 hexedit.Home
D230: 60     RTS
D231: 00     BRK
D232: 00     BRK
D233: 20ECD1 JSR D1EC
D236: 4C1D1C JMP 1C1D monitor.RESET
D239: 00     BRK
D23A: 00     BRK
D23B: 00     BRK
D23C: 00     BRK
D23D: 00     BRK
D23E: 00     BRK
D23F: 00     BRK
D240: A527   LDAz 27
D242: D009   BNE +9>4D
D244: 20ECD1 JSR D1EC
D247: 203923 JSR 2339 hexedit.setCurs
D24A: 00     BRK
D24B: 16EA   ASLzx EA
D24D: 2093D5 JSR D593
D250: A252   LDXim 52
D252: 2080C8 JSR C880
D255: 20C924 JSR 24C9 hexedit.2Blanks
D258: A004   LDYim 04
D25A: 20A525 JSR 25A5 bs.KPUe
D25D: A003   LDYim 03
D25F: 68     PLA
D260: 993100 STAy 0031
D263: 88     DEY
D264: 10F9   BPL -7>5F
D266: 201425 JSR 2514 hexedit.writeBlock
D269: 206423 JSR 2364 hexedit.Home
D26C: 20D038 JSR 38D0 rkv.initBs
D26F: 208B24 JSR 248B hexedit.openInHexKb
D272: 4CF6D3 JMP D3F6
D275: 33     
D276: A900   LDAim 00
D278: 8500   STAz 00
D27A: F004   BEQ +4>80
D27C: E600   INCz 00
D27E: E600   INCz 00
D280: A600   LDXz 00
D282: E020   CPXim 20
D284: 9004   BCC +4>8A
D286: 206423 JSR 2364 hexedit.Home
D289: 60     RTS
D28A: BD10D1 LDAx D110
D28D: 8598   STAz 98 hexedit.videoSpa
D28F: BD11D1 LDAx D111
D292: 8599   STAz 99 hexedit.video2
D294: 20FD22 JSR 22FD hexedit.cursAdrSql
D297: 60     RTS
D298: FFFFFF 
D29B: FFFFFF 
D29E: 22     
D29F: 33     
D2A0: A21E   LDXim 1E
D2A2: 8601   STXz 01
D2A4: BD40D1 LDAx D140
D2A7: 8504   STAz 04
D2A9: BD41D1 LDAx D141
D2AC: 8505   STAz 05
D2AE: BD10D1 LDAx D110
D2B1: 8598   STAz 98 hexedit.videoSpa
D2B3: BD11D1 LDAx D111
D2B6: 8599   STAz 99 hexedit.video2
D2B8: 20FD22 JSR 22FD hexedit.cursAdrSql
D2BB: A000   LDYim 00
D2BD: 2041D3 JSR D341
D2C0: B023   BCS +35>E5
D2C2: A001   LDYim 01
D2C4: 9104   STAiy 04
D2C6: A002   LDYim 02
D2C8: 2041D3 JSR D341
D2CB: B018   BCS +24>E5
D2CD: A000   LDYim 00
D2CF: 9104   STAiy 04
D2D1: C601   DECz 01
D2D3: C601   DECz 01
D2D5: A601   LDXz 01
D2D7: 10CB   BPL -53>A4
D2D9: 20ECD1 JSR D1EC
D2DC: A941   LDAim 41
D2DE: 8D0008 STA 0800
D2E1: 207CD2 JSR D27C
D2E4: 60     RTS
D2E5: 20ECD1 JSR D1EC
D2E8: A941   LDAim 41
D2EA: 8D0008 STA 0800
D2ED: 201029 JSR 2910 hexedit.copy
D2F0: 03     
D2F1: D3     
D2F2: 1A     
D2F3: D3     
D2F4: 00     BRK
D2F5: 16A6   ASLzx A6
D2F7: 0186   ORAix 86
D2F9: 00     BRK
D2FA: 2080D2 JSR D280
D2FD: 60     RTS
D2FE: 00     BRK
D2FF: 00     BRK
D300: FFFF02 ---- text data
D303: 46616C73 63686520 41647265 7373652C  'Falsche Adresse,'
D313: 00     BRK
D314: 6E6F63 ROR 636F
D317: 68     PLA
D318: 6D616C ADC 6C61
D31B: 00     BRK
D31C: 03     
D31D: FFFF00 
D320: FF0000 
D323: 209925 JSR 2599 hexedit.Grossbuchstaben
D326: C930   CMPim 30
D328: 9012   BCC +18>3C
D32A: C947   CMPim 47
D32C: B00E   BCS +14>3C
D32E: C93A   CMPim 3A
D330: 9006   BCC +6>38
D332: C941   CMPim 41
D334: 9006   BCC +6>3C
D336: E907   SBCim 07
D338: 290F   ANDim 0F
D33A: 18     CLC
D33B: 60     RTS
D33C: 38     SEC
D33D: 60     RTS
D33E: FF0000 
D341: B19A   LDAiy 9A hexedit.video3
D343: 2023D3 JSR D323
D346: 9001   BCC +1>49
D348: 60     RTS
D349: 0A     ASLa
D34A: 0A     ASLa
D34B: 0A     ASLa
D34C: 0A     ASLa
D34D: 8506   STAz 06
D34F: C8     INY
D350: B19A   LDAiy 9A hexedit.video3
D352: 2023D3 JSR D323
D355: 9001   BCC +1>58
D357: 60     RTS
D358: 0506   ORAz 06
D35A: 60     RTS
D35B: 00     BRK
D35C: FFFFFF 
D35F: FFFFFF 
D362: 00     BRK
D363: 00     BRK
D364: 206024 JSR 2460 hexedit.read
D367: 48     PHA
D368: 206324 JSR 2463 hexedit.write
D36B: 68     PLA
D36C: C91D   CMPim 1D
D36E: D0F4   BNE -12>64
D370: 60     RTS
D371: FF0000 
D374: 2064D3 JSR D364
D377: AD0008 LDA 0800
D37A: 209925 JSR 2599 hexedit.Grossbuchstaben
D37D: C943   CMPim 43
D37F: D007   BNE +7>88
D381: 2030D5 JSR D530
D384: 20ECD1 JSR D1EC
D387: 60     RTS
D388: C94C   CMPim 4C
D38A: D00D   BNE +13>99
D38C: A5D6   LDAz D6
D38E: A6D7   LDXz D7
D390: 85FA   STAz FA monitor.POINTL
D392: 86FB   STXz FB monitor.POINTH
D394: 4C002F JMP 2F00 hexedit.main
D397: EA     NOP
D398: EA     NOP
D399: C947   CMPim 47
D39B: D00B   BNE +11>A8
D39D: 200625 JSR 2506 hexedit.writeVonBis
D3A0: 26D5   ROLz D5
D3A2: 2B     
D3A3: D5EA   CMPzx EA
D3A5: 6CD600 JMPi 00D6
D3A8: C945   CMPim 45
D3AA: D003   BNE +3>AF
D3AC: 4C0040 JMP 4000 Texteditor
D3AF: C941   CMPim 41
D3B1: D012   BNE +18>C5
D3B3: A599   LDAz 99 hexedit.video2
D3B5: C901   CMPim 01
D3B7: D006   BNE +6>BF
D3B9: 2076D2 JSR D276
D3BC: 4C74D3 JMP D374
D3BF: 20A0D2 JSR D2A0
D3C2: 4C74D3 JMP D374
D3C5: C953   CMPim 53
D3C7: D005   BNE +5>CE
D3C9: 20F2D7 JSR D7F2
D3CC: 3A     
D3CD: D8     CLD
D3CE: EA     NOP
D3CF: EA     NOP
D3D0: 20ECD1 JSR D1EC
D3D3: 4C74D3 JMP D374
D3D6: FFFFFF 
D3D9: FFFFFF 
D3DC: FFFFFF 
D3DF: FFFFFF 
D3E2: FFFFFF 
D3E5: FFFFFF 
D3E8: FFFFFF 
D3EB: FFFFFF 
D3EE: 00     BRK
D3EF: 00     BRK
D3F0: 4C0083 JMP 8300
D3F3: 20ECD1 JSR D1EC
D3F6: A2FF   LDXim FF
D3F8: 9A     TXS
D3F9: 2074D3 JSR D374
D3FC: 4CF6D3 JMP D3F6
D3FF: 00     BRK
D400: C64B   DECz 4B
D402: F012   BEQ +18>16
D404: A44B   LDYz 4B
D406: B139   LDAiy 39
D408: 8524   STAz 24
D40A: 60     RTS
D40B: A44B   LDYz 4B
D40D: C436   CPYz 36
D40F: B005   BCS +5>16
D411: 9139   STAiy 39
D413: E64B   INCz 4B
D415: 60     RTS
D416: 207CDB JSR DB7C
D419: 1500   ORAzx 00
D41B: FFFFFF 
D41E: 22     
D41F: 33     
D420: A425   LDYz 25
D422: EA     NOP
D423: EA     NOP
D424: 18     CLC
D425: B12D   LDAiy 2D
D427: 652F   ADCz 2F
D429: 853B   STAz 3B
D42B: EA     NOP
D42C: B137   LDAiy 37
D42E: 6530   ADCz 30
D430: 853C   STAz 3C
D432: C8     INY
D433: 38     SEC
D434: B12D   LDAiy 2D
D436: EA     NOP
D437: 88     DEY
D438: F12D   SBCiy 2D
D43A: A8     TAY
D43B: F00C   BEQ +12>49
D43D: 88     DEY
D43E: 8435   STYz 35
D440: B13B   LDAiy 3B
D442: 200BD4 JSR D40B
D445: A435   LDYz 35
D447: D0F4   BNE -12>3D
D449: 60     RTS
D44A: FF2233 
D44D: 00     BRK
D44E: C3     
D44F: 00     BRK
D450: BE00BF LDXy BF00
D453: 00     BRK
D454: C100   CMPix 00
D456: 00     BRK
D457: 00     BRK
D458: 00     BRK
D459: 00     BRK
D45A: FE00C0 INCx C000
D45D: 22     
D45E: 33     
D45F: A20F   LDXim 0F
D461: BD4DD4 LDAx D44D
D464: 9529   STAzx 29
D466: CA     DEX
D467: 10F8   BPL -8>61
D469: A902   LDAim 02
D46B: 854B   STAz 4B
D46D: A900   LDAim 00
D46F: 200BD4 JSR D40B
D472: A981   LDAim 81
D474: 200BD4 JSR D40B
D477: EA     NOP
D478: EA     NOP
D479: EA     NOP
D47A: A980   LDAim 80
D47C: 8523   STAz 23
D47E: 2000D4 JSR D400
D481: EA     NOP
D482: EA     NOP
D483: EA     NOP
D484: A524   LDAz 24
D486: 1035   BPL +53>BD
D488: C980   CMPim 80
D48A: D00C   BNE +12>98
D48C: 2000D4 JSR D400
D48F: 2080D5 JSR D580
D492: 2000D4 JSR D400
D495: 18     CLC
D496: 90E9   BCC -23>81
D498: A424   LDYz 24
D49A: B129   LDAiy 29
D49C: 8525   STAz 25
D49E: A424   LDYz 24
D4A0: C8     INY
D4A1: D129   CMPiy 29
D4A3: D001   BNE +1>A6
D4A5: 60     RTS
D4A6: A8     TAY
D4A7: B12B   LDAiy 2B
D4A9: 300B   BMI +11>B6
D4AB: 20D0D4 JSR D4D0
D4AE: F006   BEQ +6>B6
D4B0: E625   INCz 25
D4B2: A525   LDAz 25
D4B4: D0E8   BNE -24>9E
D4B6: 8524   STAz 24
D4B8: 2020D4 JSR D420
D4BB: F0C4   BEQ -60>81
D4BD: 20D0D4 JSR D4D0
D4C0: F003   BEQ +3>C5
D4C2: A900   LDAim 00
D4C4: 60     RTS
D4C5: AA     TAX
D4C6: D0B2   BNE -78>7A
D4C8: E8     INX
D4C9: 60     RTS
D4CA: FFFFFF 
D4CD: FF2233 
D4D0: A623   LDXz 23
D4D2: 1016   BPL +22>EA
D4D4: 48     PHA
D4D5: 20C3C6 JSR C6C3
D4D8: A55A   LDAz 5A bs.neueZeitL
D4DA: C914   CMPim 14
D4DC: D002   BNE +2>E0
D4DE: A900   LDAim 00
D4E0: 8523   STAz 23
D4E2: A527   LDAz 27
D4E4: F003   BEQ +3>E9
D4E6: 20BCD5 JSR D5BC
D4E9: 68     PLA
D4EA: C523   CMPz 23
D4EC: 60     RTS
D4ED: FFFF22 
D4F0: 33     
D4F1: FFFF02 ---- text data
D4F4: 23436F6D 70696C69 6E671D23 53796E74  '#Compiling?#Synt'
D504: 616B7469 73636820 65696E77 616E6466  'aktisch einwandf'
D514: 7265691D 2353796E 74617866 65686C65  'rei?#Syntaxfehle'
D524: 721D476F 696E671D  'r?Going?'
D52C: 03     
D52D: FF0000 
D530: 206624 JSR 2466 hexedit.openOutVideo
D533: 200625 JSR 2506 hexedit.writeVonBis
D536: F4     
D537: D4     
D538: FDD4EA SBCx EAD4
D53B: 20E923 JSR 23E9 hexedit.block.initInFile
D53E: 2003C8 JSR C803
D541: 2049CA JSR CA49
D544: 20DAC9 JSR C9DA
D547: 20B2CC JSR CCB2
D54A: 20D08E JSR 8ED0
D54D: EA     NOP
D54E: EA     NOP
D54F: EA     NOP
D550: 205FD4 JSR D45F
D553: F00B   BEQ +11>60
D555: 2040D2 JSR D240
D558: FFD416 
D55B: D5EA   CMPzx EA
D55D: 4C1D1C JMP 1C1D monitor.RESET
D560: 2040D2 JSR D240
D563: 18     CLC
D564: D524   CMPzx 24
D566: D5EA   CMPzx EA
D568: 4C1D1C JMP 1C1D monitor.RESET
D56B: FFFFFF 
D56E: FFFFFF 
D571: FFFFFF 
D574: FFFFFF 
D577: FFFFFF 
D57A: FFFFFF 
D57D: FF2233 
D580: 0A     ASLa
D581: D001   BNE +1>84
D583: 60     RTS
D584: AA     TAX
D585: BD00D6 LDAx D600
D588: 853B   STAz 3B
D58A: BD01D6 LDAx D601
D58D: 853C   STAz 3C
D58F: 6C3B00 JMPi 003B
D592: 33     
D593: 20D424 JSR 24D4 hexedit.CR
D596: A04F   LDYim 4F
D598: A920   LDAim 20
D59A: 919A   STAiy 9A hexedit.video3
D59C: 88     DEY
D59D: 10FB   BPL -5>9A
D59F: 60     RTS
D5A0: A002   LDYim 02
D5A2: C44B   CPYz 4B
D5A4: F00F   BEQ +15>B5
D5A6: B139   LDAiy 39
D5A8: 8450   STYz 50
D5AA: 20EF24 JSR 24EF hexedit.byteDru
D5AD: 20CE24 JSR 24CE hexedit.Blank
D5B0: A450   LDYz 50
D5B2: C8     INY
D5B3: D0ED   BNE -19>A2
D5B5: A524   LDAz 24
D5B7: 20EF24 JSR 24EF hexedit.byteDru
D5BA: 60     RTS
D5BB: 33     
D5BC: A599   LDAz 99 hexedit.video2
D5BE: C91B   CMPim 1B
D5C0: D003   BNE +3>C5
D5C2: 206024 JSR 2460 hexedit.read
D5C5: 2093D5 JSR D593
D5C8: 20A0D5 JSR D5A0
D5CB: A940   LDAim 40
D5CD: 8598   STAz 98 hexedit.videoSpa
D5CF: 20FD22 JSR 22FD hexedit.cursAdrSql
D5D2: A523   LDAz 23
D5D4: 20EF24 JSR 24EF hexedit.byteDru
D5D7: 20CE24 JSR 24CE hexedit.Blank
D5DA: 2090C9 JSR C990
D5DD: 60     RTS
D5DE: FFFFFF 
D5E1: FFFFFF 
D5E4: FFFFFF 
D5E7: FFFFFF 
D5EA: FFFFFF 
D5ED: FFFFFF 
D5F0: FFFFFF 
D5F3: FFFFFF 
D5F6: FFFFFF 
D5F9: FFFFFF 
D5FC: FFFF22 
D5FF: 33     
D600: 60     RTS
D601: 00     BRK
D602: E1DA   SBCix DA
D604: 00     BRK
D605: D600   DECzx 00
D607: D600   DECzx 00
D609: D640   DECzx 40
D60B: 8447   STYz 47 hexedit.da.drittes
D60D: 8400   STYz 00
D60F: D66F   DECzx 6F
D611: 847A   STYz 7A
D613: 8484   STYz 84
D615: 8420   STYz 20
D617: 84CD   STYz CD bs.Transfer3.bisH
D619: 8459   STYz 59 bs.aktZeitH
D61B: 840E   STYz 0E
D61D: 852B   STAz 2B
D61F: 853A   STAz 3A
D621: 85A5   STAz A5
D623: 86D0   STXz D0
D625: 86ED   STXz ED
D627: 8616   STXz 16
D629: 87     
D62A: 2987   ANDim 87
D62C: 83     
D62D: 87     
D62E: E987   SBCim 87
D630: 208E2E JSR 2E8E
D633: 8E6995 STX 9569
D636: 6F     
D637: 8E7F8E STX 8E7F
D63A: 868E   STXz 8E bs.maxTask
D63C: 8E8EA2 STX A28E
D63F: 8E428E STX 8E42
D642: C18E   CMPix 8E bs.maxTask
D644: 7F     
D645: 90D9   BCC -39>20
D647: 900C   BCC +12>55
D649: 913E   STAiy 3E
D64B: 9191   STAiy 91 bs.modus
D64D: 959F   STAzx 9F
D64F: 95F8   STAzx F8
D651: 9587   STAzx 87
D653: 9626   STXzy 26
D655: 9616   STXzy 16
D657: 97     
D658: 00     BRK
D659: D600   DECzx 00
D65B: D600   DECzx 00
D65D: D600   DECzx 00
D65F: D628   DECzx 28
D661: 97     
D662: A8     TAY
D663: 98     TYA
D664: 7C     
D665: 98     TYA
D666: BC98E1 LDYx E198
D669: 98     TYA
D66A: EA     NOP
D66B: 98     TYA
D66C: 00     BRK
D66D: D615   DECzx 15
D66F: 99089B STAy 9B08
D672: 2999   ANDim 99
D674: 7C     
D675: 993399 STAy 9933
D678: 00     BRK
D679: D600   DECzx 00
D67B: D63D   DECzx 3D
D67D: 9900D6 STAy D600
D680: 82     
D681: 9B     
D682: 8B     
D683: 9B     
D684: B69B   LDXzy 9B hexedit.video4
D686: 13     
D687: 9C     
D688: 00     BRK
D689: D600   DECzx 00
D68B: D600   DECzx 00
D68D: D600   DECzx 00
D68F: D600   DECzx 00
D691: D600   DECzx 00
D693: D600   DECzx 00
D695: D600   DECzx 00
D697: D600   DECzx 00
D699: D600   DECzx 00
D69B: D600   DECzx 00
D69D: D600   DECzx 00
D69F: D663   DECzx 63
D6A1: 9D6F9D STAx 9D6F
D6A4: 78     SEI
D6A5: 9DF09D STAx 9DF0
D6A8: 199E3C ORAy 3C9E
D6AB: 9E     
D6AC: 57     
D6AD: 9E     
D6AE: 9E     
D6AF: 9E     
D6B0: D4     
D6B1: 9E     
D6B2: E49E   CPXz 9E
D6B4: 1D9F00 ORAx 009F
D6B7: D600   DECzx 00
D6B9: D600   DECzx 00
D6BB: D600   DECzx 00
D6BD: D600   DECzx 00
D6BF: D600   DECzx 00
D6C1: D600   DECzx 00
D6C3: D600   DECzx 00
D6C5: D600   DECzx 00
D6C7: D600   DECzx 00
D6C9: D600   DECzx 00
D6CB: 00     BRK
D6CC: 00     BRK
D6CD: 00     BRK
D6CE: 00     BRK
D6CF: 00     BRK
D6D0: 00     BRK
D6D1: 00     BRK
D6D2: 00     BRK
D6D3: 00     BRK
D6D4: 00     BRK
D6D5: 00     BRK
D6D6: 00     BRK
D6D7: 00     BRK
D6D8: 00     BRK
D6D9: 00     BRK
D6DA: 00     BRK
D6DB: 00     BRK
D6DC: 00     BRK
D6DD: 00     BRK
D6DE: 00     BRK
D6DF: 00     BRK
D6E0: 00     BRK
D6E1: 00     BRK
D6E2: 00     BRK
D6E3: 00     BRK
D6E4: 00     BRK
D6E5: 00     BRK
D6E6: 00     BRK
D6E7: 00     BRK
D6E8: 00     BRK
D6E9: 00     BRK
D6EA: 00     BRK
D6EB: 00     BRK
D6EC: 00     BRK
D6ED: 00     BRK
D6EE: 00     BRK
D6EF: 00     BRK
D6F0: FF0000 
D6F3: FFFF00 
D6F6: 00     BRK
D6F7: FFFF00 
D6FA: 00     BRK
D6FB: FFFF00 
D6FE: 00     BRK
D6FF: 00     BRK
D700: 00     BRK
D701: 00     BRK
D702: 00     BRK
D703: FFFF02 ---- text data
D706: 2023205E 736B616C 73746B20 3F31303F  ' # ^skalstk ?10?'
D716: 3F31383F 61312020 6131643F 61322020  '?18?a1  a1d?a2  '
D726: 6132643F 69372020 69382020 69313520  'a2d?i7  i8  i15 '
D736: 69313620 69333120 6933323F 63687220  'i16 i31 i32?chr '
D746: 62697420 3F75763F 70726F67 66756E63  'bit ?uv?progfunc'
D756: 70726F63 73747275 3F32383F 3F33303F  'procstru?28??30?'
D766: 3F33383F 616C7A20 69647063 66753F3F  '?38?alz idpcfu??'
D776: 3F3F3F3F  '????'
D77A: 03     
D77B: A903   LDAim 03
D77D: 8550   STAz 50
D77F: A651   LDXz 51
D781: BD0AD7 LDAx D70A
D784: 206324 JSR 2463 hexedit.write
D787: E651   INCz 51
D789: C650   DECz 50
D78B: 10F2   BPL -14>7F
D78D: 60     RTS
D78E: 00     BRK
D78F: 00     BRK
D790: 00     BRK
D791: 48     PHA
D792: 29C0   ANDim C0
D794: F027   BEQ +39>BD
D796: 48     PHA
D797: 4A     LSRa
D798: 4A     LSRa
D799: 4A     LSRa
D79A: 4A     LSRa
D79B: 4A     LSRa
D79C: 4A     LSRa
D79D: AA     TAX
D79E: BD06D7 LDAx D706
D7A1: 206324 JSR 2463 hexedit.write
D7A4: 68     PLA
D7A5: 68     PLA
D7A6: 48     PHA
D7A7: 2938   ANDim 38
D7A9: 4A     LSRa
D7AA: 8551   STAz 51
D7AC: 207BD7 JSR D77B
D7AF: 68     PLA
D7B0: 2907   ANDim 07
D7B2: 0A     ASLa
D7B3: 0A     ASLa
D7B4: 0920   ORAim 20
D7B6: 8551   STAz 51
D7B8: 207BD7 JSR D77B
D7BB: 60     RTS
D7BC: 00     BRK
D7BD: 68     PLA
D7BE: 48     PHA
D7BF: 2938   ANDim 38
D7C1: F00A   BEQ +10>CD
D7C3: 4A     LSRa
D7C4: 0940   ORAim 40
D7C6: 8551   STAz 51
D7C8: 207BD7 JSR D77B
D7CB: 68     PLA
D7CC: 60     RTS
D7CD: A975   LDAim 75
D7CF: 206324 JSR 2463 hexedit.write
D7D2: A976   LDAim 76
D7D4: 206324 JSR 2463 hexedit.write
D7D7: 20C924 JSR 24C9 hexedit.2Blanks
D7DA: 68     PLA
D7DB: 2907   ANDim 07
D7DD: 0A     ASLa
D7DE: EA     NOP
D7DF: 0960   ORAim 60
D7E1: 8551   STAz 51
D7E3: A901   LDAim 01
D7E5: 8550   STAz 50
D7E7: 207FD7 JSR D77F
D7EA: 20CE24 JSR 24CE hexedit.Blank
D7ED: 60     RTS
D7EE: FFFFFF 
D7F1: 00     BRK
D7F2: EA     NOP
D7F3: A002   LDYim 02
D7F5: 20A525 JSR 25A5 bs.KPUe
D7F8: 68     PLA
D7F9: 8509   STAz 09
D7FB: 68     PLA
D7FC: 8508   STAz 08
D7FE: A000   LDYim 00
D800: B108   LDAiy 08
D802: D001   BNE +1>05
D804: 60     RTS
D805: 8507   STAz 07
D807: C8     INY
D808: B108   LDAiy 08
D80A: AA     TAX
D80B: C8     INY
D80C: B108   LDAiy 08
D80E: 9500   STAzx 00
D810: E8     INX
D811: C8     INY
D812: C607   DECz 07
D814: D0F6   BNE -10>0C
D816: F0E8   BEQ -24>00
D818: 60     RTS
D819: FFFFFF 
D81C: FFFFFF 
D81F: FFFFFF 
D822: 00     BRK
D823: 00     BRK
D824: A006   LDYim 06
D826: A203   LDXim 03
D828: B120   LDAiy 20
D82A: 9514   STAzx 14
D82C: 88     DEY
D82D: CA     DEX
D82E: 10F8   BPL -8>28
D830: A900   LDAim 00
D832: 8511   STAz 11
D834: 20DFE0 JSR E0DF
D837: 60     RTS
D838: 22     
D839: 33     
D83A: 0127   ORAix 27
D83C: 00     BRK
D83D: 02     
D83E: 390068 ANDy 6800 Superhirn
D841: 02     
D842: 62     
D843: BB     
D844: 4F     
D845: 02     
D846: B400   LDYz 00
D848: 6C0ABF JMPi BF0A
D84B: 00     BRK
D84C: 7000   BCS +0>4E
D84E: 7000   BCS +0>50
D850: 7C     
D851: 00     BRK
D852: 7C     
D853: 00     BRK
D854: 83     
D855: 0ED0A1 ASL A1D0
D858: 00     BRK
D859: 00     BRK
D85A: A000   LDYim 00
D85C: A8     TAY
D85D: 00     BRK
D85E: A8     TAY
D85F: 00     BRK
D860: BEC900 LDXy 00C9
D863: 00     BRK
D864: 6C0000 JMPi 0000
D867: A003   LDYim 03
D869: 8451   STYz 51
D86B: B120   LDAiy 20
D86D: 20EF24 JSR 24EF hexedit.byteDru
D870: A451   LDYz 51
D872: C8     INY
D873: C007   CPYim 07
D875: D0F2   BNE -14>69
D877: 20CE24 JSR 24CE hexedit.Blank
D87A: 2024D8 JSR D824
D87D: 20B1E0 JSR E0B1
D880: 60     RTS
D881: FFFFFF 
D884: FF0000 
D887: A001   LDYim 01
D889: B154   LDAiy 54
D88B: 851F   STAz 1F
D88D: 20EF24 JSR 24EF hexedit.byteDru
D890: A000   LDYim 00
D892: B154   LDAiy 54
D894: 851E   STAz 1E
D896: 20EF24 JSR 24EF hexedit.byteDru
D899: A927   LDAim 27
D89B: 206324 JSR 2463 hexedit.write
D89E: 60     RTS
D89F: FFFFFF 
D8A2: FF0000 
D8A5: 00     BRK
D8A6: 00     BRK
D8A7: 2087D8 JSR D887
D8AA: 204AE1 JSR E14A
D8AD: A927   LDAim 27
D8AF: 206324 JSR 2463 hexedit.write
D8B2: 60     RTS
D8B3: FFFFFF 
D8B6: FFFFFF 
D8B9: FFFFFF 
D8BC: FFFFFF 
D8BF: FFFFFF 
D8C2: FFFFFF 
D8C5: FFFFFF 
D8C8: FFFFFF 
D8CB: FFFFFF 
D8CE: FFFFFF 
D8D1: FFFFFF 
D8D4: FFFF00 
D8D7: 00     BRK
D8D8: 2087D8 JSR D887
D8DB: 2090E2 JSR E290
D8DE: 2018E1 JSR E118
D8E1: A927   LDAim 27
D8E3: 206324 JSR 2463 hexedit.write
D8E6: 60     RTS
D8E7: FFFFFF 
D8EA: FFFFFF 
D8ED: FF0000 
D8F0: 8507   STAz 07
D8F2: E60D   INCz 0D
D8F4: 18     CLC
D8F5: A50D   LDAz 0D
D8F7: 2004D9 JSR D904
D8FA: A900   LDAim 00
D8FC: 850D   STAz 0D
D8FE: 201DDA JSR DA1D
D901: 18     CLC
D902: A507   LDAz 07
D904: 6508   ADCz 08
D906: 8508   STAz 08
D908: 9002   BCC +2>0C
D90A: E609   INCz 09
D90C: 60     RTS
D90D: FFFFFF 
D910: FFFFFF 
D913: FFFFFF 
D916: FFFFFF 
D919: FFFFFF 
D91C: FFFFFF 
D91F: FFFFFF 
D922: FFFFFF 
D925: 00     BRK
D926: 00     BRK
D927: A002   LDYim 02
D929: B120   LDAiy 20
D92B: 8555   STAz 55 hexedit.helpL
D92D: 20EF24 JSR 24EF hexedit.byteDru
D930: A001   LDYim 01
D932: B120   LDAiy 20
D934: 8554   STAz 54
D936: 20EF24 JSR 24EF hexedit.byteDru
D939: 20CE24 JSR 24CE hexedit.Blank
D93C: A000   LDYim 00
D93E: B120   LDAiy 20
D940: 48     PHA
D941: 2091D7 JSR D791
D944: 68     PLA
D945: 48     PHA
D946: 29F8   ANDim F8
D948: C940   CMPim 40
D94A: D005   BNE +5>51
D94C: 68     PLA
D94D: 2067D8 JSR D867
D950: 60     RTS
D951: 29E0   ANDim E0
D953: C9A0   CMPim A0
D955: D013   BNE +19>6A
D957: 68     PLA
D958: 2907   ANDim 07
D95A: C906   CMPim 06
D95C: D004   BNE +4>62
D95E: 20A7D8 JSR D8A7
D961: 60     RTS
D962: C907   CMPim 07
D964: D005   BNE +5>6B
D966: 20D8D8 JSR D8D8
D969: 60     RTS
D96A: 68     PLA
D96B: A93F   LDAim 3F
D96D: 206324 JSR 2463 hexedit.write
D970: A93F   LDAim 3F
D972: 206324 JSR 2463 hexedit.write
D975: 60     RTS
D976: FFFFFF 
D979: FFFFFF 
D97C: FF0000 
D97F: A5D6   LDAz D6
D981: A6D7   LDXz D7
D983: 8512   STAz 12
D985: 8613   STXz 13
D987: 60     RTS
D988: FFFFFF 
D98B: 00     BRK
D98C: 00     BRK
D98D: A412   LDYz 12
D98F: C4D8   CPYz D8
D991: EA     NOP
D992: D007   BNE +7>9B
D994: A413   LDYz 13
D996: C4D9   CPYz D9
D998: EA     NOP
D999: F00B   BEQ +11>A6
D99B: A000   LDYim 00
D99D: 9112   STAiy 12
D99F: E612   INCz 12
D9A1: D002   BNE +2>A5
D9A3: E613   INCz 13
D9A5: 60     RTS
D9A6: 2040D2 JSR D240
D9A9: B3     
D9AA: D9C4D9 CMPy D9C4
D9AD: 4C1D1C JMP 1C1D monitor.RESET
D9B0: FFFF02 ---- text data
D9B3: 436F6465 202D4265 72656963 6820766F  'Code -Bereich vo'
D9C3: 6C6C 'll'
D9C5: 03     
D9C6: FFFFFF 
D9C9: 18     CLC
D9CA: 6512   ADCz 12
D9CC: A613   LDXz 13
D9CE: 9001   BCC +1>D1
D9D0: E8     INX
D9D1: E4D9   CPXz D9
D9D3: EA     NOP
D9D4: F003   BEQ +3>D9
D9D6: B0CE   BCS -50>A6
D9D8: 60     RTS
D9D9: C5D8   CMPz D8
D9DB: EA     NOP
D9DC: F002   BEQ +2>E0
D9DE: B0C6   BCS -58>A6
D9E0: 60     RTS
D9E1: FF0000 
D9E4: A001   LDYim 01
D9E6: 20A525 JSR 25A5 bs.KPUe
D9E9: 68     PLA
D9EA: 8507   STAz 07
D9EC: 20C9D9 JSR D9C9
D9EF: A407   LDYz 07
D9F1: 20A525 JSR 25A5 bs.KPUe
D9F4: A407   LDYz 07
D9F6: 88     DEY
D9F7: 68     PLA
D9F8: 9112   STAiy 12
D9FA: 88     DEY
D9FB: 10FA   BPL -6>F7
D9FD: 18     CLC
D9FE: A512   LDAz 12
DA00: 6507   ADCz 07
DA02: 8512   STAz 12
DA04: 9002   BCC +2>08
DA06: E613   INCz 13
DA08: 60     RTS
DA09: FF0000 
DA0C: FF0000 
DA0F: A003   LDYim 03
DA11: 20A525 JSR 25A5 bs.KPUe
DA14: 68     PLA
DA15: 8509   STAz 09
DA17: 68     PLA
DA18: 8508   STAz 08
DA1A: 68     PLA
DA1B: 8507   STAz 07
DA1D: 20C9D9 JSR D9C9
DA20: A407   LDYz 07
DA22: 88     DEY
DA23: B108   LDAiy 08
DA25: 9112   STAiy 12
DA27: 88     DEY
DA28: 10F9   BPL -7>23
DA2A: 30D1   BMI -47>FD
DA2C: 00     BRK
DA2D: FF0000 
DA30: FF0000 
DA33: 0A     ASLa
DA34: AA     TAX
DA35: A920   LDAim 20
DA37: 208DD9 JSR D98D
DA3A: BD008D LDAx 8D00
DA3D: 208DD9 JSR D98D
DA40: BD018D LDAx 8D01
DA43: 208DD9 JSR D98D
DA46: 60     RTS
DA47: FF0000 
DA4A: FF0000 
DA4D: A002   LDYim 02
DA4F: 20A525 JSR 25A5 bs.KPUe
DA52: 68     PLA
DA53: 8509   STAz 09
DA55: 68     PLA
DA56: 8508   STAz 08
DA58: A0FF   LDYim FF
DA5A: 840D   STYz 0D
DA5C: E60D   INCz 0D
DA5E: A40D   LDYz 0D
DA60: B108   LDAiy 08
DA62: 3009   BMI +9>6D
DA64: D001   BNE +1>67
DA66: 60     RTS
DA67: 20F0D8 JSR D8F0
DA6A: 4C5EDA JMP DA5E
DA6D: EA     NOP
DA6E: AA     TAX
DA6F: 850E   STAz 0E
DA71: C8     INY
DA72: B108   LDAiy 08
DA74: E084   CPXim 84
DA76: D025   BNE +37>9D
DA78: 850B   STAz 0B
DA7A: C8     INY
DA7B: B108   LDAiy 08
DA7D: 850C   STAz 0C
DA7F: A94C   LDAim 4C
DA81: 850A   STAz 0A
DA83: 840D   STYz 0D
DA85: A508   LDAz 08
DA87: 48     PHA
DA88: A509   LDAz 09
DA8A: 48     PHA
DA8B: A50D   LDAz 0D
DA8D: 48     PHA
DA8E: 200A00 JSR 000A
DA91: 68     PLA
DA92: 850D   STAz 0D
DA94: 68     PLA
DA95: 8509   STAz 09
DA97: 68     PLA
DA98: 8508   STAz 08
DA9A: 4C5CDA JMP DA5C
DA9D: 840D   STYz 0D
DA9F: AA     TAX
DAA0: 460E   LSRz 0E
DAA2: B500   LDAzx 00
DAA4: 6900   ADCim 00
DAA6: 08     PHP
DAA7: 208DD9 JSR D98D
DAAA: 460E   LSRz 0E
DAAC: B004   BCS +4>B2
DAAE: 28     PLP
DAAF: 4C5CDA JMP DA5C
DAB2: 28     PLP
DAB3: B501   LDAzx 01
DAB5: 6900   ADCim 00
DAB7: 208DD9 JSR D98D
DABA: 4C5CDA JMP DA5C
DABD: FFFF00 
DAC0: A002   LDYim 02
DAC2: 20A525 JSR 25A5 bs.KPUe
DAC5: 68     PLA
DAC6: AA     TAX
DAC7: 68     PLA
DAC8: 18     CLC
DAC9: 650F   ADCz 0F
DACB: 8508   STAz 08
DACD: 8A     TXAa
DACE: 6510   ADCz 10
DAD0: 8509   STAz 09
DAD2: 4C58DA JMP DA58
DAD5: FF0000 
DAD8: FF0000 
DADB: FF0000 
DADE: FF0000 
DAE1: 20C924 JSR 24C9 hexedit.2Blanks
DAE4: A00B   LDYim 0B
DAE6: B141   LDAiy 41 hexedit.da.nr
DAE8: 853F   STAz 3F
DAEA: C8     INY
DAEB: B141   LDAiy 41 hexedit.da.nr
DAED: 8540   STAz 40
DAEF: C8     INY
DAF0: B141   LDAiy 41 hexedit.da.nr
DAF2: 8551   STAz 51
DAF4: F010   BEQ +16>06
DAF6: A000   LDYim 00
DAF8: 8450   STYz 50
DAFA: B13F   LDAiy 3F
DAFC: 206324 JSR 2463 hexedit.write
DAFF: A450   LDYz 50
DB01: C8     INY
DB02: C451   CPYz 51
DB04: D0F2   BNE -14>F8
DB06: 20D424 JSR 24D4 hexedit.CR
DB09: EA     NOP
DB0A: A000   LDYim 00
DB0C: A908   LDAim 08
DB0E: 9141   STAiy 41 hexedit.da.nr
DB10: 60     RTS
DB11: 207FD9 JSR D97F
DB14: 20E4D9 JSR D9E4
DB17: 02     
DB18: 18     CLC
DB19: 90EA   BCC -22>05
DB1B: A900   LDAim 00
DB1D: 8541   STAz 41 hexedit.da.nr
DB1F: A5C2   LDAz C2
DB21: EA     NOP
DB22: 8542   STAz 42 hexedit.da.laenge
DB24: A00D   LDYim 0D
DB26: B141   LDAiy 41 hexedit.da.nr
DB28: 18     CLC
DB29: 6904   ADCim 04
DB2B: EA     NOP
DB2C: EA     NOP
DB2D: EA     NOP
DB2E: 208DD9 JSR D98D
DB31: 20E4D9 JSR D9E4
DB34: 03     
DB35: FFFF02 ---- text data
DB38: A003   LDYim 03
DB3A: A00B   LDYim 0B
DB3C: B141   LDAiy 41 hexedit.da.nr
DB3E: 8508   STAz 08
DB40: C8     INY
DB41: B141   LDAiy 41 hexedit.da.nr
DB43: 8509   STAz 09
DB45: C8     INY
DB46: B141   LDAiy 41 hexedit.da.nr
DB48: 201BDA JSR DA1B
DB4B: A903   LDAim 03
DB4D: 208DD9 JSR D98D
DB50: 60     RTS
DB51: FFFFFF 
DB54: FFFFFF 
DB57: FFFFFF 
DB5A: FFFFFF 
DB5D: FFFFFF 
DB60: FFFFFF 
DB63: FFFFFF 
DB66: FFFFFF 
DB69: FFFFFF 
DB6C: FFFFFF 
DB6F: FFFFFF 
DB72: FFFFFF 
DB75: FFFFFF 
DB78: FFFF22 
DB7B: 33     
DB7C: A527   LDAz 27
DB7E: D009   BNE +9>89
DB80: 20ECD1 JSR D1EC
DB83: 203923 JSR 2339 hexedit.setCurs
DB86: 00     BRK
DB87: 16EA   ASLzx EA
DB89: A252   LDXim 52
DB8B: 2079C8 JSR C879
DB8E: 20CE24 JSR 24CE hexedit.Blank
DB91: 2055CD JSR CD55
DB94: 2068C7 JSR C768
DB97: 20C924 JSR 24C9 hexedit.2Blanks
DB9A: A001   LDYim 01
DB9C: 20A525 JSR 25A5 bs.KPUe
DB9F: 68     PLA
DBA0: 0A     ASLa
DBA1: A8     TAY
DBA2: A2FC   LDXim FC
DBA4: B9B0DB LDAy DBB0
DBA7: 9535   STAzx 35
DBA9: C8     INY
DBAA: E8     INX
DBAB: D0F7   BNE -9>A4
DBAD: 4C66D2 JMP D266
DBB0: 15DC   ORAzx DC
DBB2: 2CDC3E BIT 3EDC
DBB5: DC     
DBB6: 50DC   BVC -36>94
DBB8: 62     
DBB9: DC     
DBBA: 74     
DBBB: DC     
DBBC: 88     DEY
DBBD: DC     
DBBE: 9A     TXS
DBBF: DC     
DBC0: ACDCC1 LDY C1DC
DBC3: DC     
DBC4: CF     
DBC5: DC     
DBC6: E4DC   CPXz DC
DBC8: F5DC   SBCzx DC
DBCA: 12     
DBCB: DD23DD CMPx DD23
DBCE: 38     SEC
DBCF: DD45DD CMPx DD45
DBD2: 63     
DBD3: DD73DD CMPx DD73
DBD6: 7DDD96 ADCx 96DD
DBD9: DDA9DD CMPx DDA9
DBDC: B6DD   LDXzy DD
DBDE: D6DD   DECzx DD
DBE0: 00     BRK
DBE1: 00     BRK
DBE2: 00     BRK
DBE3: 00     BRK
DBE4: 00     BRK
DBE5: 00     BRK
DBE6: 00     BRK
DBE7: 00     BRK
DBE8: 00     BRK
DBE9: 00     BRK
DBEA: 00     BRK
DBEB: 00     BRK
DBEC: 00     BRK
DBED: 00     BRK
DBEE: 00     BRK
DBEF: 00     BRK
DBF0: B7     
DBF1: FF00FE 
DBF4: B7     
DBF5: FF00FE 
DBF8: 07     
DBF9: FF00FE 
DBFC: 03     
DBFD: FF00FE 
DC00: FE0000 INCx 0000
DC03: 00     BRK
DC04: FE0000 INCx 0000
DC07: 00     BRK
DC08: FE0000 INCx 0000
DC0B: 00     BRK
DC0C: FE0000 INCx 0000
DC0F: 00     BRK
DC10: 00     BRK
DC11: 00     BRK
DC12: FFFF02 ---- text data
DC15: 616C7320 41647265 73736520 756E6765  'als Adresse unge'
DC25: 6569676E 65741D5A 65726F2D 42657265  'eignet?Zero-Bere'
DC35: 69636820 6C656572 1D446174 612D4265  'ich leer?Data-Be'
DC45: 72656963 68206C65 65721D43 6F64652D  'reich leer?Code-'
DC55: 42657265 69636820 6C656572 1D44656B  'Bereich leer?Dek'
DC65: 6C617261 74696F6E 20666568 6C741D50  'laration fehlt?P'
DC75: 726F7A65 64757272 756D7066 20666568  'rozedurrumpf feh'
DC85: 6C741D43 6F6D7069 6C657266 65686C65  'lt?Compilerfehle'
DC95: 72202121 1D42657A 206D6568 72666163  'r !!?Bez mehrfac'
DCA5: 68206465 6B6C1D4D 61747269 78207669  'h dekl?Matrix vi'
DCB5: 656C207A 75 'el zu'
DCBA: 00     BRK
DCBB: 67     
DCBC: 72     
DCBD: 6F     
DCBE: 73     
DCBF: 73     
DCC0: 1D4665 ORAx 6546
DCC3: 6C6420 JMPi 2064
DCC6: 7A     
DCC7: 7520   ADCzx 20
DCC9: 67     
DCCA: 72     
DCCB: 6F     
DCCC: 73     
DCCD: 73     
DCCE: 1D4265 ORAx 6542
DCD1: 72     
DCD2: 6569   ADCz 69
DCD4: 63     
DCD5: 68     PLA
DCD6: 204461 JSR 6144
DCD9: 74     
DCDA: 6120   ADCix 20
DCDC: 7A     
DCDD: 7520   ADCzx 20
DCDF: 6B     
DCE0: 7572   ADCzx 72
DCE2: 7A     
DCE3: 1D4265 ORAx 6542
DCE6: 72     
DCE7: 6569   ADCz 69
DCE9: 63     
DCEA: 68     PLA
DCEB: 205A65 JSR 655A
DCEE: 72     
DCEF: 6F     
DCF0: 207A75 JSR 757A
DCF3: 206B75 JSR 756B
DCF6: 72     
DCF7: 7A     
DCF8: 1D496E ORAx 6E49
DCFB: 64     
DCFC: 6578   ADCz 78
DCFE: 62     
DCFF: 6572   ADCz 72
DD01: 6569   ADCz 69
DD03: 63     
DD04: 68     PLA
DD05: 20756E JSR 6E75
DD08: 7A     
DD09: 756C   ADCzx 6C
DD0B: 6165   ADCix 65
DD0D: 73     
DD0E: 73     
DD0F: 6967   ADCim 67
DD11: 1D496E ORAx 6E49
DD14: 74     
DD15: 6567   ADCz 67
DD17: 6572   ADCz 72
DD19: 207A75 JSR 757A
DD1C: 206772 JSR 7267
DD1F: 6F     
DD20: 73     
DD21: 73     
DD22: 1D4265 ORAx 6542
DD25: 72     
DD26: 6569   ADCz 69
DD28: 63     
DD29: 68     PLA
DD2A: 20436F JSR 6F43
DD2D: 64     
DD2E: 6520   ADCz 20
DD30: 7A     
DD31: 7520   ADCzx 20
DD33: 6B     
DD34: 7572   ADCzx 72
DD36: 7A     
DD37: 1D4661 ORAx 6146
DD3A: 6C7363 JMPi 6373
DD3D: 68     PLA
DD3E: 6572   ADCz 72
DD40: 205479 JSR 7954
DD43: 701D   BCS +29>62
DD45: 4175   EORix 75
DD47: 73     
DD48: 64     
DD49: 72     
DD4A: 7563   ADCzx 63
DD4C: 6B     
DD4D: 207A75 JSR 757A
DD50: 207469 JSR 6974
DD53: 6566   ADCz 66
DD55: 206765 JSR 6567
DD58: 73     
DD59: 63     
DD5A: 68     PLA
DD5B: 6163   ADCix 63
DD5D: 68     PLA
DD5E: 74     
DD5F: 656C   ADCz 6C
DD61: 74     
DD62: 1D7A75 ORAx 757A
DD65: 207669 JSR 6976
DD68: 656C   ADCz 6C
DD6A: 6520   ADCz 20
DD6C: 42     
DD6D: 52     
DD6E: 4541   EORz 41 hexedit.da.nr
DD70: 4B     
DD71: 73     
DD72: 1D6E75 ORAx 756E
DD75: 72     
DD76: 203136 JSR 3631
DD79: 204946 JSR 4649
DD7C: 1D7A75 ORAx 757A
DD7F: 207669 JSR 6976
DD82: 656C   ADCz 6C
DD84: 6520   ADCz 20
DD86: 464F   LSRz 4F
DD88: 52     
DD89: 205748 JSR 4857
DD8C: 494C   EORim 4C
DD8E: 4520   EORz 20
DD90: 42     
DD91: 52     
DD92: 4541   EORz 41 hexedit.da.nr
DD94: 4B     
DD95: 1D6661 ORAx 6166
DD98: 6C7363 JMPi 6373
DD9B: 68     PLA
DD9C: 6520   ADCz 20
DD9E: 53     
DD9F: 74     
DDA0: 7566   ADCzx 66
DDA2: 656E   ADCz 6E hexedit.zeiTty
DDA4: 7A     
DDA5: 6168   ADCix 68
DDA7: 6C1D50 JMPi 501D
DDAA: 6172   ADCix 72
DDAC: 73     
DDAD: 6572   ADCz 72
DDAF: 2D5374 AND 7453
DDB2: 6163   ADCix 63
DDB4: 6B     
DDB5: 1D6B65 ORAx 656B
DDB8: 696E   ADCim 6E
DDBA: 204175 JSR 7541
DDBD: 73     
DDBE: 67     
DDBF: 6162   ADCix 62
DDC1: 6574   ADCz 74
DDC3: 79701D ADCy 1D70
DDC6: 00     BRK
DDC7: 00     BRK
DDC8: 00     BRK
DDC9: 00     BRK
DDCA: 00     BRK
DDCB: 00     BRK
DDCC: 00     BRK
DDCD: 00     BRK
DDCE: 00     BRK
DDCF: 00     BRK
DDD0: 00     BRK
DDD1: 00     BRK
DDD2: 00     BRK
DDD3: 00     BRK
DDD4: 00     BRK
DDD5: 00     BRK
DDD6: 00     BRK
DDD7: 00     BRK
DDD8: 00     BRK
DDD9: 00     BRK
DDDA: 00     BRK
DDDB: 00     BRK
DDDC: 00     BRK
DDDD: 00     BRK
DDDE: 00     BRK
DDDF: 00     BRK
DDE0: 00     BRK
DDE1: 00     BRK
DDE2: 00     BRK
DDE3: 00     BRK
DDE4: 00     BRK
DDE5: 00     BRK
DDE6: 00     BRK
DDE7: 00     BRK
DDE8: 00     BRK
DDE9: 00     BRK
DDEA: 00     BRK
DDEB: 00     BRK
DDEC: 00     BRK
DDED: 00     BRK
DDEE: 00     BRK
DDEF: 00     BRK
DDF0: 00     BRK
DDF1: 00     BRK
DDF2: 00     BRK
DDF3: 00     BRK
DDF4: 00     BRK
DDF5: 00     BRK
DDF6: 00     BRK
DDF7: 00     BRK
DDF8: 00     BRK
DDF9: 00     BRK
DDFA: 00     BRK
DDFB: 00     BRK
DDFC: 00     BRK
DDFD: 00     BRK
DDFE: 00     BRK
DDFF: 00     BRK
DE00: 00     BRK
DE01: 00     BRK
DE02: FFFF00 
DE05: 00     BRK
DE06: FFFF00 
DE09: 00     BRK
DE0A: FFFF00 
DE0D: 00     BRK
DE0E: FFFF00 
DE11: 00     BRK
DE12: 00     BRK
DE13: 00     BRK
DE14: 00     BRK
DE15: 00     BRK
DE16: 00     BRK
DE17: 00     BRK
DE18: 00     BRK
DE19: 00     BRK
DE1A: 00     BRK
DE1B: 00     BRK
DE1C: 00     BRK
DE1D: 00     BRK
DE1E: 00     BRK
DE1F: 00     BRK
DE20: 00     BRK
DE21: 00     BRK
DE22: 00     BRK
DE23: 00     BRK
DE24: 00     BRK
DE25: 00     BRK
DE26: 00     BRK
DE27: 00     BRK
DE28: 00     BRK
DE29: 00     BRK
DE2A: 00     BRK
DE2B: 00     BRK
DE2C: 00     BRK
DE2D: 00     BRK
DE2E: 00     BRK
DE2F: 00     BRK
DE30: FC     
DE31: FEFFFF INCx FFFF bios.flag EPROM Bank
DE34: FC     
DE35: FEFFFF INCx FFFF bios.flag EPROM Bank
DE38: FEFFFF INCx FFFF bios.flag EPROM Bank
DE3B: FFFEFF 
DE3E: FFFF00 
DE41: 00     BRK
DE42: FFFF00 
DE45: 00     BRK
DE46: FFFF00 
DE49: 00     BRK
DE4A: FFFF00 
DE4D: 00     BRK
DE4E: FFFF00 
DE51: 00     BRK
DE52: 00     BRK
DE53: 00     BRK
DE54: 00     BRK
DE55: 00     BRK
DE56: 00     BRK
DE57: 00     BRK
DE58: 00     BRK
DE59: 00     BRK
DE5A: 00     BRK
DE5B: 00     BRK
DE5C: 00     BRK
DE5D: 00     BRK
DE5E: 00     BRK
DE5F: 00     BRK
DE60: 00     BRK
DE61: 00     BRK
DE62: 00     BRK
DE63: 00     BRK
DE64: 00     BRK
DE65: 00     BRK
DE66: 00     BRK
DE67: 00     BRK
DE68: 00     BRK
DE69: 00     BRK
DE6A: 00     BRK
DE6B: 00     BRK
DE6C: 00     BRK
DE6D: 00     BRK
DE6E: 00     BRK
DE6F: 00     BRK
DE70: FEFEFF INCx FFFE IRQadr
DE73: FFFEFF 
DE76: FFFFFE 
DE79: FFFFFF 
DE7C: FEFFFF INCx FFFF bios.flag EPROM Bank
DE7F: FF0000 
DE82: FFFF00 
DE85: 00     BRK
DE86: FFFF00 
DE89: 00     BRK
DE8A: FFFF00 
DE8D: 00     BRK
DE8E: FFFF00 
DE91: 00     BRK
DE92: 00     BRK
DE93: 00     BRK
DE94: 00     BRK
DE95: 00     BRK
DE96: 00     BRK
DE97: 00     BRK
DE98: 00     BRK
DE99: 00     BRK
DE9A: 00     BRK
DE9B: 00     BRK
DE9C: 00     BRK
DE9D: 00     BRK
DE9E: 00     BRK
DE9F: 00     BRK
DEA0: 00     BRK
DEA1: 00     BRK
DEA2: 00     BRK
DEA3: 00     BRK
DEA4: 00     BRK
DEA5: 00     BRK
DEA6: 00     BRK
DEA7: 00     BRK
DEA8: 00     BRK
DEA9: 00     BRK
DEAA: 00     BRK
DEAB: 00     BRK
DEAC: 00     BRK
DEAD: 00     BRK
DEAE: 00     BRK
DEAF: 00     BRK
DEB0: FC     
DEB1: FEFFFF INCx FFFF bios.flag EPROM Bank
DEB4: FC     
DEB5: FEFFFF INCx FFFF bios.flag EPROM Bank
DEB8: FEFFFF INCx FFFF bios.flag EPROM Bank
DEBB: FFFEFF 
DEBE: FFFF00 
DEC1: 00     BRK
DEC2: FFFF00 
DEC5: 00     BRK
DEC6: FFFF00 
DEC9: 00     BRK
DECA: FFFF00 
DECD: 00     BRK
DECE: FFFF00 
DED1: 00     BRK
DED2: 00     BRK
DED3: 00     BRK
DED4: 00     BRK
DED5: 00     BRK
DED6: 00     BRK
DED7: 00     BRK
DED8: 00     BRK
DED9: 00     BRK
DEDA: 00     BRK
DEDB: 00     BRK
DEDC: 00     BRK
DEDD: 00     BRK
DEDE: 00     BRK
DEDF: 00     BRK
DEE0: 00     BRK
DEE1: 00     BRK
DEE2: 00     BRK
DEE3: 00     BRK
DEE4: 00     BRK
DEE5: 00     BRK
DEE6: 00     BRK
DEE7: 00     BRK
DEE8: 00     BRK
DEE9: 00     BRK
DEEA: 00     BRK
DEEB: 00     BRK
DEEC: 00     BRK
DEED: 00     BRK
DEEE: 00     BRK
DEEF: 00     BRK
DEF0: FEFFFF INCx FFFF bios.flag EPROM Bank
DEF3: FFFEFF 
DEF6: FFFFFE 
DEF9: FFFFFF 
DEFC: FEFFFF INCx FFFF bios.flag EPROM Bank
DEFF: FF0000 
DF02: 00     BRK
DF03: 00     BRK
DF04: 00     BRK
DF05: 00     BRK
DF06: 00     BRK
DF07: 00     BRK
DF08: 00     BRK
DF09: 00     BRK
DF0A: 00     BRK
DF0B: 03     
DF0C: 03     
DF0D: 03     
DF0E: 03     
DF0F: 03     
DF10: 03     
DF11: 03     
DF12: 03     
DF13: 00     BRK
DF14: 00     BRK
DF15: 00     BRK
DF16: 00     BRK
DF17: 00     BRK
DF18: 00     BRK
DF19: 00     BRK
DF1A: 00     BRK
DF1B: 00     BRK
DF1C: 00     BRK
DF1D: 00     BRK
DF1E: 00     BRK
DF1F: 00     BRK
DF20: 00     BRK
DF21: 00     BRK
DF22: 00     BRK
DF23: 00     BRK
DF24: 00     BRK
DF25: 00     BRK
DF26: 00     BRK
DF27: 00     BRK
DF28: 00     BRK
DF29: 00     BRK
DF2A: 00     BRK
DF2B: 00     BRK
DF2C: 00     BRK
DF2D: 00     BRK
DF2E: 00     BRK
DF2F: 00     BRK
DF30: 00     BRK
DF31: 00     BRK
DF32: 00     BRK
DF33: FF0000 
DF36: 00     BRK
DF37: FF0000 
DF3A: 00     BRK
DF3B: F7     
DF3C: 00     BRK
DF3D: 00     BRK
DF3E: 00     BRK
DF3F: F7     
DF40: 00     BRK
DF41: 00     BRK
DF42: 00     BRK
DF43: 00     BRK
DF44: 00     BRK
DF45: 00     BRK
DF46: 00     BRK
DF47: 00     BRK
DF48: 00     BRK
DF49: 00     BRK
DF4A: 00     BRK
DF4B: 00     BRK
DF4C: 00     BRK
DF4D: 00     BRK
DF4E: 00     BRK
DF4F: 00     BRK
DF50: 00     BRK
DF51: 00     BRK
DF52: 00     BRK
DF53: 00     BRK
DF54: 00     BRK
DF55: 00     BRK
DF56: 00     BRK
DF57: 00     BRK
DF58: 00     BRK
DF59: 00     BRK
DF5A: 00     BRK
DF5B: 00     BRK
DF5C: 00     BRK
DF5D: 00     BRK
DF5E: 00     BRK
DF5F: 00     BRK
DF60: 00     BRK
DF61: 00     BRK
DF62: 00     BRK
DF63: 00     BRK
DF64: 00     BRK
DF65: 00     BRK
DF66: 00     BRK
DF67: 00     BRK
DF68: 00     BRK
DF69: 00     BRK
DF6A: 00     BRK
DF6B: 00     BRK
DF6C: 00     BRK
DF6D: 00     BRK
DF6E: 00     BRK
DF6F: 00     BRK
DF70: 00     BRK
DF71: 00     BRK
DF72: 00     BRK
DF73: FF0000 
DF76: 00     BRK
DF77: FF0000 
DF7A: 00     BRK
DF7B: B7     
DF7C: 00     BRK
DF7D: 00     BRK
DF7E: 00     BRK
DF7F: F7     
DF80: 00     BRK
DF81: 00     BRK
DF82: 00     BRK
DF83: 00     BRK
DF84: 00     BRK
DF85: 00     BRK
DF86: 00     BRK
DF87: 00     BRK
DF88: 00     BRK
DF89: 00     BRK
DF8A: 00     BRK
DF8B: 00     BRK
DF8C: 00     BRK
DF8D: 00     BRK
DF8E: 00     BRK
DF8F: 00     BRK
DF90: 00     BRK
DF91: 00     BRK
DF92: 00     BRK
DF93: 00     BRK
DF94: 00     BRK
DF95: 00     BRK
DF96: 00     BRK
DF97: 00     BRK
DF98: 00     BRK
DF99: 00     BRK
DF9A: 00     BRK
DF9B: 00     BRK
DF9C: 00     BRK
DF9D: 00     BRK
DF9E: 00     BRK
DF9F: 00     BRK
DFA0: 00     BRK
DFA1: 00     BRK
DFA2: 00     BRK
DFA3: 00     BRK
DFA4: 00     BRK
DFA5: 00     BRK
DFA6: 00     BRK
DFA7: 00     BRK
DFA8: 00     BRK
DFA9: 00     BRK
DFAA: 00     BRK
DFAB: 00     BRK
DFAC: 00     BRK
DFAD: 00     BRK
DFAE: 00     BRK
DFAF: 00     BRK
DFB0: 00     BRK
DFB1: 00     BRK
DFB2: 00     BRK
DFB3: FF0000 
DFB6: 00     BRK
DFB7: FF0000 
DFBA: 00     BRK
DFBB: F7     
DFBC: 00     BRK
DFBD: 00     BRK
DFBE: 00     BRK
DFBF: F7     
DFC0: 00     BRK
DFC1: 00     BRK
DFC2: 00     BRK
DFC3: 00     BRK
DFC4: 00     BRK
DFC5: 00     BRK
DFC6: 00     BRK
DFC7: 00     BRK
DFC8: 00     BRK
DFC9: 00     BRK
DFCA: 00     BRK
DFCB: 00     BRK
DFCC: 00     BRK
DFCD: 00     BRK
DFCE: 00     BRK
DFCF: 00     BRK
DFD0: 00     BRK
DFD1: 00     BRK
DFD2: 00     BRK
DFD3: 00     BRK
DFD4: 00     BRK
DFD5: 00     BRK
DFD6: 00     BRK
DFD7: 00     BRK
DFD8: 00     BRK
DFD9: 00     BRK
DFDA: 00     BRK
DFDB: 00     BRK
DFDC: 00     BRK
DFDD: 00     BRK
DFDE: 00     BRK
DFDF: 00     BRK
DFE0: 00     BRK
DFE1: 00     BRK
DFE2: 00     BRK
DFE3: 00     BRK
DFE4: 00     BRK
DFE5: 00     BRK
DFE6: 00     BRK
DFE7: 00     BRK
DFE8: 00     BRK
DFE9: 00     BRK
DFEA: 00     BRK
DFEB: 00     BRK
DFEC: 00     BRK
DFED: 00     BRK
DFEE: 00     BRK
DFEF: 00     BRK
DFF0: 00     BRK
DFF1: 00     BRK
DFF2: 00     BRK
DFF3: FF0000 
DFF6: 00     BRK
DFF7: FF0000 
DFFA: 00     BRK
DFFB: B7     
DFFC: 00     BRK
DFFD: 03     
DFFE: 03     
DFFF: 03     
E000: 00     BRK
E001: 00     BRK
E002: A524   LDAz 24
E004: C526   CMPz 26
E006: D00A   BNE +10>12
E008: A525   LDAz 25
E00A: C527   CMPz 27
E00C: D004   BNE +4>12
E00E: 20E1EE JSR EEE1
E011: 03     
E012: E624   INCz 24
E014: D002   BNE +2>18
E016: E625   INCz 25
E018: A000   LDYim 00
E01A: B124   LDAiy 24
E01C: 60     RTS
E01D: FFFFFF 
E020: A624   LDXz 24
E022: E428   CPXz 28
E024: D00A   BNE +10>30
E026: A625   LDXz 25
E028: E429   CPXz 29
E02A: D004   BNE +4>30
E02C: 20E1EE JSR EEE1
E02F: 04     
E030: EA     NOP
E031: A000   LDYim 00
E033: 9124   STAiy 24
E035: A624   LDXz 24
E037: D002   BNE +2>3B
E039: C625   DECz 25
E03B: C624   DECz 24
E03D: 60     RTS
E03E: FFFFFF 
E041: A004   LDYim 04
E043: B124   LDAiy 24
E045: 991300 STAy 0013
E048: 88     DEY
E049: D0F8   BNE -8>43
E04B: 18     CLC
E04C: A524   LDAz 24
E04E: 6904   ADCim 04
E050: 8524   STAz 24
E052: 9002   BCC +2>56
E054: E625   INCz 25
E056: D016   BNE +22>6E
E058: 20E1EE JSR EEE1
E05B: 03     
E05C: FFFFFF 
E05F: 18     CLC
E060: A524   LDAz 24
E062: 651E   ADCz 1E
E064: 8524   STAz 24
E066: A525   LDAz 25
E068: 651F   ADCz 1F
E06A: 8525   STAz 25
E06C: B00B   BCS +11>79
E06E: 18     CLC
E06F: A524   LDAz 24
E071: E526   SBCz 26
E073: A525   LDAz 25
E075: E527   SBCz 27
E077: 9004   BCC +4>7D
E079: 20E1EE JSR EEE1
E07C: 03     
E07D: 60     RTS
E07E: FFFFFF 
E081: FF0000 
E084: A003   LDYim 03
E086: B154   LDAiy 54
E088: 991400 STAy 0014
E08B: 88     DEY
E08C: 10F8   BPL -8>86
E08E: 60     RTS
E08F: A003   LDYim 03
E091: B91400 LDAy 0014
E094: 9154   STAiy 54
E096: 88     DEY
E097: 10F8   BPL -8>91
E099: 60     RTS
E09A: A000   LDYim 00
E09C: B154   LDAiy 54
E09E: 8514   STAz 14
E0A0: C8     INY
E0A1: B154   LDAiy 54
E0A3: 60     RTS
E0A4: A001   LDYim 01
E0A6: 9154   STAiy 54
E0A8: 88     DEY
E0A9: A514   LDAz 14
E0AB: 9154   STAiy 54
E0AD: 60     RTS
E0AE: 204FE2 JSR E24F
E0B1: A511   LDAz 11
E0B3: F005   BEQ +5>BA
E0B5: A92D   LDAim 2D
E0B7: 206324 JSR 2463 hexedit.write
E0BA: A209   LDXim 09
E0BC: B507   LDAzx 07
E0BE: D003   BNE +3>C3
E0C0: CA     DEX
E0C1: D0F9   BNE -7>BC
E0C3: B507   LDAzx 07
E0C5: 0930   ORAim 30
E0C7: 8651   STXz 51
E0C9: 206324 JSR 2463 hexedit.write
E0CC: A651   LDXz 51
E0CE: CA     DEX
E0CF: 10F2   BPL -14>C3
E0D1: 60     RTS
E0D2: FFFFFF 
E0D5: FFFFFF 
E0D8: FFFFFF 
E0DB: FFFF00 
E0DE: 00     BRK
E0DF: A209   LDXim 09
E0E1: A900   LDAim 00
E0E3: 9507   STAzx 07
E0E5: CA     DEX
E0E6: 10FB   BPL -5>E3
E0E8: 08     PHP
E0E9: A020   LDYim 20
E0EB: A200   LDXim 00
E0ED: 28     PLP
E0EE: 3614   ROLzx 14
E0F0: 08     PHP
E0F1: E8     INX
E0F2: E004   CPXim 04
E0F4: D0F7   BNE -9>ED
E0F6: A200   LDXim 00
E0F8: 28     PLP
E0F9: 3607   ROLzx 07
E0FB: B507   LDAzx 07
E0FD: 38     SEC
E0FE: E90A   SBCim 0A
E100: 9002   BCC +2>04
E102: 9507   STAzx 07
E104: 08     PHP
E105: E8     INX
E106: E00A   CPXim 0A
E108: D0EE   BNE -18>F8
E10A: 88     DEY
E10B: D0DE   BNE -34>EB
E10D: 28     PLP
E10E: 60     RTS
E10F: FFFFFF 
E112: FFFFFF 
E115: FF0000 
E118: A000   LDYim 00
E11A: B154   LDAiy 54
E11C: 2907   ANDim 07
E11E: AA     TAX
E11F: 209FEC JSR EC9F
E122: EA     NOP
E123: EA     NOP
E124: EA     NOP
E125: A51E   LDAz 1E
E127: D006   BNE +6>2F
E129: A51F   LDAz 1F
E12B: F016   BEQ +22>43
E12D: C61F   DECz 1F
E12F: C61E   DECz 1E
E131: A001   LDYim 01
E133: B154   LDAiy 54
E135: 20EF24 JSR 24EF hexedit.byteDru
E138: A554   LDAz 54
E13A: D002   BNE +2>3E
E13C: C655   DECz 55 hexedit.helpL
E13E: C654   DECz 54
E140: 18     CLC
E141: 90E2   BCC -30>25
E143: 60     RTS
E144: FFFFFF 
E147: FFFFFF 
E14A: A51E   LDAz 1E
E14C: F017   BEQ +23>65
E14E: A002   LDYim 02
E150: B154   LDAiy 54
E152: 206324 JSR 2463 hexedit.write
E155: E654   INCz 54
E157: D002   BNE +2>5B
E159: E655   INCz 55 hexedit.helpL
E15B: A51E   LDAz 1E
E15D: D002   BNE +2>61
E15F: C61F   DECz 1F
E161: C61E   DECz 1E
E163: D0E9   BNE -23>4E
E165: A51F   LDAz 1F
E167: D0E5   BNE -27>4E
E169: 60     RTS
E16A: FFFFFF 
E16D: FFFFFF 
E170: A517   LDAz 17
E172: 1014   BPL +20>88
E174: 38     SEC
E175: A2FC   LDXim FC
E177: B518   LDAzx 18
E179: 49FF   EORim FF
E17B: 6900   ADCim 00
E17D: 9518   STAzx 18
E17F: E8     INX
E180: EA     NOP
E181: EA     NOP
E182: D0F3   BNE -13>77
E184: A201   LDXim 01
E186: D03D   BNE +61>C5
E188: A200   LDXim 00
E18A: F039   BEQ +57>C5
E18C: AA     TAX
E18D: 1015   BPL +21>A4
E18F: 49FF   EORim FF
E191: 8515   STAz 15
E193: A514   LDAz 14
E195: 49FF   EORim FF
E197: 18     CLC
E198: 6901   ADCim 01
E19A: 8514   STAz 14
E19C: 9002   BCC +2>A0
E19E: E615   INCz 15
E1A0: A201   LDXim 01
E1A2: D004   BNE +4>A8
E1A4: 8515   STAz 15
E1A6: A200   LDXim 00
E1A8: A900   LDAim 00
E1AA: F015   BEQ +21>C1
E1AC: AA     TAX
E1AD: 100A   BPL +10>B9
E1AF: 49FF   EORim FF
E1B1: 8514   STAz 14
E1B3: E614   INCz 14
E1B5: A201   LDXim 01
E1B7: D004   BNE +4>BD
E1B9: 8514   STAz 14
E1BB: A200   LDXim 00
E1BD: A900   LDAim 00
E1BF: 8515   STAz 15
E1C1: 8516   STAz 16
E1C3: 8517   STAz 17
E1C5: 8611   STXz 11
E1C7: 4CDFE0 JMP E0DF
E1CA: 33     
E1CB: A000   LDYim 00
E1CD: B154   LDAiy 54
E1CF: 851E   STAz 1E
E1D1: C8     INY
E1D2: B154   LDAiy 54
E1D4: 851F   STAz 1F
E1D6: 60     RTS
E1D7: FFFFFF 
E1DA: FF2233 
E1DD: 18     CLC
E1DE: A524   LDAz 24
E1E0: 6901   ADCim 01
E1E2: 8554   STAz 54
E1E4: A525   LDAz 25
E1E6: 6900   ADCim 00
E1E8: 8555   STAz 55 hexedit.helpL
E1EA: 60     RTS
E1EB: FFFFFF 
E1EE: 8554   STAz 54
E1F0: 8A     TXAa
E1F1: 18     CLC
E1F2: 6513   ADCz 13
E1F4: 8555   STAz 55 hexedit.helpL
E1F6: 60     RTS
E1F7: FFFFFF 
E1FA: 18     CLC
E1FB: 6512   ADCz 12
E1FD: 8554   STAz 54
E1FF: 8A     TXAa
E200: 6513   ADCz 13
E202: 8555   STAz 55 hexedit.helpL
E204: 60     RTS
E205: FFFFFF 
E208: 8518   STAz 18
E20A: F009   BEQ +9>15
E20C: A91D   LDAim 1D
E20E: 206324 JSR 2463 hexedit.write
E211: C618   DECz 18
E213: D0F7   BNE -9>0C
E215: 60     RTS
E216: FFFFFF 
E219: A51E   LDAz 1E
E21B: 0A     ASLa
E21C: 8550   STAz 50
E21E: A51F   LDAz 1F
E220: 2A     ROLa
E221: 8551   STAz 51
E223: 4C32E2 JMP E232
E226: FFFFFF 
E229: FFFF22 
E22C: 33     
E22D: 204AE1 JSR E14A
E230: A551   LDAz 51
E232: D008   BNE +8>3C
E234: A518   LDAz 18
E236: 38     SEC
E237: E550   SBCz 50
E239: B006   BCS +6>41
E23B: EA     NOP
E23C: 20E1EE JSR EEE1
E23F: 05EA   ORAz EA
E241: 8518   STAz 18
E243: D029   BNE +41>6E
E245: 60     RTS
E246: 22     
E247: 33     
E248: A518   LDAz 18
E24A: D027   BNE +39>73
E24C: F0EE   BEQ -18>3C
E24E: 00     BRK
E24F: A209   LDXim 09
E251: B507   LDAzx 07
E253: D003   BNE +3>58
E255: CA     DEX
E256: D0F9   BNE -7>51
E258: A511   LDAz 11
E25A: F001   BEQ +1>5D
E25C: E8     INX
E25D: 8A     TXAa
E25E: 38     SEC
E25F: E518   SBCz 18
E261: 49FF   EORim FF
E263: 9004   BCC +4>69
E265: 20E1EE JSR EEE1
E268: 05EA   ORAz EA
E26A: F00B   BEQ +11>77
E26C: 8518   STAz 18
E26E: A920   LDAim 20
E270: 206324 JSR 2463 hexedit.write
E273: C618   DECz 18
E275: D0F7   BNE -9>6E
E277: 60     RTS
E278: FFFFFF 
E27B: FFFFFF 
E27E: FFFFFF 
E281: A51E   LDAz 1E
E283: 8550   STAz 50
E285: A51F   LDAz 1F
E287: 8551   STAz 51
E289: 60     RTS
E28A: FFFFFF 
E28D: 20CBE1 JSR E1CB
E290: 18     CLC
E291: A51E   LDAz 1E
E293: 6907   ADCim 07
E295: 851E   STAz 1E
E297: 9002   BCC +2>9B
E299: E61F   INCz 1F
E29B: A203   LDXim 03
E29D: 461F   LSRz 1F
E29F: 661E   RORz 1E
E2A1: CA     DEX
E2A2: D0F9   BNE -7>9D
E2A4: 60     RTS
E2A5: FFFFFF 
E2A8: 18     CLC
E2A9: A524   LDAz 24
E2AB: 6902   ADCim 02
E2AD: 8524   STAz 24
E2AF: 9002   BCC +2>B3
E2B1: E625   INCz 25
E2B3: 4C5FE0 JMP E05F
E2B6: FFFFFF 
E2B9: FFFFFF 
E2BC: FFFFFF 
E2BF: 20ACE1 JSR E1AC
E2C2: 4CB1E0 JMP E0B1
E2C5: 20B9E1 JSR E1B9
E2C8: 4CB1E0 JMP E0B1
E2CB: 208CE1 JSR E18C
E2CE: 4CB1E0 JMP E0B1
E2D1: 20A4E1 JSR E1A4
E2D4: 4CB1E0 JMP E0B1
E2D7: 2070E1 JSR E170
E2DA: 4CB1E0 JMP E0B1
E2DD: FF2233 
E2E0: 0930   ORAim 30
E2E2: 4C6324 JMP 2463 hexedit.write
E2E5: 20ACE1 JSR E1AC
E2E8: 4CAEE0 JMP E0AE
E2EB: 20B9E1 JSR E1B9
E2EE: 4CAEE0 JMP E0AE
E2F1: 208CE1 JSR E18C
E2F4: 4CAEE0 JMP E0AE
E2F7: 20A4E1 JSR E1A4
E2FA: 4CAEE0 JMP E0AE
E2FD: 2070E1 JSR E170
E300: 4CAEE0 JMP E0AE
E303: 0930   ORAim 30
E305: 48     PHA
E306: 2048E2 JSR E248
E309: 68     PLA
E30A: 4C6324 JMP 2463 hexedit.write
E30D: 20E1EE JSR EEE1
E310: 07     
E311: 206324 JSR 2463 hexedit.write
E314: 4C48E2 JMP E248
E317: 20DDE1 JSR E1DD
E31A: 20CBE1 JSR E1CB
E31D: 20A8E2 JSR E2A8
E320: 4C4AE1 JMP E14A
E323: 20DDE1 JSR E1DD
E326: 208DE2 JSR E28D
E329: 20A8E2 JSR E2A8
E32C: 4C18E1 JMP E118
E32F: 20CBE1 JSR E1CB
E332: 4C4AE1 JMP E14A
E335: 208DE2 JSR E28D
E338: 4C18E1 JMP E118
E33B: 20DDE1 JSR E1DD
E33E: 20CBE1 JSR E1CB
E341: 2081E2 JSR E281
E344: 20A8E2 JSR E2A8
E347: 4C2DE2 JMP E22D
E34A: 20DDE1 JSR E1DD
E34D: 208DE2 JSR E28D
E350: 2019E2 JSR E219
E353: 20A8E2 JSR E2A8
E356: 4C18E1 JMP E118
E359: 20CBE1 JSR E1CB
E35C: 2081E2 JSR E281
E35F: 4C2DE2 JMP E22D
E362: 208DE2 JSR E28D
E365: 2019E2 JSR E219
E368: 4C18E1 JMP E118
E36B: 00     BRK
E36C: 18     CLC
E36D: A514   LDAz 14
E36F: 6518   ADCz 18
E371: 8514   STAz 14
E373: A515   LDAz 15
E375: 6519   ADCz 19
E377: 8515   STAz 15
E379: 900C   BCC +12>87
E37B: E616   INCz 16
E37D: D008   BNE +8>87
E37F: E617   INCz 17
E381: D004   BNE +4>87
E383: 20E1EE JSR EEE1
E386: 0160   ORAix 60
E388: FF0000 
E38B: A514   LDAz 14
E38D: 8516   STAz 16
E38F: A515   LDAz 15
E391: 8517   STAz 17
E393: A900   LDAim 00
E395: 8514   STAz 14
E397: 8515   STAz 15
E399: A010   LDYim 10
E39B: 0614   ASLz 14
E39D: 2615   ROLz 15
E39F: 2616   ROLz 16
E3A1: 2617   ROLz 17
E3A3: 9003   BCC +3>A8
E3A5: 206CE3 JSR E36C
E3A8: 88     DEY
E3A9: D0F0   BNE -16>9B
E3AB: 60     RTS
E3AC: A614   LDXz 14
E3AE: 8616   STXz 16
E3B0: 4C91E3 JMP E391
E3B3: 22     
E3B4: 33     
E3B5: 48     PHA
E3B6: 38     SEC
E3B7: E598   SBCz 98 hexedit.videoSpa
E3B9: F00A   BEQ +10>C5
E3BB: B005   BCS +5>C2
E3BD: 20D424 JSR 24D4 hexedit.CR
E3C0: 68     PLA
E3C1: 48     PHA
E3C2: 206AE2 JSR E26A
E3C5: 68     PLA
E3C6: 60     RTS
E3C7: FFFFFF 
E3CA: 48     PHA
E3CB: 38     SEC
E3CC: E599   SBCz 99 hexedit.video2
E3CE: F00A   BEQ +10>DA
E3D0: B005   BCS +5>D7
E3D2: 207023 JSR 2370 hexedit.clear
E3D5: 68     PLA
E3D6: 48     PHA
E3D7: 2008E2 JSR E208
E3DA: 68     PLA
E3DB: 60     RTS
E3DC: FFFFFF 
E3DF: FFFFFF 
E3E2: FFFFFF 
E3E5: A517   LDAz 17
E3E7: 0516   ORAz 16
E3E9: D00E   BNE +14>F9
E3EB: A515   LDAz 15
E3ED: 2020E0 JSR E020
E3F0: A514   LDAz 14
E3F2: 2020E0 JSR E020
E3F5: 60     RTS
E3F6: AA     TAX
E3F7: 10F4   BPL -12>ED
E3F9: 20E1EE JSR EEE1
E3FC: 02     
E3FD: EA     NOP
E3FE: AA     TAX
E3FF: 30F7   BMI -9>F8
E401: 8514   STAz 14
E403: A900   LDAim 00
E405: F0E6   BEQ -26>ED
E407: FFFFFF 
E40A: FFFFFF 
E40D: 22     
E40E: 33     
E40F: 2002E0 JSR E002
E412: 851E   STAz 1E
E414: 2002E0 JSR E002
E417: 851F   STAz 1F
E419: 2002E0 JSR E002
E41C: 8512   STAz 12
E41E: 2002E0 JSR E002
E421: 8513   STAz 13
E423: 2002E0 JSR E002
E426: 8554   STAz 54
E428: 2002E0 JSR E002
E42B: 8555   STAz 55 hexedit.helpL
E42D: EA     NOP
E42E: EA     NOP
E42F: EA     NOP
E430: A000   LDYim 00
E432: B154   LDAiy 54
E434: 38     SEC
E435: E512   SBCz 12
E437: 08     PHP
E438: 38     SEC
E439: E51E   SBCz 1E
E43B: 08     PHP
E43C: 18     CLC
E43D: 6901   ADCim 01
E43F: 8514   STAz 14
E441: C8     INY
E442: B154   LDAiy 54
E444: 6900   ADCim 00
E446: 28     PLP
E447: E51F   SBCz 1F
E449: 9010   BCC +16>5B
E44B: 28     PLP
E44C: E513   SBCz 13
E44E: 8515   STAz 15
E450: 9009   BCC +9>5B
E452: A512   LDAz 12
E454: D004   BNE +4>5A
E456: A513   LDAz 13
E458: F001   BEQ +1>5B
E45A: 60     RTS
E45B: 20E1EE JSR EEE1
E45E: 00     BRK
E45F: FFFFFF 
E462: FFFFFF 
E465: FFFFFF 
E468: FFFFFF 
E46B: FFFFFF 
E46E: FF0000 
E471: 200FE4 JSR E40F
E474: A51E   LDAz 1E
E476: A61F   LDXz 1F
E478: 85CC   STAz CC bs.Transfer3.bisL
E47A: 86CD   STXz CD bs.Transfer3.bisH
E47C: EA     NOP
E47D: A554   LDAz 54
E47F: 38     SEC
E480: 6512   ADCz 12
E482: 85CA   STAz CA bs.Transfer3.vonL
E484: A555   LDAz 55 hexedit.helpL
E486: 6513   ADCz 13
E488: EA     NOP
E489: EA     NOP
E48A: EA     NOP
E48B: 85CB   STAz CB bs.Transfer3.vonH
E48D: 2002E6 JSR E602
E490: A51F   LDAz 1F
E492: 2020E0 JSR E020
E495: A51E   LDAz 1E
E497: 2020E0 JSR E020
E49A: 60     RTS
E49B: FFFFFF 
E49E: 00     BRK
E49F: 00     BRK
E4A0: A5CD   LDAz CD bs.Transfer3.bisH
E4A2: F01B   BEQ +27>BF
E4A4: A5CC   LDAz CC bs.Transfer3.bisL
E4A6: 48     PHA
E4A7: A900   LDAim 00
E4A9: 85CC   STAz CC bs.Transfer3.bisL
E4AB: A000   LDYim 00
E4AD: B1CA   LDAiy CA bs.Transfer3.vonL
E4AF: 91CE   STAiy CE bs.Transfer3.nachL
E4B1: C8     INY
E4B2: D0F9   BNE -7>AD
E4B4: E6CB   INCz CB bs.Transfer3.vonH
E4B6: E6CF   INCz CF bs.Transfer3.nachH
E4B8: C6CD   DECz CD bs.Transfer3.bisH
E4BA: D0EF   BNE -17>AB
E4BC: 68     PLA
E4BD: 85CC   STAz CC bs.Transfer3.bisL
E4BF: A4CC   LDYz CC bs.Transfer3.bisL
E4C1: F008   BEQ +8>CB
E4C3: 88     DEY
E4C4: B1CA   LDAiy CA bs.Transfer3.vonL
E4C6: 91CE   STAiy CE bs.Transfer3.nachL
E4C8: 98     TYA
E4C9: D0F8   BNE -8>C3
E4CB: 60     RTS
E4CC: 00     BRK
E4CD: A518   LDAz 18
E4CF: D002   BNE +2>D3
E4D1: C619   DECz 19
E4D3: C619   DECz 19
E4D5: D005   BNE +5>DC
E4D7: A519   LDAz 19
E4D9: D001   BNE +1>DC
E4DB: 60     RTS
E4DC: A520   LDAz 20
E4DE: D002   BNE +2>E2
E4E0: C621   DECz 21
E4E2: C620   DECz 20
E4E4: A000   LDYim 00
E4E6: B120   LDAiy 20
E4E8: C8     INY
E4E9: 9120   STAiy 20
E4EB: 4CCDE4 JMP E4CD
E4EE: FFFFFF 
E4F1: FFFFFF 
E4F4: 00     BRK
E4F5: 00     BRK
E4F6: 18     CLC
E4F7: A516   LDAz 16
E4F9: 48     PHA
E4FA: A517   LDAz 17
E4FC: 48     PHA
E4FD: A51A   LDAz 1A
E4FF: 48     PHA
E500: A51B   LDAz 1B
E502: 48     PHA
E503: A000   LDYim 00
E505: A516   LDAz 16
E507: D006   BNE +6>0F
E509: A517   LDAz 17
E50B: F014   BEQ +20>21
E50D: C617   DECz 17
E50F: C616   DECz 16
E511: B11A   LDAiy 1A
E513: 6A     RORa
E514: 911A   STAiy 1A
E516: A51A   LDAz 1A
E518: D002   BNE +2>1C
E51A: C61B   DECz 1B
E51C: C61A   DECz 1A
E51E: 4C05E5 JMP E505
E521: 68     PLA
E522: 851B   STAz 1B
E524: 68     PLA
E525: 851A   STAz 1A
E527: 68     PLA
E528: 8517   STAz 17
E52A: 68     PLA
E52B: 8516   STAz 16
E52D: 60     RTS
E52E: FFFFFF 
E531: 00     BRK
E532: 00     BRK
E533: AA     TAX
E534: F006   BEQ +6>3C
E536: 20F6E4 JSR E4F6
E539: CA     DEX
E53A: D0FA   BNE -6>36
E53C: 60     RTS
E53D: FFFFFF 
E540: FFFFFF 
E543: FFFF00 
E546: 00     BRK
E547: 200FE4 JSR E40F
E54A: A514   LDAz 14
E54C: 2907   ANDim 07
E54E: 48     PHA
E54F: 18     CLC
E550: 6907   ADCim 07
E552: 651E   ADCz 1E
E554: 85CC   STAz CC bs.Transfer3.bisL
E556: A51F   LDAz 1F
E558: 6900   ADCim 00
E55A: 4A     LSRa
E55B: 66CC   RORz CC bs.Transfer3.bisL
E55D: 4A     LSRa
E55E: 66CC   RORz CC bs.Transfer3.bisL
E560: 4A     LSRa
E561: 66CC   RORz CC bs.Transfer3.bisL
E563: 85CD   STAz CD bs.Transfer3.bisH
E565: 8517   STAz 17
E567: 8519   STAz 19
E569: A5CC   LDAz CC bs.Transfer3.bisL
E56B: 8516   STAz 16
E56D: 8518   STAz 18
E56F: EA     NOP
E570: EA     NOP
E571: EA     NOP
E572: EA     NOP
E573: EA     NOP
E574: A514   LDAz 14
E576: 85CA   STAz CA bs.Transfer3.vonL
E578: EA     NOP
E579: EA     NOP
E57A: EA     NOP
E57B: A515   LDAz 15
E57D: 4A     LSRa
E57E: 66CA   RORz CA bs.Transfer3.vonL
E580: 4A     LSRa
E581: 66CA   RORz CA bs.Transfer3.vonL
E583: 4A     LSRa
E584: 66CA   RORz CA bs.Transfer3.vonL
E586: AA     TAX
E587: 18     CLC
E588: A5CA   LDAz CA bs.Transfer3.vonL
E58A: 6554   ADCz 54
E58C: 08     PHP
E58D: 18     CLC
E58E: 6902   ADCim 02
E590: 85CA   STAz CA bs.Transfer3.vonL
E592: 8A     TXAa
E593: 6900   ADCim 00
E595: 28     PLP
E596: 6555   ADCz 55 hexedit.helpL
E598: 85CB   STAz CB bs.Transfer3.vonH
E59A: A524   LDAz 24
E59C: 851A   STAz 1A
E59E: 8520   STAz 20
E5A0: A525   LDAz 25
E5A2: 851B   STAz 1B
E5A4: 8521   STAz 21
E5A6: 2002E6 JSR E602
E5A9: 68     PLA
E5AA: 2033E5 JSR E533
E5AD: A51E   LDAz 1E
E5AF: 18     CLC
E5B0: 6907   ADCim 07
E5B2: 4A     LSRa
E5B3: 4A     LSRa
E5B4: 4A     LSRa
E5B5: 4516   EORz 16
E5B7: 2901   ANDim 01
E5B9: F006   BEQ +6>C1
E5BB: 20CDE4 JSR E4CD
E5BE: 2002E0 JSR E002
E5C1: A51F   LDAz 1F
E5C3: 2020E0 JSR E020
E5C6: A51E   LDAz 1E
E5C8: 2020E0 JSR E020
E5CB: 20E3E5 JSR E5E3
E5CE: 60     RTS
E5CF: FFFFFF 
E5D2: FFFFFF 
E5D5: FFFFFF 
E5D8: FFFFFF 
E5DB: FFFFFF 
E5DE: FFFFFF 
E5E1: 00     BRK
E5E2: 00     BRK
E5E3: A51E   LDAz 1E
E5E5: 2907   ANDim 07
E5E7: AA     TAX
E5E8: A000   LDYim 00
E5EA: B11A   LDAiy 1A
E5EC: 3DF2E5 ORAx E5F2
E5EF: 911A   STAiy 1A
E5F1: 60     RTS
E5F2: FF0103 
E5F5: 07     
E5F6: 0F     
E5F7: 1F     
E5F8: 3F     
E5F9: 7F     
E5FA: FFFFFF 
E5FD: FFFFFF 
E600: 00     BRK
E601: 00     BRK
E602: A524   LDAz 24
E604: 38     SEC
E605: E5CC   SBCz CC bs.Transfer3.bisL
E607: 8524   STAz 24
E609: A525   LDAz 25
E60B: E5CD   SBCz CD bs.Transfer3.bisH
E60D: 8525   STAz 25
E60F: AA     TAX
E610: A424   LDYz 24
E612: C8     INY
E613: D001   BNE +1>16
E615: E8     INX
E616: 84CE   STYz CE bs.Transfer3.nachL
E618: 86CF   STXz CF bs.Transfer3.nachH
E61A: 2030E6 JSR E630
E61D: 4CA0E4 JMP E4A0
E620: 48     PHA
E621: 8A     TXAa
E622: 2020E0 JSR E020
E625: 68     PLA
E626: 2020E0 JSR E020
E629: 60     RTS
E62A: FFFFFF 
E62D: FF0000 
E630: A524   LDAz 24
E632: C528   CMPz 28
E634: A525   LDAz 25
E636: E529   SBCz 29
E638: 9001   BCC +1>3B
E63A: 60     RTS
E63B: 20E1EE JSR EEE1
E63E: 04     
E63F: FFFF00 
E642: 00     BRK
E643: 38     SEC
E644: A524   LDAz 24
E646: E904   SBCim 04
E648: 8524   STAz 24
E64A: B002   BCS +2>4E
E64C: C625   DECz 25
E64E: 2030E6 JSR E630
E651: A004   LDYim 04
E653: B91300 LDAy 0013
E656: 9124   STAiy 24
E658: 88     DEY
E659: D0F8   BNE -8>53
E65B: 60     RTS
E65C: FF0000 
E65F: A002   LDYim 02
E661: 20A525 JSR 25A5 bs.KPUe
E664: 68     PLA
E665: 85CD   STAz CD bs.Transfer3.bisH
E667: 68     PLA
E668: 85CC   STAz CC bs.Transfer3.bisL
E66A: A554   LDAz 54
E66C: A655   LDXz 55 hexedit.helpL
E66E: 85CA   STAz CA bs.Transfer3.vonL
E670: 86CB   STXz CB bs.Transfer3.vonH
E672: 2002E6 JSR E602
E675: 60     RTS
E676: FFFFFF 
E679: FFFFFF 
E67C: FFFFFF 
E67F: FFFFFF 
E682: FFFFFF 
E685: FFFFFF 
E688: FFFFFF 
E68B: FFFFFF 
E68E: FFFFFF 
E691: FFFFFF 
E694: FFFFFF 
E697: FFFFFF 
E69A: FFFFFF 
E69D: FF2233 
E6A0: 208DE2 JSR E28D
E6A3: A51E   LDAz 1E
E6A5: 18     CLC
E6A6: 6902   ADCim 02
E6A8: 85CC   STAz CC bs.Transfer3.bisL
E6AA: A51F   LDAz 1F
E6AC: 6900   ADCim 00
E6AE: 85CD   STAz CD bs.Transfer3.bisH
E6B0: 4C6AE6 JMP E66A
E6B3: FF0000 
E6B6: A000   LDYim 00
E6B8: B154   LDAiy 54
E6BA: 18     CLC
E6BB: 6902   ADCim 02
E6BD: 85CC   STAz CC bs.Transfer3.bisL
E6BF: C8     INY
E6C0: B154   LDAiy 54
E6C2: 6900   ADCim 00
E6C4: 85CD   STAz CD bs.Transfer3.bisH
E6C6: 4C6AE6 JMP E66A
E6C9: FFFFFF 
E6CC: FFFFFF 
E6CF: FFFFFF 
E6D2: FFFFFF 
E6D5: FFFFFF 
E6D8: FFFFFF 
E6DB: FFFFFF 
E6DE: FFFFFF 
E6E1: FFFFFF 
E6E4: FFFFFF 
E6E7: FFFFFF 
E6EA: FFFFFF 
E6ED: FFFFFF 
E6F0: FFFFFF 
E6F3: 00     BRK
E6F4: 00     BRK
E6F5: A624   LDXz 24
E6F7: A425   LDYz 25
E6F9: E8     INX
E6FA: D001   BNE +1>FD
E6FC: C8     INY
E6FD: 86CA   STXz CA bs.Transfer3.vonL
E6FF: 84CB   STYz CB bs.Transfer3.vonH
E701: A524   LDAz 24
E703: 18     CLC
E704: 65CC   ADCz CC bs.Transfer3.bisL
E706: 8524   STAz 24
E708: A525   LDAz 25
E70A: 65CD   ADCz CD bs.Transfer3.bisH
E70C: 8525   STAz 25
E70E: 206EE0 JSR E06E
E711: 20A0E4 JSR E4A0
E714: 60     RTS
E715: FF0000 
E718: A002   LDYim 02
E71A: 20A525 JSR 25A5 bs.KPUe
E71D: 68     PLA
E71E: 85CD   STAz CD bs.Transfer3.bisH
E720: 68     PLA
E721: 85CC   STAz CC bs.Transfer3.bisL
E723: A554   LDAz 54
E725: A655   LDXz 55 hexedit.helpL
E727: 85CE   STAz CE bs.Transfer3.nachL
E729: 86CF   STXz CF bs.Transfer3.nachH
E72B: 20F5E6 JSR E6F5
E72E: 60     RTS
E72F: FF0000 
E732: A002   LDYim 02
E734: 20A525 JSR 25A5 bs.KPUe
E737: 68     PLA
E738: 85CD   STAz CD bs.Transfer3.bisH
E73A: 68     PLA
E73B: 0A     ASLa
E73C: 26CD   ROLz CD bs.Transfer3.bisH
E73E: 4C21E7 JMP E721
E741: FF0000 
E744: A002   LDYim 02
E746: 20A525 JSR 25A5 bs.KPUe
E749: 68     PLA
E74A: 85CD   STAz CD bs.Transfer3.bisH
E74C: 68     PLA
E74D: 0A     ASLa
E74E: 26CD   ROLz CD bs.Transfer3.bisH
E750: 0A     ASLa
E751: 26CD   ROLz CD bs.Transfer3.bisH
E753: 4C21E7 JMP E721
E756: FF0000 
E759: A002   LDYim 02
E75B: 20A525 JSR 25A5 bs.KPUe
E75E: 68     PLA
E75F: 8551   STAz 51
E761: 68     PLA
E762: 8550   STAz 50
E764: A001   LDYim 01
E766: B124   LDAiy 24
E768: 18     CLC
E769: 6902   ADCim 02
E76B: 85CC   STAz CC bs.Transfer3.bisL
E76D: C8     INY
E76E: B124   LDAiy 24
E770: 6900   ADCim 00
E772: 85CD   STAz CD bs.Transfer3.bisH
E774: A001   LDYim 01
E776: B124   LDAiy 24
E778: 18     CLC
E779: E550   SBCz 50
E77B: C8     INY
E77C: B124   LDAiy 24
E77E: E551   SBCz 51
E780: 9004   BCC +4>86
E782: 20E1EE JSR EEE1
E785: 00     BRK
E786: 4C23E7 JMP E723
E789: FF0000 
E78C: A002   LDYim 02
E78E: 20A525 JSR 25A5 bs.KPUe
E791: 68     PLA
E792: 8551   STAz 51
E794: 68     PLA
E795: 8550   STAz 50
E797: 20F2E9 JSR E9F2
E79A: 4C72E7 JMP E772
E79D: FFFFFF 
E7A0: FFFFFF 
E7A3: FFFFFF 
E7A6: FFFFFF 
E7A9: FFFFFF 
E7AC: FFFFFF 
E7AF: FFFFFF 
E7B2: FFFFFF 
E7B5: FFFFFF 
E7B8: FFFFFF 
E7BB: FFFFFF 
E7BE: FFFFFF 
E7C1: FFFFFF 
E7C4: FFFFFF 
E7C7: 00     BRK
E7C8: 00     BRK
E7C9: 2020E0 JSR E020
E7CC: A900   LDAim 00
E7CE: 2020E0 JSR E020
E7D1: A901   LDAim 01
E7D3: 2020E0 JSR E020
E7D6: 60     RTS
E7D7: FFFFFF 
E7DA: FF0000 
E7DD: 68     PLA
E7DE: 8550   STAz 50
E7E0: 68     PLA
E7E1: 8551   STAz 51
E7E3: A206   LDXim 06
E7E5: 2002E0 JSR E002
E7E8: 48     PHA
E7E9: CA     DEX
E7EA: D0F9   BNE -7>E5
E7EC: A551   LDAz 51
E7EE: 48     PHA
E7EF: A550   LDAz 50
E7F1: 48     PHA
E7F2: 60     RTS
E7F3: 68     PLA
E7F4: 8550   STAz 50
E7F6: 68     PLA
E7F7: 8551   STAz 51
E7F9: 68     PLA
E7FA: 8555   STAz 55 hexedit.helpL
E7FC: 68     PLA
E7FD: 8554   STAz 54
E7FF: 68     PLA
E800: 8513   STAz 13
E802: 68     PLA
E803: 8512   STAz 12
E805: 68     PLA
E806: 851F   STAz 1F
E808: 68     PLA
E809: 851E   STAz 1E
E80B: A551   LDAz 51
E80D: 48     PHA
E80E: A550   LDAz 50
E810: 48     PHA
E811: 60     RTS
E812: 68     PLA
E813: 8550   STAz 50
E815: 68     PLA
E816: 8551   STAz 51
E818: 2002E0 JSR E002
E81B: 48     PHA
E81C: 2002E0 JSR E002
E81F: 48     PHA
E820: A551   LDAz 51
E822: 48     PHA
E823: A550   LDAz 50
E825: 48     PHA
E826: 60     RTS
E827: 8518   STAz 18
E829: 68     PLA
E82A: 8550   STAz 50
E82C: 68     PLA
E82D: 8551   STAz 51
E82F: 68     PLA
E830: 8513   STAz 13
E832: 68     PLA
E833: 8512   STAz 12
E835: A551   LDAz 51
E837: 48     PHA
E838: A550   LDAz 50
E83A: 48     PHA
E83B: A518   LDAz 18
E83D: 60     RTS
E83E: FF0000 
E841: 2066E8 JSR E866
E844: 4C83E8 JMP E883
E847: FF0000 
E84A: 2002E0 JSR E002
E84D: C51E   CMPz 1E
E84F: D007   BNE +7>58
E851: 2002E0 JSR E002
E854: C51F   CMPz 1F
E856: F004   BEQ +4>5C
E858: 20E1EE JSR EEE1
E85B: 00     BRK
E85C: A51E   LDAz 1E
E85E: D002   BNE +2>62
E860: A51F   LDAz 1F
E862: 60     RTS
E863: FF0000 
E866: 2030E4 JSR E430
E869: A51E   LDAz 1E
E86B: C901   CMPim 01
E86D: D004   BNE +4>73
E86F: A51F   LDAz 1F
E871: F004   BEQ +4>77
E873: 20E1EE JSR EEE1
E876: 00     BRK
E877: 60     RTS
E878: 00     BRK
E879: 00     BRK
E87A: 2030E4 JSR E430
E87D: 204AE8 JSR E84A
E880: D001   BNE +1>83
E882: 60     RTS
E883: A51E   LDAz 1E
E885: A61F   LDXz 1F
E887: 85CC   STAz CC bs.Transfer3.bisL
E889: 86CD   STXz CD bs.Transfer3.bisH
E88B: A554   LDAz 54
E88D: 38     SEC
E88E: 6512   ADCz 12
E890: 85CE   STAz CE bs.Transfer3.nachL
E892: A555   LDAz 55 hexedit.helpL
E894: 6513   ADCz 13
E896: 85CF   STAz CF bs.Transfer3.nachH
E898: 20F5E6 JSR E6F5
E89B: 60     RTS
E89C: FFFFFF 
E89F: FF0000 
E8A2: A518   LDAz 18
E8A4: D001   BNE +1>A7
E8A6: 60     RTS
E8A7: 20D8E9 JSR E9D8
E8AA: 2020E0 JSR E020
E8AD: A524   LDAz 24
E8AF: 18     CLC
E8B0: 6516   ADCz 16
E8B2: 851A   STAz 1A
E8B4: A525   LDAz 25
E8B6: 6517   ADCz 17
E8B8: 851B   STAz 1B
E8BA: A908   LDAim 08
E8BC: 38     SEC
E8BD: E518   SBCz 18
E8BF: 2033E5 JSR E533
E8C2: 60     RTS
E8C3: FF0000 
E8C6: A518   LDAz 18
E8C8: D001   BNE +1>CB
E8CA: 60     RTS
E8CB: AA     TAX
E8CC: BDF2E5 LDAx E5F2
E8CF: 49FF   EORim FF
E8D1: A001   LDYim 01
E8D3: 3124   ANDiy 24
E8D5: 8519   STAz 19
E8D7: BDF2E5 LDAx E5F2
E8DA: C8     INY
E8DB: 3120   ANDiy 20
E8DD: 0519   ORAz 19
E8DF: 88     DEY
E8E0: 9124   STAiy 24
E8E2: 60     RTS
E8E3: FF0000 
E8E6: A518   LDAz 18
E8E8: 18     CLC
E8E9: 651E   ADCz 1E
E8EB: 2907   ANDim 07
E8ED: D001   BNE +1>F0
E8EF: 60     RTS
E8F0: AA     TAX
E8F1: A524   LDAz 24
E8F3: 18     CLC
E8F4: 6516   ADCz 16
E8F6: 8522   STAz 22
E8F8: A525   LDAz 25
E8FA: 6517   ADCz 17
E8FC: 8523   STAz 23
E8FE: A520   LDAz 20
E900: 18     CLC
E901: 6516   ADCz 16
E903: 8550   STAz 50
E905: A521   LDAz 21
E907: 6517   ADCz 17
E909: 8551   STAz 51
E90B: BDF2E5 LDAx E5F2
E90E: 49FF   EORim FF
E910: A001   LDYim 01
E912: 3150   ANDiy 50
E914: 8519   STAz 19
E916: BDF2E5 LDAx E5F2
E919: 88     DEY
E91A: 3122   ANDiy 22
E91C: 0519   ORAz 19
E91E: EA     NOP
E91F: 9122   STAiy 22
E921: 60     RTS
E922: FF0000 
E925: A518   LDAz 18
E927: D001   BNE +1>2A
E929: 60     RTS
E92A: A51E   LDAz 1E
E92C: 18     CLC
E92D: 6907   ADCim 07
E92F: 851A   STAz 1A
E931: A51F   LDAz 1F
E933: 6900   ADCim 00
E935: 4A     LSRa
E936: 661A   RORz 1A
E938: 4A     LSRa
E939: 661A   RORz 1A
E93B: 4A     LSRa
E93C: 661A   RORz 1A
E93E: C517   CMPz 17
E940: D009   BNE +9>4B
E942: A51A   LDAz 1A
E944: C516   CMPz 16
E946: D003   BNE +3>4B
E948: 2002E0 JSR E002
E94B: 60     RTS
E94C: FFFFFF 
E94F: FF0000 
E952: 2066E8 JSR E866
E955: 4C64E9 JMP E964
E958: FF0000 
E95B: 2030E4 JSR E430
E95E: 204AE8 JSR E84A
E961: D001   BNE +1>64
E963: 60     RTS
E964: A514   LDAz 14
E966: 2907   ANDim 07
E968: 8518   STAz 18
E96A: 20A2E8 JSR E8A2
E96D: A518   LDAz 18
E96F: 18     CLC
E970: 651E   ADCz 1E
E972: 08     PHP
E973: 18     CLC
E974: 6907   ADCim 07
E976: 8516   STAz 16
E978: A51F   LDAz 1F
E97A: 6900   ADCim 00
E97C: 28     PLP
E97D: 6900   ADCim 00
E97F: 4A     LSRa
E980: 6616   RORz 16
E982: 4A     LSRa
E983: 6616   RORz 16
E985: 4A     LSRa
E986: 6616   RORz 16
E988: 8517   STAz 17
E98A: 18     CLC
E98B: A514   LDAz 14
E98D: EA     NOP
E98E: EA     NOP
E98F: 8520   STAz 20
E991: A515   LDAz 15
E993: 6900   ADCim 00
E995: 4A     LSRa
E996: 6620   RORz 20
E998: 4A     LSRa
E999: 6620   RORz 20
E99B: 4A     LSRa
E99C: 6620   RORz 20
E99E: AA     TAX
E99F: A520   LDAz 20
E9A1: 18     CLC
E9A2: 6554   ADCz 54
E9A4: 8520   STAz 20
E9A6: 8A     TXAa
E9A7: 6555   ADCz 55 hexedit.helpL
E9A9: 8521   STAz 21
E9AB: 20C6E8 JSR E8C6
E9AE: 20E6E8 JSR E8E6
E9B1: A516   LDAz 16
E9B3: A617   LDXz 17
E9B5: 85CC   STAz CC bs.Transfer3.bisL
E9B7: 86CD   STXz CD bs.Transfer3.bisH
E9B9: A520   LDAz 20
E9BB: EA     NOP
E9BC: EA     NOP
E9BD: 18     CLC
E9BE: 6902   ADCim 02
E9C0: 85CE   STAz CE bs.Transfer3.nachL
E9C2: A521   LDAz 21
E9C4: 6900   ADCim 00
E9C6: EA     NOP
E9C7: EA     NOP
E9C8: EA     NOP
E9C9: 85CF   STAz CF bs.Transfer3.nachH
E9CB: 20F5E6 JSR E6F5
E9CE: 2025E9 JSR E925
E9D1: 60     RTS
E9D2: FFFFFF 
E9D5: FF0000 
E9D8: A51E   LDAz 1E
E9DA: 18     CLC
E9DB: 690F   ADCim 0F
E9DD: 8516   STAz 16
E9DF: A51F   LDAz 1F
E9E1: 6900   ADCim 00
E9E3: 4A     LSRa
E9E4: 6616   RORz 16
E9E6: 4A     LSRa
E9E7: 6616   RORz 16
E9E9: 4A     LSRa
E9EA: 6616   RORz 16
E9EC: 8517   STAz 17
E9EE: 60     RTS
E9EF: FF0000 
E9F2: 18     CLC
E9F3: A001   LDYim 01
E9F5: B124   LDAiy 24
E9F7: 6917   ADCim 17
E9F9: 85CC   STAz CC bs.Transfer3.bisL
E9FB: C8     INY
E9FC: B124   LDAiy 24
E9FE: 6900   ADCim 00
EA00: 4A     LSRa
EA01: 66CC   RORz CC bs.Transfer3.bisL
EA03: 4A     LSRa
EA04: 66CC   RORz CC bs.Transfer3.bisL
EA06: 4A     LSRa
EA07: 66CC   RORz CC bs.Transfer3.bisL
EA09: 85CD   STAz CD bs.Transfer3.bisH
EA0B: 60     RTS
EA0C: FFFFFF 
EA0F: FFFFFF 
EA12: FF0000 
EA15: AA     TAX
EA16: 1004   BPL +4>1C
EA18: A2FF   LDXim FF
EA1A: D002   BNE +2>1E
EA1C: A200   LDXim 00
EA1E: 8514   STAz 14
EA20: 8615   STXz 15
EA22: 60     RTS
EA23: AA     TAX
EA24: 301F   BMI +31>45
EA26: 8515   STAz 15
EA28: 60     RTS
EA29: A517   LDAz 17
EA2B: F00F   BEQ +15>3C
EA2D: C9FF   CMPim FF
EA2F: D014   BNE +20>45
EA31: A516   LDAz 16
EA33: C9FF   CMPim FF
EA35: D00E   BNE +14>45
EA37: A515   LDAz 15
EA39: 100A   BPL +10>45
EA3B: 60     RTS
EA3C: A516   LDAz 16
EA3E: D005   BNE +5>45
EA40: A515   LDAz 15
EA42: 3001   BMI +1>45
EA44: 60     RTS
EA45: 20E1EE JSR EEE1
EA48: 02     
EA49: FFFFFF 
EA4C: FFFF00 
EA4F: 00     BRK
EA50: 2002E0 JSR E002
EA53: 8514   STAz 14
EA55: 2002E0 JSR E002
EA58: 8515   STAz 15
EA5A: 60     RTS
EA5B: FF0000 
EA5E: 38     SEC
EA5F: A514   LDAz 14
EA61: E518   SBCz 18
EA63: 8514   STAz 14
EA65: A515   LDAz 15
EA67: E519   SBCz 19
EA69: 8515   STAz 15
EA6B: 60     RTS
EA6C: 38     SEC
EA6D: A514   LDAz 14
EA6F: C518   CMPz 18
EA71: A515   LDAz 15
EA73: E519   SBCz 19
EA75: 60     RTS
EA76: FFFFFF 
EA79: FF0000 
EA7C: 68     PLA
EA7D: 8518   STAz 18
EA7F: 68     PLA
EA80: 8519   STAz 19
EA82: 68     PLA
EA83: 8554   STAz 54
EA85: 68     PLA
EA86: 8555   STAz 55 hexedit.helpL
EA88: A519   LDAz 19
EA8A: 48     PHA
EA8B: A518   LDAz 18
EA8D: 48     PHA
EA8E: 60     RTS
EA8F: 00     BRK
EA90: 00     BRK
EA91: 68     PLA
EA92: 8518   STAz 18
EA94: 68     PLA
EA95: 8519   STAz 19
EA97: A555   LDAz 55 hexedit.helpL
EA99: 48     PHA
EA9A: A554   LDAz 54
EA9C: 48     PHA
EA9D: A519   LDAz 19
EA9F: 48     PHA
EAA0: A518   LDAz 18
EAA2: 48     PHA
EAA3: 60     RTS
EAA4: FF0000 
EAA7: A512   LDAz 12
EAA9: A613   LDXz 13
EAAB: 2020E6 JSR E620
EAAE: A554   LDAz 54
EAB0: A655   LDXz 55 hexedit.helpL
EAB2: 2020E6 JSR E620
EAB5: 60     RTS
EAB6: 8516   STAz 16
EAB8: 2002E0 JSR E002
EABB: 8554   STAz 54
EABD: 2002E0 JSR E002
EAC0: 8555   STAz 55 hexedit.helpL
EAC2: A516   LDAz 16
EAC4: 60     RTS
EAC5: 48     PHA
EAC6: EA     NOP
EAC7: 20B8EA JSR EAB8
EACA: 2002E0 JSR E002
EACD: 8512   STAz 12
EACF: 2002E0 JSR E002
EAD2: 8513   STAz 13
EAD4: 68     PLA
EAD5: 60     RTS
EAD6: FFFF22 
EAD9: 33     
EADA: 2045ED JSR ED45
EADD: 4CEDE3 JMP E3ED
EAE0: 20EBEC JSR ECEB
EAE3: 4CEDE3 JMP E3ED
EAE6: 2038ED JSR ED38
EAE9: 4CEDE3 JMP E3ED
EAEC: 203EED JSR ED3E
EAEF: 4CEDE3 JMP E3ED
EAF2: FFFFFF 
EAF5: FFFFFF 
EAF8: FFFFFF 
EAFB: FFFFFF 
EAFE: FFFFFF 
EB01: FFFFFF 
EB04: FFFFFF 
EB07: FF2233 
EB0A: 68     PLA
EB0B: 8517   STAz 17
EB0D: 68     PLA
EB0E: 8516   STAz 16
EB10: A004   LDYim 04
EB12: 20A525 JSR 25A5 bs.KPUe
EB15: 68     PLA
EB16: 8519   STAz 19
EB18: 68     PLA
EB19: 8518   STAz 18
EB1B: 205EEA JSR EA5E
EB1E: 3012   BMI +18>32
EB20: 68     PLA
EB21: 8519   STAz 19
EB23: 68     PLA
EB24: 8518   STAz 18
EB26: 206CEA JSR EA6C
EB29: B007   BCS +7>32
EB2B: A516   LDAz 16
EB2D: 48     PHA
EB2E: A517   LDAz 17
EB30: 48     PHA
EB31: 60     RTS
EB32: 20E1EE JSR EEE1
EB35: 00     BRK
EB36: FF0000 
EB39: A514   LDAz 14
EB3B: A000   LDYim 00
EB3D: D154   CMPiy 54
EB3F: A515   LDAz 15
EB41: C8     INY
EB42: F154   SBCiy 54
EB44: B001   BCS +1>47
EB46: 60     RTS
EB47: 20E1EE JSR EEE1
EB4A: 00     BRK
EB4B: FFFFFF 
EB4E: FFFFFF 
EB51: FFFFFF 
EB54: FFFFFF 
EB57: FFFFFF 
EB5A: FFFFFF 
EB5D: FFFFFF 
EB60: FFFFFF 
EB63: FFFFFF 
EB66: FFFFFF 
EB69: FFFFFF 
EB6C: FFFFFF 
EB6F: FFFFFF 
EB72: FFFFFF 
EB75: FFFFFF 
EB78: FFFFFF 
EB7B: FFFFFF 
EB7E: FFFFFF 
EB81: FFFFFF 
EB84: FFFFFF 
EB87: FFFFFF 
EB8A: FFFFFF 
EB8D: FFFFFF 
EB90: FFFFFF 
EB93: FFFFFF 
EB96: FFFFFF 
EB99: FFFFFF 
EB9C: FFFFFF 
EB9F: FFFFFF 
EBA2: FFFFFF 
EBA5: FFFFFF 
EBA8: FFFFFF 
EBAB: FFFFFF 
EBAE: FFFFFF 
EBB1: FFFF00 
EBB4: 00     BRK
EBB5: 200AEB JSR EB0A
EBB8: A002   LDYim 02
EBBA: 20A525 JSR 25A5 bs.KPUe
EBBD: 68     PLA
EBBE: 8519   STAz 19
EBC0: 68     PLA
EBC1: 8518   STAz 18
EBC3: 208BE3 JSR E38B
EBC6: A514   LDAz 14
EBC8: 18     CLC
EBC9: 6554   ADCz 54
EBCB: 8554   STAz 54
EBCD: A515   LDAz 15
EBCF: 6555   ADCz 55 hexedit.helpL
EBD1: 8555   STAz 55 hexedit.helpL
EBD3: 60     RTS
EBD4: FFFFFF 
EBD7: FFFFFF 
EBDA: FFFFFF 
EBDD: FFFFFF 
EBE0: FF0000 
EBE3: 200AEB JSR EB0A
EBE6: 4CC6EB JMP EBC6
EBE9: 00     BRK
EBEA: 2002E0 JSR E002
EBED: 8554   STAz 54
EBEF: 2002E0 JSR E002
EBF2: 8555   STAz 55 hexedit.helpL
EBF4: 60     RTS
EBF5: 200AEB JSR EB0A
EBF8: 0614   ASLz 14
EBFA: 2615   ROLz 15
EBFC: 4CC6EB JMP EBC6
EBFF: FFFFFF 
EC02: FFFFFF 
EC05: FFFF00 
EC08: 00     BRK
EC09: 200AEB JSR EB0A
EC0C: 0614   ASLz 14
EC0E: 2615   ROLz 15
EC10: 0614   ASLz 14
EC12: 2615   ROLz 15
EC14: 4CC6EB JMP EBC6
EC17: FFFFFF 
EC1A: FFFFFF 
EC1D: FFFFFF 
EC20: FFFFFF 
EC23: FFFFFF 
EC26: FFFFFF 
EC29: FFFFFF 
EC2C: FFFFFF 
EC2F: FFFF00 
EC32: 00     BRK
EC33: 200AEB JSR EB0A
EC36: 2039EB JSR EB39
EC39: 4CC6EB JMP EBC6
EC3C: FFFFFF 
EC3F: FFFFFF 
EC42: FFFFFF 
EC45: FFFFFF 
EC48: FFFFFF 
EC4B: FFFFFF 
EC4E: FFFFFF 
EC51: FFFFFF 
EC54: FF0000 
EC57: 200AEB JSR EB0A
EC5A: A614   LDXz 14
EC5C: A415   LDYz 15
EC5E: E8     INX
EC5F: D001   BNE +1>62
EC61: C8     INY
EC62: 8612   STXz 12
EC64: 8413   STYz 13
EC66: A201   LDXim 01
EC68: 861E   STXz 1E
EC6A: CA     DEX
EC6B: 861F   STXz 1F
EC6D: 2030E4 JSR E430
EC70: 60     RTS
EC71: FF0000 
EC74: A201   LDXim 01
EC76: 861E   STXz 1E
EC78: CA     DEX
EC79: 861F   STXz 1F
EC7B: 204AE5 JSR E54A
EC7E: 2050EA JSR EA50
EC81: 2002E0 JSR E002
EC84: 60     RTS
EC85: FF0000 
EC88: 2020E0 JSR E020
EC8B: A201   LDXim 01
EC8D: 861E   STXz 1E
EC8F: CA     DEX
EC90: 861F   STXz 1F
EC92: 2030E4 JSR E430
EC95: 2064E9 JSR E964
EC98: 60     RTS
EC99: FFFFFF 
EC9C: FF0000 
EC9F: A51E   LDAz 1E
ECA1: D005   BNE +5>A8
ECA3: A51F   LDAz 1F
ECA5: D001   BNE +1>A8
ECA7: 60     RTS
ECA8: A554   LDAz 54
ECAA: 18     CLC
ECAB: 651E   ADCz 1E
ECAD: 8554   STAz 54
ECAF: A555   LDAz 55 hexedit.helpL
ECB1: 651F   ADCz 1F
ECB3: 8555   STAz 55 hexedit.helpL
ECB5: A001   LDYim 01
ECB7: B154   LDAiy 54
ECB9: 3DF2E5 ORAx E5F2
ECBC: 9154   STAiy 54
ECBE: E005   CPXim 05
ECC0: 101F   BPL +31>E1
ECC2: 8A     TXAa
ECC3: F01C   BEQ +28>E1
ECC5: A51E   LDAz 1E
ECC7: D002   BNE +2>CB
ECC9: C61F   DECz 1F
ECCB: C61E   DECz 1E
ECCD: 20CE24 JSR 24CE hexedit.Blank
ECD0: A001   LDYim 01
ECD2: B154   LDAiy 54
ECD4: 290F   ANDim 0F
ECD6: 20E224 JSR 24E2 hexedit.Nibble
ECD9: A554   LDAz 54
ECDB: D002   BNE +2>DF
ECDD: C655   DECz 55 hexedit.helpL
ECDF: C654   DECz 54
ECE1: 60     RTS
ECE2: FFFFFF 
ECE5: FFFFFF 
ECE8: FF2233 
ECEB: AA     TAX
ECEC: 3012   BMI +18>00
ECEE: 60     RTS
ECEF: AA     TAX
ECF0: D021   BNE +33>13
ECF2: F02E   BEQ +46>22
ECF4: AA     TAX
ECF5: D009   BNE +9>00
ECF7: F029   BEQ +41>22
ECF9: AA     TAX
ECFA: D004   BNE +4>00
ECFC: A514   LDAz 14
ECFE: 60     RTS
ECFF: 00     BRK
ED00: 20E1EE JSR EEE1
ED03: 02     
ED04: 00     BRK
ED05: AA     TAX
ED06: D0F8   BNE -8>00
ED08: A514   LDAz 14
ED0A: 60     RTS
ED0B: A517   LDAz 17
ED0D: F00D   BEQ +13>1C
ED0F: 2516   ANDz 16
ED11: 2515   ANDz 15
ED13: C9FF   CMPim FF
ED15: D0E9   BNE -23>00
ED17: A514   LDAz 14
ED19: 10E5   BPL -27>00
ED1B: 60     RTS
ED1C: A516   LDAz 16
ED1E: 0515   ORAz 15
ED20: D0DE   BNE -34>00
ED22: A514   LDAz 14
ED24: 30DA   BMI -38>00
ED26: 60     RTS
ED27: A517   LDAz 17
ED29: 0516   ORAz 16
ED2B: 0515   ORAz 15
ED2D: D0D1   BNE -47>00
ED2F: A514   LDAz 14
ED31: 60     RTS
ED32: FF0000 
ED35: AA     TAX
ED36: 30C8   BMI -56>00
ED38: A200   LDXim 00
ED3A: 8514   STAz 14
ED3C: 8A     TXAa
ED3D: 60     RTS
ED3E: AA     TAX
ED3F: 10F7   BPL -9>38
ED41: A2FF   LDXim FF
ED43: 30F5   BMI -11>3A
ED45: A517   LDAz 17
ED47: F00B   BEQ +11>54
ED49: 2516   ANDz 16
ED4B: C9FF   CMPim FF
ED4D: D0B1   BNE -79>00
ED4F: A515   LDAz 15
ED51: 10AD   BPL -83>00
ED53: 60     RTS
ED54: A516   LDAz 16
ED56: D0A8   BNE -88>00
ED58: A515   LDAz 15
ED5A: 30A4   BMI -92>00
ED5C: 60     RTS
ED5D: A517   LDAz 17
ED5F: 0516   ORAz 16
ED61: D09D   BNE -99>00
ED63: A515   LDAz 15
ED65: 60     RTS
ED66: FF0000 
ED69: AA     TAX
ED6A: 1004   BPL +4>70
ED6C: A2FF   LDXim FF
ED6E: D002   BNE +2>72
ED70: A200   LDXim 00
ED72: 8514   STAz 14
ED74: 8615   STXz 15
ED76: 8616   STXz 16
ED78: 8617   STXz 17
ED7A: 60     RTS
ED7B: AA     TAX
ED7C: 1006   BPL +6>84
ED7E: 8515   STAz 15
ED80: A2FF   LDXim FF
ED82: D0F2   BNE -14>76
ED84: 8515   STAz 15
ED86: A200   LDXim 00
ED88: F0EC   BEQ -20>76
ED8A: FF0000 
ED8D: 38     SEC
ED8E: E930   SBCim 30
ED90: 906E   BCC +110>00
ED92: C90A   CMPim 0A
ED94: B06A   BCS +106>00
ED96: 60     RTS
ED97: 208DED JSR ED8D
ED9A: 909C   BCC -100>38
ED9C: 208DED JSR ED8D
ED9F: 90CF   BCC -49>70
EDA1: FF0000 
EDA4: 2027ED JSR ED27
EDA7: 4CB9ED JMP EDB9
EDAA: 2005ED JSR ED05
EDAD: 4CB9ED JMP EDB9
EDB0: 20F9EC JSR ECF9
EDB3: 4CB9ED JMP EDB9
EDB6: 20EBEC JSR ECEB
EDB9: C90A   CMPim 0A
EDBB: B043   BCS +67>00
EDBD: 0930   ORAim 30
EDBF: 60     RTS
EDC0: 2027ED JSR ED27
EDC3: 4CD5ED JMP EDD5
EDC6: 2005ED JSR ED05
EDC9: 4CD5ED JMP EDD5
EDCC: 20F9EC JSR ECF9
EDCF: 4CD5ED JMP EDD5
EDD2: 20EBEC JSR ECEB
EDD5: C902   CMPim 02
EDD7: B027   BCS +39>00
EDD9: 60     RTS
EDDA: 2002E0 JSR E002
EDDD: C908   CMPim 08
EDDF: D01F   BNE +31>00
EDE1: 2002E0 JSR E002
EDE4: D01A   BNE +26>00
EDE6: 2002E0 JSR E002
EDE9: 60     RTS
EDEA: FF2233 
EDED: 2020E0 JSR E020
EDF0: A908   LDAim 08
EDF2: D016   BNE +22>0A
EDF4: 20EDE3 JSR E3ED
EDF7: A910   LDAim 10
EDF9: D00F   BNE +15>0A
EDFB: FFFFFF 
EDFE: 22     
EDFF: 33     
EE00: 20E1EE JSR EEE1
EE03: 02     
EE04: 00     BRK
EE05: 2043E6 JSR E643
EE08: A920   LDAim 20
EE0A: A200   LDXim 00
EE0C: 2020E6 JSR E620
EE0F: 60     RTS
EE10: FFFFFF 
EE13: FF2233 
EE16: 2070E1 JSR E170
EE19: 4C31EE JMP EE31
EE1C: 20A4E1 JSR E1A4
EE1F: 4C31EE JMP EE31
EE22: 208CE1 JSR E18C
EE25: 4C31EE JMP EE31
EE28: 20B9E1 JSR E1B9
EE2B: 4C31EE JMP EE31
EE2E: 20ACE1 JSR E1AC
EE31: A209   LDXim 09
EE33: B507   LDAzx 07
EE35: D003   BNE +3>3A
EE37: CA     DEX
EE38: D0F9   BNE -7>33
EE3A: 8650   STXz 50
EE3C: A200   LDXim 00
EE3E: 8651   STXz 51
EE40: B507   LDAzx 07
EE42: 0930   ORAim 30
EE44: 2020E0 JSR E020
EE47: A651   LDXz 51
EE49: E450   CPXz 50
EE4B: F003   BEQ +3>50
EE4D: E8     INX
EE4E: D0EE   BNE -18>3E
EE50: A511   LDAz 11
EE52: F007   BEQ +7>5B
EE54: A92D   LDAim 2D
EE56: 2020E0 JSR E020
EE59: E650   INCz 50
EE5B: E650   INCz 50
EE5D: A900   LDAim 00
EE5F: 2020E0 JSR E020
EE62: A550   LDAz 50
EE64: 2020E0 JSR E020
EE67: 60     RTS
EE68: FFFFFF 
EE6B: FFFFFF 
EE6E: FFFFFF 
EE71: FFFFFF 
EE74: FFFFFF 
EE77: FFFFFF 
EE7A: FFFFFF 
EE7D: FFFFFF 
EE80: FFFFFF 
EE83: FFFFFF 
EE86: FFFFFF 
EE89: FFFFFF 
EE8C: FFFFFF 
EE8F: FFFFFF 
EE92: FFFFFF 
EE95: FFFFFF 
EE98: FFFFFF 
EE9B: FFFFFF 
EE9E: FFFFFF 
EEA1: FFFFFF 
EEA4: FFFFFF 
EEA7: FFFFFF 
EEAA: FFFFFF 
EEAD: FFFFFF 
EEB0: FFFFFF 
EEB3: FFFFFF 
EEB6: FFFFFF 
EEB9: FFFFFF 
EEBC: FFFFFF 
EEBF: FFFFFF 
EEC2: FFFFFF 
EEC5: FFFFFF 
EEC8: FFFFFF 
EECB: FFFFFF 
EECE: FFFFFF 
EED1: FFFFFF 
EED4: FFFFFF 
EED7: FFFFFF 
EEDA: FFFFFF 
EEDD: FFFF22 
EEE0: 33     
EEE1: A001   LDYim 01
EEE3: 20A525 JSR 25A5 bs.KPUe
EEE6: 200325 JSR 2503 hexedit.lwriteVonBis
EEE9: 5EEF6D LSRx 6DEF
EEEC: EF     
EEED: 68     PLA
EEEE: 0A     ASLa
EEEF: 0A     ASLa
EEF0: A8     TAY
EEF1: A200   LDXim 00
EEF3: B910EF LDAy EF10
EEF6: 9531   STAzx 31
EEF8: C8     INY
EEF9: E8     INX
EEFA: E004   CPXim 04
EEFC: D0F5   BNE -11>F3
EEFE: 201425 JSR 2514 hexedit.writeBlock
EF01: 200625 JSR 2506 hexedit.writeVonBis
EF04: 5EEF64 LSRx 64EF
EF07: EF     
EF08: EA     NOP
EF09: EA     NOP
EF0A: 4C1D1C JMP 1C1D monitor.RESET
EF0D: FF0000 
EF10: 85EF   STAz EF monitor.SavePCL
EF12: 90EF   BCC -17>03
EF14: 92     
EF15: EF     
EF16: A2EF   LDXim EF
EF18: A4EF   LDYz EF monitor.SavePCL
EF1A: B8     CLV
EF1B: EF     
EF1C: BA     TSX
EF1D: EF     
EF1E: C3     
EF1F: EF     
EF20: C5EF   CMPz EF monitor.SavePCL
EF22: CEEFD0 DEC D0EF
EF25: EF     
EF26: D5EF   CMPzx EF monitor.SavePCL
EF28: D7     
EF29: EF     
EF2A: DDEFDF CMPx DFEF
EF2D: EF     
EF2E: E6EF   INCz EF monitor.SavePCL
EF30: E8     INX
EF31: EF     
EF32: F3     
EF33: EF     
EF34: F5EF   SBCzx EF monitor.SavePCL
EF36: 00     BRK
EF37: F002   BEQ +2>3B
EF39: F013   BEQ +19>4E
EF3B: F0FF   BEQ -1>3C
EF3D: FFFFFF 
EF40: FFFFFF 
EF43: FFFFFF 
EF46: FFFFFF 
EF49: FFFFFF 
EF4C: FFFFFF 
EF4F: FFFFFF 
EF52: FFFFFF 
EF55: FFFFFF 
EF58: FF0000 
EF5B: FFFF02 ---- text data
EF5E: 202A2A2A 2A2A2046 65686C65 72203A20  ' ***** Fehler : '
EF6E: 1DFFFFFF FFFFFFFF FFFFFFFF FFFFFFFF  '????????????????'
EF7E: FFFFFFFF FFFF1D49 6E646578 62657265  '???????Indexbere'
EF8E: 6963681D 496E7465 67657220 55656265  'ich?Integer Uebe'
EF9E: 726C6175 661D756E 6D6F6567 6C696368  'rlauf?unmoeglich'
EFAE: 6520416E 70617373 756E671D 53746163  'e Anpassung?Stac'
EFBE: 6B206C65 65721D53 7461636B 20766F6C  'k leer?Stack vol'
EFCE: 6C1D466F 726D6174 1D45696E 67616265  'l?Format?Eingabe'
EFDE: 1D436F6D 70696C65 721D6661 6C736368  '?Compiler?falsch'
EFEE: 65722054 79701D4E 756C6C64 69766973  'er Typ?Nulldivis'
EFFE: 696F6E1D 66616C73 63686520 46656C64  'ion?falsche Feld'
F00E: 6C61656E 67651DFF FFFFFFFF FFFFFFFF  'laenge??????????'
F01E: FFFFFFFF FFFFFFFF FFFFFFFF FFFFFFFF  '????????????????'
F02E: FFFFFFFF FFFFFFFF FFFFFFFF FFFFFFFF  '????????????????'
F03E: FFFFFFFF FFFFFFFF FFFFFFFF FFFFFFFF  '????????????????'
F04E: FFFFFFFF FFFFFFFF FFFFFFFF FFFFFFFF  '????????????????'
F05E: FFFFFFFF FFFFFFFF FFFFFFFF FFFFFFFF  '????????????????'
F06E: FFFFFFFF FFFFFFFF FFFFFFFF FFFFFFFF  '????????????????'
F07E: FFFFFFFF FFFFFFFF FFFFFFFF FFFFFFFF  '????????????????'
F08E: FFFFFFFF FFFFFFFF FFFFFFFF FFFFFFFF  '????????????????'
F09E: FFFFFFFF FFFFFFFF FFFFFFFF FFFFFFFF  '????????????????'
F0AE: FFFFFFFF FFFFFFFF FFFFFFFF FFFFFFFF  '????????????????'
F0BE: FFFFFFFF FFFFFFFF FFFFFFFF FFFFFFFF  '????????????????'
F0CE: FFFFFFFF FFFFFFFF FFFFFFFF FFFFFFFF  '????????????????'
F0DE: FFFFFFFF FFFFFFFF FFFFFFFF FFFFFFFF  '????????????????'
F0EE: FFFFFFFF FFFFFFFF FFFFFFFF FFFF '??????????????'
F0FC: 03     
F0FD: 03     
F0FE: 22     
F0FF: 33     
F100: 8514   STAz 14
F102: A900   LDAim 00
F104: 38     SEC
F105: E514   SBCz 14
F107: 7097   BCS -105>A0
F109: 60     RTS
F10A: 8515   STAz 15
F10C: A900   LDAim 00
F10E: 38     SEC
F10F: E514   SBCz 14
F111: 8514   STAz 14
F113: A900   LDAim 00
F115: E515   SBCz 15
F117: 7087   BCS -121>A0
F119: 60     RTS
F11A: A214   LDXim 14
F11C: A004   LDYim 04
F11E: 38     SEC
F11F: A900   LDAim 00
F121: F500   SBCzx 00
F123: 9500   STAzx 00
F125: E8     INX
F126: 88     DEY
F127: D0F6   BNE -10>1F
F129: 7075   BCS +117>A0
F12B: 60     RTS
F12C: 00     BRK
F12D: 00     BRK
F12E: A900   LDAim 00
F130: F124   SBCiy 24
F132: 9124   STAiy 24
F134: C8     INY
F135: D002   BNE +2>39
F137: E625   INCz 25
F139: 60     RTS
F13A: 00     BRK
F13B: 00     BRK
F13C: 7062   BCS +98>A0
F13E: 60     RTS
F13F: 202EF1 JSR F12E
F142: 705C   BCS +92>A0
F144: 60     RTS
F145: 202EF1 JSR F12E
F148: 202EF1 JSR F12E
F14B: 202EF1 JSR F12E
F14E: 7050   BCS +80>A0
F150: 60     RTS
F151: FF0000 
F154: 6C001A JMPi 1A00 bs.help1
F157: A51E   LDAz 1E
F159: D002   BNE +2>5D
F15B: C61F   DECz 1F
F15D: C61E   DECz 1E
F15F: D002   BNE +2>63
F161: A51F   LDAz 1F
F163: 60     RTS
F164: FF0000 
F167: A93C   LDAim 3C
F169: D006   BNE +6>71
F16B: A93F   LDAim 3F
F16D: D002   BNE +2>71
F16F: A945   LDAim 45
F171: A2F1   LDXim F1
F173: 8D001A STA 1A00 bs.help1
F176: 8E011A STX 1A01
F179: A002   LDYim 02
F17B: 20A525 JSR 25A5 bs.KPUe
F17E: 68     PLA
F17F: 851F   STAz 1F
F181: 68     PLA
F182: 851E   STAz 1E
F184: A525   LDAz 25
F186: 48     PHA
F187: A001   LDYim 01
F189: 38     SEC
F18A: 202EF1 JSR F12E
F18D: 2054F1 JSR F154
F190: 2057F1 JSR F157
F193: D0F4   BNE -12>89
F195: 68     PLA
F196: 8525   STAz 25
F198: 60     RTS
F199: FFFFFF 
F19C: FF00D0 
F19F: 00     BRK
F1A0: 20E1EE JSR EEE1
F1A3: 0100   ORAix 00
F1A5: 90F9   BCC -7>A0
F1A7: 60     RTS
F1A8: A610   LDXz 10
F1AA: D003   BNE +3>AF
F1AC: 70F2   BCS -14>A0
F1AE: 60     RTS
F1AF: CA     DEX
F1B0: D0F3   BNE -13>A5
F1B2: B0EC   BCS -20>A0
F1B4: 60     RTS
F1B5: 18     CLC
F1B6: A001   LDYim 01
F1B8: B122   LDAiy 22
F1BA: 7124   ADCiy 24
F1BC: 9122   STAiy 22
F1BE: 20A8F1 JSR F1A8
F1C1: A901   LDAim 01
F1C3: 60     RTS
F1C4: 18     CLC
F1C5: A001   LDYim 01
F1C7: B122   LDAiy 22
F1C9: 7124   ADCiy 24
F1CB: 9122   STAiy 22
F1CD: C8     INY
F1CE: B122   LDAiy 22
F1D0: 7124   ADCiy 24
F1D2: 9122   STAiy 22
F1D4: 20A8F1 JSR F1A8
F1D7: A902   LDAim 02
F1D9: 60     RTS
F1DA: 18     CLC
F1DB: A001   LDYim 01
F1DD: A204   LDXim 04
F1DF: B122   LDAiy 22
F1E1: 7124   ADCiy 24
F1E3: 9122   STAiy 22
F1E5: E8     INX
F1E6: CA     DEX
F1E7: D0F6   BNE -10>DF
F1E9: 70B5   BCS -75>A0
F1EB: A904   LDAim 04
F1ED: 60     RTS
F1EE: 33     
F1EF: A200   LDXim 00
F1F1: F002   BEQ +2>F5
F1F3: A201   LDXim 01
F1F5: 8610   STXz 10
F1F7: 8514   STAz 14
F1F9: 2002E0 JSR E002
F1FC: 18     CLC
F1FD: 6514   ADCz 14
F1FF: 4CA8F1 JMP F1A8
F202: A200   LDXim 00
F204: F002   BEQ +2>08
F206: A201   LDXim 01
F208: 8610   STXz 10
F20A: 8515   STAz 15
F20C: 2002E0 JSR E002
F20F: 18     CLC
F210: 6514   ADCz 14
F212: 8514   STAz 14
F214: 08     PHP
F215: 2002E0 JSR E002
F218: 28     PLP
F219: 6515   ADCz 15
F21B: 4CA8F1 JMP F1A8
F21E: A200   LDXim 00
F220: 18     CLC
F221: 08     PHP
F222: 2002E0 JSR E002
F225: 28     PLP
F226: 7514   ADCzx 14
F228: 9514   STAzx 14
F22A: 08     PHP
F22B: E8     INX
F22C: E004   CPXim 04
F22E: D0F2   BNE -14>22
F230: 28     PLP
F231: 7001   BCS +1>34
F233: 60     RTS
F234: 20E1EE JSR EEE1
F237: 0122   ORAix 22
F239: 33     
F23A: A200   LDXim 00
F23C: F002   BEQ +2>40
F23E: A202   LDXim 02
F240: 8610   STXz 10
F242: 8514   STAz 14
F244: 2002E0 JSR E002
F247: 38     SEC
F248: E514   SBCz 14
F24A: 4CA8F1 JMP F1A8
F24D: A200   LDXim 00
F24F: F002   BEQ +2>53
F251: A202   LDXim 02
F253: 8610   STXz 10
F255: 8515   STAz 15
F257: 2002E0 JSR E002
F25A: 38     SEC
F25B: E514   SBCz 14
F25D: 8514   STAz 14
F25F: 08     PHP
F260: 2002E0 JSR E002
F263: 28     PLP
F264: E515   SBCz 15
F266: 4CA8F1 JMP F1A8
F269: A200   LDXim 00
F26B: 38     SEC
F26C: 08     PHP
F26D: 2002E0 JSR E002
F270: 28     PLP
F271: F514   SBCzx 14
F273: 9514   STAzx 14
F275: 08     PHP
F276: E8     INX
F277: E004   CPXim 04
F279: D0F2   BNE -14>6D
F27B: 28     PLP
F27C: 70B6   BCS -74>34
F27E: 60     RTS
F27F: FF0000 
F282: 38     SEC
F283: A001   LDYim 01
F285: B122   LDAiy 22
F287: F124   SBCiy 24
F289: 9122   STAiy 22
F28B: 20A8F1 JSR F1A8
F28E: A901   LDAim 01
F290: 60     RTS
F291: 38     SEC
F292: A001   LDYim 01
F294: B122   LDAiy 22
F296: F124   SBCiy 24
F298: 9122   STAiy 22
F29A: C8     INY
F29B: B122   LDAiy 22
F29D: F124   SBCiy 24
F29F: 9122   STAiy 22
F2A1: 20A8F1 JSR F1A8
F2A4: A902   LDAim 02
F2A6: 60     RTS
F2A7: 38     SEC
F2A8: A001   LDYim 01
F2AA: A204   LDXim 04
F2AC: B122   LDAiy 22
F2AE: F124   SBCiy 24
F2B0: 9122   STAiy 22
F2B2: E8     INX
F2B3: CA     DEX
F2B4: D0F6   BNE -10>AC
F2B6: 5003   BVC +3>BB
F2B8: 4C34F2 JMP F234
F2BB: A904   LDAim 04
F2BD: 60     RTS
F2BE: 8518   STAz 18
F2C0: 2002E0 JSR E002
F2C3: 60     RTS
F2C4: 22     
F2C5: 33     
F2C6: A614   LDXz 14
F2C8: 8618   STXz 18
F2CA: 8519   STAz 19
F2CC: 4C50EA JMP EA50
F2CF: A203   LDXim 03
F2D1: B514   LDAzx 14
F2D3: 9518   STAzx 18
F2D5: CA     DEX
F2D6: 10F9   BPL -7>D1
F2D8: 4C41E0 JMP E041
F2DB: FF2233 
F2DE: A200   LDXim 00
F2E0: 8611   STXz 11
F2E2: 8612   STXz 12
F2E4: EA     NOP
F2E5: 48     PHA
F2E6: A518   LDAz 18
F2E8: 1008   BPL +8>F2
F2EA: 49FF   EORim FF
F2EC: 8518   STAz 18
F2EE: E618   INCz 18
F2F0: E611   INCz 11
F2F2: 68     PLA
F2F3: 1007   BPL +7>FC
F2F5: 49FF   EORim FF
F2F7: 18     CLC
F2F8: 6901   ADCim 01
F2FA: E612   INCz 12
F2FC: 60     RTS
F2FD: FF2233 
F300: A200   LDXim 00
F302: 8611   STXz 11
F304: 8612   STXz 12
F306: 8515   STAz 15
F308: AA     TAX
F309: 1009   BPL +9>14
F30B: A002   LDYim 02
F30D: A214   LDXim 14
F30F: 201EF1 JSR F11E
F312: E612   INCz 12
F314: A519   LDAz 19
F316: 1009   BPL +9>21
F318: A002   LDYim 02
F31A: A218   LDXim 18
F31C: 201EF1 JSR F11E
F31F: E611   INCz 11
F321: A515   LDAz 15
F323: 60     RTS
F324: FFFF22 
F327: 33     
F328: A900   LDAim 00
F32A: 8511   STAz 11
F32C: 8512   STAz 12
F32E: A517   LDAz 17
F330: 1009   BPL +9>3B
F332: A004   LDYim 04
F334: A214   LDXim 14
F336: 201EF1 JSR F11E
F339: E612   INCz 12
F33B: A51B   LDAz 1B
F33D: 1009   BPL +9>48
F33F: A004   LDYim 04
F341: A218   LDXim 18
F343: 201EF1 JSR F11E
F346: E611   INCz 11
F348: 60     RTS
F349: EA     NOP
F34A: EA     NOP
F34B: 8515   STAz 15
F34D: A900   LDAim 00
F34F: A008   LDYim 08
F351: 0A     ASLa
F352: 2615   ROLz 15
F354: 9007   BCC +7>5D
F356: 18     CLC
F357: 6518   ADCz 18
F359: 9002   BCC +2>5D
F35B: E615   INCz 15
F35D: 88     DEY
F35E: D0F1   BNE -15>51
F360: 8514   STAz 14
F362: A515   LDAz 15
F364: 60     RTS
F365: 33     
F366: A200   LDXim 00
F368: 18     CLC
F369: A004   LDYim 04
F36B: B514   LDAzx 14
F36D: 7518   ADCzx 18
F36F: 9514   STAzx 14
F371: E8     INX
F372: 88     DEY
F373: D0F6   BNE -10>6B
F375: 60     RTS
F376: 22     
F377: 33     
F378: 20E1EE JSR EEE1
F37B: 0100   ORAix 00
F37D: A203   LDXim 03
F37F: B514   LDAzx 14
F381: 9508   STAzx 08
F383: A900   LDAim 00
F385: 9514   STAzx 14
F387: CA     DEX
F388: 10F5   BPL -11>7F
F38A: A920   LDAim 20
F38C: 8507   STAz 07
F38E: 0614   ASLz 14
F390: 2615   ROLz 15
F392: 2616   ROLz 16
F394: 2617   ROLz 17
F396: B0E0   BCS -32>78
F398: 0608   ASLz 08
F39A: 2609   ROLz 09
F39C: 260A   ROLz 0A
F39E: 260B   ROLz 0B
F3A0: 9005   BCC +5>A7
F3A2: 2066F3 JSR F366
F3A5: B0D1   BCS -47>78
F3A7: C607   DECz 07
F3A9: D0E3   BNE -29>8E
F3AB: 60     RTS
F3AC: 4612   LSRz 12
F3AE: B001   BCS +1>B1
F3B0: 60     RTS
F3B1: 4C00F1 JMP F100
F3B4: FFFF22 
F3B7: 33     
F3B8: 4612   LSRz 12
F3BA: B001   BCS +1>BD
F3BC: 60     RTS
F3BD: 4C0AF1 JMP F10A
F3C0: 33     
F3C1: 4612   LSRz 12
F3C3: B001   BCS +1>C6
F3C5: 60     RTS
F3C6: 4C1AF1 JMP F11A
F3C9: FFFFFF 
F3CC: FFFF22 
F3CF: 33     
F3D0: A001   LDYim 01
F3D2: B124   LDAiy 24
F3D4: 8518   STAz 18
F3D6: B122   LDAiy 22
F3D8: 60     RTS
F3D9: 22     
F3DA: 33     
F3DB: A002   LDYim 02
F3DD: A201   LDXim 01
F3DF: D004   BNE +4>E5
F3E1: A004   LDYim 04
F3E3: A203   LDXim 03
F3E5: B124   LDAiy 24
F3E7: 9518   STAzx 18
F3E9: B122   LDAiy 22
F3EB: 9514   STAzx 14
F3ED: 88     DEY
F3EE: CA     DEX
F3EF: 10F4   BPL -12>E5
F3F1: A515   LDAz 15
F3F3: 60     RTS
F3F4: FFFF22 
F3F7: 33     
F3F8: 20D0F3 JSR F3D0
F3FB: 2004F4 JSR F404
F3FE: 4C91F6 JMP F691
F401: 20BEF2 JSR F2BE
F404: 20DEF2 JSR F2DE
F407: 2049F3 JSR F349
F40A: 20F4EC JSR ECF4
F40D: 2000F8 JSR F800
F410: 9003   BCC +3>15
F412: 2000F1 JSR F100
F415: 60     RTS
F416: 33     
F417: 20D0F3 JSR F3D0
F41A: 2023F4 JSR F423
F41D: 4C91F6 JMP F691
F420: 20BEF2 JSR F2BE
F423: 2049F3 JSR F349
F426: 2005ED JSR ED05
F429: 60     RTS
F42A: 33     
F42B: 20DBF3 JSR F3DB
F42E: 2037F4 JSR F437
F431: 4CADF6 JMP F6AD
F434: 20C6F2 JSR F2C6
F437: 2000F3 JSR F300
F43A: 20ACE3 JSR E3AC
F43D: 2045ED JSR ED45
F440: 4C5AF5 JMP F55A
F443: 33     
F444: 20DBF3 JSR F3DB
F447: 2050F4 JSR F450
F44A: 4CADF6 JMP F6AD
F44D: 20C6F2 JSR F2C6
F450: 20ACE3 JSR E3AC
F453: 205DED JSR ED5D
F456: 60     RTS
F457: FF2233 
F45A: 20E1F3 JSR F3E1
F45D: 2066F4 JSR F466
F460: 4CCEF6 JMP F6CE
F463: 20CFF2 JSR F2CF
F466: 2028F3 JSR F328
F469: 207DF3 JSR F37D
F46C: A517   LDAz 17
F46E: 3032   BMI +50>A2
F470: 2000F8 JSR F800
F473: 9003   BCC +3>78
F475: 201AF1 JSR F11A
F478: 60     RTS
F479: 33     
F47A: EA     NOP
F47B: 8508   STAz 08
F47D: A900   LDAim 00
F47F: A208   LDXim 08
F481: 8607   STXz 07
F483: 0608   ASLz 08
F485: 2A     ROLa
F486: 9006   BCC +6>8E
F488: 18     CLC
F489: 6518   ADCz 18
F48B: 4C91F4 JMP F491
F48E: 38     SEC
F48F: E518   SBCz 18
F491: 3002   BMI +2>95
F493: E608   INCz 08
F495: C607   DECz 07
F497: D0EA   BNE -22>83
F499: AA     TAX
F49A: 1003   BPL +3>9F
F49C: 18     CLC
F49D: 6518   ADCz 18
F49F: 60     RTS
F4A0: 22     
F4A1: 33     
F4A2: 20E1EE JSR EEE1
F4A5: 0100   ORAix 00
F4A7: 00     BRK
F4A8: 8515   STAz 15
F4AA: A201   LDXim 01
F4AC: B514   LDAzx 14
F4AE: 9508   STAzx 08
F4B0: A900   LDAim 00
F4B2: 9514   STAzx 14
F4B4: CA     DEX
F4B5: 10F5   BPL -11>AC
F4B7: A910   LDAim 10
F4B9: 8507   STAz 07
F4BB: 0608   ASLz 08
F4BD: 2609   ROLz 09
F4BF: 2614   ROLz 14
F4C1: 2615   ROLz 15
F4C3: 9006   BCC +6>CB
F4C5: 20F0F4 JSR F4F0
F4C8: 18     CLC
F4C9: 9003   BCC +3>CE
F4CB: 20E2F4 JSR F4E2
F4CE: A515   LDAz 15
F4D0: 3002   BMI +2>D4
F4D2: E608   INCz 08
F4D4: C607   DECz 07
F4D6: D0E3   BNE -29>BB
F4D8: AA     TAX
F4D9: 3003   BMI +3>DE
F4DB: 20F0F4 JSR F4F0
F4DE: 60     RTS
F4DF: FF0000 
F4E2: 38     SEC
F4E3: A514   LDAz 14
F4E5: E518   SBCz 18
F4E7: 8514   STAz 14
F4E9: A515   LDAz 15
F4EB: E519   SBCz 19
F4ED: 8515   STAz 15
F4EF: 60     RTS
F4F0: 18     CLC
F4F1: A514   LDAz 14
F4F3: 6518   ADCz 18
F4F5: 8514   STAz 14
F4F7: A515   LDAz 15
F4F9: 6519   ADCz 19
F4FB: 8515   STAz 15
F4FD: 60     RTS
F4FE: FFFFFF 
F501: FF0000 
F504: 38     SEC
F505: A200   LDXim 00
F507: A004   LDYim 04
F509: B514   LDAzx 14
F50B: F518   SBCzx 18
F50D: 9514   STAzx 14
F50F: E8     INX
F510: 88     DEY
F511: D0F6   BNE -10>09
F513: 60     RTS
F514: FF0000 
F517: A203   LDXim 03
F519: B514   LDAzx 14
F51B: 9508   STAzx 08
F51D: A900   LDAim 00
F51F: 9514   STAzx 14
F521: CA     DEX
F522: 10F5   BPL -11>19
F524: A920   LDAim 20
F526: 8507   STAz 07
F528: 0608   ASLz 08
F52A: 2609   ROLz 09
F52C: 260A   ROLz 0A
F52E: 260B   ROLz 0B
F530: 2614   ROLz 14
F532: 2615   ROLz 15
F534: 2616   ROLz 16
F536: 2617   ROLz 17
F538: 9006   BCC +6>40
F53A: 2066F3 JSR F366
F53D: 18     CLC
F53E: 9003   BCC +3>43
F540: 2004F5 JSR F504
F543: A517   LDAz 17
F545: 3002   BMI +2>49
F547: E608   INCz 08
F549: C607   DECz 07
F54B: D0DB   BNE -37>28
F54D: AA     TAX
F54E: 1003   BPL +3>53
F550: 2066F3 JSR F366
F553: 60     RTS
F554: FFFFFF 
F557: FF0000 
F55A: 2000F8 JSR F800
F55D: 9003   BCC +3>62
F55F: 200AF1 JSR F10A
F562: 60     RTS
F563: FF2233 
F566: A618   LDXz 18
F568: F00D   BEQ +13>77
F56A: 20DEF2 JSR F2DE
F56D: 207AF4 JSR F47A
F570: 60     RTS
F571: FFFFFF 
F574: FF2233 
F577: 20E1EE JSR EEE1
F57A: 09FF   ORAim FF
F57C: 22     
F57D: 33     
F57E: A618   LDXz 18
F580: F0F5   BEQ -11>77
F582: 8514   STAz 14
F584: A900   LDAim 00
F586: 8519   STAz 19
F588: 20A8F4 JSR F4A8
F58B: A514   LDAz 14
F58D: 60     RTS
F58E: FF2233 
F591: A618   LDXz 18
F593: D004   BNE +4>99
F595: A619   LDXz 19
F597: F0DE   BEQ -34>77
F599: 2000F3 JSR F300
F59C: 20A8F4 JSR F4A8
F59F: 60     RTS
F5A0: FF2233 
F5A3: 8515   STAz 15
F5A5: A518   LDAz 18
F5A7: 0519   ORAz 19
F5A9: F0CC   BEQ -52>77
F5AB: A900   LDAim 00
F5AD: 8516   STAz 16
F5AF: 8517   STAz 17
F5B1: 851A   STAz 1A
F5B3: 851B   STAz 1B
F5B5: 2017F5 JSR F517
F5B8: A515   LDAz 15
F5BA: 60     RTS
F5BB: FF2233 
F5BE: A518   LDAz 18
F5C0: 0519   ORAz 19
F5C2: 051A   ORAz 1A
F5C4: 051B   ORAz 1B
F5C6: F0AF   BEQ -81>77
F5C8: 2028F3 JSR F328
F5CB: 2017F5 JSR F517
F5CE: 60     RTS
F5CF: FFFFFF 
F5D2: FFFFFF 
F5D5: FF2233 
F5D8: 20BEF2 JSR F2BE
F5DB: 2066F5 JSR F566
F5DE: A612   LDXz 12
F5E0: F003   BEQ +3>E5
F5E2: 2000F1 JSR F100
F5E5: 60     RTS
F5E6: FF2233 
F5E9: 20BEF2 JSR F2BE
F5EC: 207EF5 JSR F57E
F5EF: 60     RTS
F5F0: FF2233 
F5F3: 20C6F2 JSR F2C6
F5F6: 2091F5 JSR F591
F5F9: A612   LDXz 12
F5FB: F003   BEQ +3>00
F5FD: 200AF1 JSR F10A
F600: 60     RTS
F601: FF2233 
F604: 20C6F2 JSR F2C6
F607: 20A3F5 JSR F5A3
F60A: 60     RTS
F60B: FF2233 
F60E: 20CFF2 JSR F2CF
F611: 20BEF5 JSR F5BE
F614: A612   LDXz 12
F616: F003   BEQ +3>1B
F618: 201AF1 JSR F11A
F61B: 60     RTS
F61C: FFFFFF 
F61F: FF2233 
F622: 20BEF2 JSR F2BE
F625: 2066F5 JSR F566
F628: A508   LDAz 08
F62A: 2000F8 JSR F800
F62D: 9003   BCC +3>32
F62F: 2000F1 JSR F100
F632: 60     RTS
F633: FF2233 
F636: 20BEF2 JSR F2BE
F639: 207EF5 JSR F57E
F63C: A508   LDAz 08
F63E: 60     RTS
F63F: FF2233 
F642: 20C6F2 JSR F2C6
F645: 2091F5 JSR F591
F648: A508   LDAz 08
F64A: 8514   STAz 14
F64C: A509   LDAz 09
F64E: 2000F8 JSR F800
F651: 9003   BCC +3>56
F653: 200AF1 JSR F10A
F656: 60     RTS
F657: FF2233 
F65A: 20C6F2 JSR F2C6
F65D: 20A3F5 JSR F5A3
F660: A508   LDAz 08
F662: 8514   STAz 14
F664: A509   LDAz 09
F666: 60     RTS
F667: FF2233 
F66A: 20CFF2 JSR F2CF
F66D: 20BEF5 JSR F5BE
F670: A203   LDXim 03
F672: B508   LDAzx 08
F674: 9514   STAzx 14
F676: CA     DEX
F677: 10F9   BPL -7>72
F679: 2000F8 JSR F800
F67C: 9003   BCC +3>81
F67E: 201AF1 JSR F11A
F681: 60     RTS
F682: FFFFFF 
F685: FFFFFF 
F688: FF2233 
F68B: 20D0F3 JSR F3D0
F68E: 20DBF5 JSR F5DB
F691: A001   LDYim 01
F693: 9122   STAiy 22
F695: A901   LDAim 01
F697: 60     RTS
F698: FF2233 
F69B: 20D0F3 JSR F3D0
F69E: 20ECF5 JSR F5EC
F6A1: 4C91F6 JMP F691
F6A4: FF2233 
F6A7: 20DBF3 JSR F3DB
F6AA: 20F6F5 JSR F5F6
F6AD: A002   LDYim 02
F6AF: 9122   STAiy 22
F6B1: 88     DEY
F6B2: A514   LDAz 14
F6B4: 9122   STAiy 22
F6B6: A902   LDAim 02
F6B8: 60     RTS
F6B9: FF2233 
F6BC: 20DBF3 JSR F3DB
F6BF: 2007F6 JSR F607
F6C2: 4CADF6 JMP F6AD
F6C5: FF2233 
F6C8: 20E1F3 JSR F3E1
F6CB: 2011F6 JSR F611
F6CE: A004   LDYim 04
F6D0: A203   LDXim 03
F6D2: B514   LDAzx 14
F6D4: 9122   STAiy 22
F6D6: 88     DEY
F6D7: CA     DEX
F6D8: 10F8   BPL -8>D2
F6DA: A904   LDAim 04
F6DC: 60     RTS
F6DD: FFFFFF 
F6E0: FFFFFF 
F6E3: FF2233 
F6E6: 20D0F3 JSR F3D0
F6E9: 2025F6 JSR F625
F6EC: 4C91F6 JMP F691
F6EF: FF2233 
F6F2: 20D0F3 JSR F3D0
F6F5: 2039F6 JSR F639
F6F8: 4C91F6 JMP F691
F6FB: FF2233 
F6FE: 20DBF3 JSR F3DB
F701: 2045F6 JSR F645
F704: 4CADF6 JMP F6AD
F707: FF2233 
F70A: 20DBF3 JSR F3DB
F70D: 205DF6 JSR F65D
F710: 4CADF6 JMP F6AD
F713: FF2233 
F716: 20E1F3 JSR F3E1
F719: 206DF6 JSR F66D
F71C: 4CCEF6 JMP F6CE
F71F: FFFFFF 
F722: FFFFFF 
F725: FF2233 
F728: 8410   STYz 10
F72A: 8D001A STA 1A00 bs.help1
F72D: 8E011A STX 1A01
F730: A002   LDYim 02
F732: 20A525 JSR 25A5 bs.KPUe
F735: 68     PLA
F736: 851F   STAz 1F
F738: 68     PLA
F739: 851E   STAz 1E
F73B: A522   LDAz 22
F73D: A623   LDXz 23
F73F: 851C   STAz 1C
F741: 861D   STXz 1D
F743: 2055F7 JSR F755
F746: 20DFF7 JSR F7DF
F749: 2057F1 JSR F157
F74C: D0F5   BNE -11>43
F74E: 200BF8 JSR F80B
F751: 60     RTS
F752: FF2233 
F755: 6C001A JMPi 1A00 bs.help1
F758: FFFFFF 
F75B: FFFFFF 
F75E: FFFFFF 
F761: FFFFFF 
F764: FFFFFF 
F767: FFFFFF 
F76A: FFFFFF 
F76D: FFFFFF 
F770: FFFFFF 
F773: FFFFFF 
F776: FFFFFF 
F779: FFFFFF 
F77C: FFFFFF 
F77F: FFFFFF 
F782: FFFFFF 
F785: FFFFFF 
F788: FFFFFF 
F78B: FFFFFF 
F78E: FFFFFF 
F791: FFFFFF 
F794: FFFFFF 
F797: FFFFFF 
F79A: FFFFFF 
F79D: FFFFFF 
F7A0: FFFFFF 
F7A3: FFFFFF 
F7A6: FFFFFF 
F7A9: FFFFFF 
F7AC: FFFFFF 
F7AF: FFFFFF 
F7B2: FFFFFF 
F7B5: FFFFFF 
F7B8: FFFFFF 
F7BB: FFFFFF 
F7BE: FFFFFF 
F7C1: FFFFFF 
F7C4: FFFFFF 
F7C7: FFFFFF 
F7CA: FFFFFF 
F7CD: FF2233 
F7D0: A524   LDAz 24
F7D2: A625   LDXz 25
F7D4: 8522   STAz 22
F7D6: 8623   STXz 23
F7D8: 60     RTS
F7D9: FFFFFF 
F7DC: FF2233 
F7DF: AA     TAX
F7E0: 18     CLC
F7E1: 6522   ADCz 22
F7E3: 8522   STAz 22
F7E5: 9002   BCC +2>E9
F7E7: E623   INCz 23
F7E9: 8A     TXAa
F7EA: 18     CLC
F7EB: 6524   ADCz 24
F7ED: 8524   STAz 24
F7EF: 9002   BCC +2>F3
F7F1: E625   INCz 25
F7F3: 60     RTS
F7F4: FFFFFF 
F7F7: FFFFFF 
F7FA: FFFFFF 
F7FD: FF2233 
F800: AA     TAX
F801: A511   LDAz 11
F803: 4512   EORz 12
F805: 4A     LSRa
F806: 8A     TXAa
F807: 60     RTS
F808: FF2233 
F80B: A524   LDAz 24
F80D: C51C   CMPz 1C
F80F: D007   BNE +7>18
F811: A525   LDAz 25
F813: C51D   CMPz 1D
F815: D001   BNE +1>18
F817: 60     RTS
F818: 20E1EE JSR EEE1
F81B: 07     
F81C: FFFFFF 
F81F: FFFFFF 
F822: FF2233 
F825: A000   LDYim 00
F827: F002   BEQ +2>2B
F829: A001   LDYim 01
F82B: A9B5   LDAim B5
F82D: A2F1   LDXim F1
F82F: 4C28F7 JMP F728
F832: A000   LDYim 00
F834: F002   BEQ +2>38
F836: A001   LDYim 01
F838: A9C4   LDAim C4
F83A: A2F1   LDXim F1
F83C: 4C28F7 JMP F728
F83F: A9DA   LDAim DA
F841: A2F1   LDXim F1
F843: 4C2AF7 JMP F72A
F846: FF2233 
F849: A000   LDYim 00
F84B: F002   BEQ +2>4F
F84D: A002   LDYim 02
F84F: A982   LDAim 82
F851: A2F2   LDXim F2
F853: 4C28F7 JMP F728
F856: A000   LDYim 00
F858: F002   BEQ +2>5C
F85A: A002   LDYim 02
F85C: A991   LDAim 91
F85E: A2F2   LDXim F2
F860: 4C28F7 JMP F728
F863: A9A7   LDAim A7
F865: A2F2   LDXim F2
F867: 4C2AF7 JMP F72A
F86A: FF2233 
F86D: A98B   LDAim 8B
F86F: D00E   BNE +14>7F
F871: A99B   LDAim 9B
F873: D00A   BNE +10>7F
F875: A9A7   LDAim A7
F877: D006   BNE +6>7F
F879: A9BC   LDAim BC
F87B: D002   BNE +2>7F
F87D: A9C8   LDAim C8
F87F: A2F6   LDXim F6
F881: 4C2AF7 JMP F72A
F884: FF2233 
F887: A9E6   LDAim E6
F889: D006   BNE +6>91
F88B: A9F2   LDAim F2
F88D: D002   BNE +2>91
F88F: A9FE   LDAim FE
F891: A2F6   LDXim F6
F893: 4C2AF7 JMP F72A
F896: A90A   LDAim 0A
F898: D002   BNE +2>9C
F89A: A916   LDAim 16
F89C: A2F7   LDXim F7
F89E: 4C2AF7 JMP F72A
F8A1: FF2233 
F8A4: A9F8   LDAim F8
F8A6: A2F3   LDXim F3
F8A8: 4C2AF7 JMP F72A
F8AB: A917   LDAim 17
F8AD: D00A   BNE +10>B9
F8AF: A92B   LDAim 2B
F8B1: D006   BNE +6>B9
F8B3: A944   LDAim 44
F8B5: D002   BNE +2>B9
F8B7: A95A   LDAim 5A
F8B9: A2F4   LDXim F4
F8BB: 4C2AF7 JMP F72A
F8BE: FFFFFF 
F8C1: FFFFFF 
F8C4: FFFFFF 
F8C7: FFFFFF 
F8CA: FFFFFF 
F8CD: FF2233 
F8D0: A001   LDYim 01
F8D2: 20A525 JSR 25A5 bs.KPUe
F8D5: 68     PLA
F8D6: D001   BNE +1>D9
F8D8: 60     RTS
F8D9: 8550   STAz 50
F8DB: A004   LDYim 04
F8DD: 20A525 JSR 25A5 bs.KPUe
F8E0: 68     PLA
F8E1: 851F   STAz 1F
F8E3: 8519   STAz 19
F8E5: 68     PLA
F8E6: 851E   STAz 1E
F8E8: 8518   STAz 18
F8EA: 68     PLA
F8EB: 8517   STAz 17
F8ED: 68     PLA
F8EE: 8516   STAz 16
F8F0: A550   LDAz 50
F8F2: 2907   ANDim 07
F8F4: C907   CMPim 07
F8F6: D003   BNE +3>FB
F8F8: 2090E2 JSR E290
F8FB: A550   LDAz 50
F8FD: 2910   ANDim 10
F8FF: F00B   BEQ +11>0C
F901: A002   LDYim 02
F903: 20A525 JSR 25A5 bs.KPUe
F906: 68     PLA
F907: 8515   STAz 15
F909: 68     PLA
F90A: 8514   STAz 14
F90C: A550   LDAz 50
F90E: 2910   ANDim 10
F910: D006   BNE +6>18
F912: 202AF9 JSR F92A
F915: 4CD0F8 JMP F8D0
F918: 202AF9 JSR F92A
F91B: A514   LDAz 14
F91D: D006   BNE +6>25
F91F: A515   LDAz 15
F921: F0AD   BEQ -83>D0
F923: C615   DECz 15
F925: C614   DECz 14
F927: 18     CLC
F928: 90EE   BCC -18>18
F92A: A550   LDAz 50
F92C: 2906   ANDim 06
F92E: C906   CMPim 06
F930: D016   BNE +22>48
F932: A518   LDAz 18
F934: A000   LDYim 00
F936: 9116   STAiy 16
F938: A519   LDAz 19
F93A: C8     INY
F93B: 9116   STAiy 16
F93D: A516   LDAz 16
F93F: 18     CLC
F940: 6902   ADCim 02
F942: 8516   STAz 16
F944: 9002   BCC +2>48
F946: E617   INCz 17
F948: A51F   LDAz 1F
F94A: 8551   STAz 51
F94C: A200   LDXim 00
F94E: A550   LDAz 50
F950: 2907   ANDim 07
F952: C906   CMPim 06
F954: D002   BNE +2>58
F956: A220   LDXim 20
F958: 8A     TXAa
F959: A651   LDXz 51
F95B: F00D   BEQ +13>6A
F95D: A000   LDYim 00
F95F: 9116   STAiy 16
F961: C8     INY
F962: D0FB   BNE -5>5F
F964: E617   INCz 17
F966: C651   DECz 51
F968: D0F3   BNE -13>5D
F96A: A41E   LDYz 1E
F96C: F013   BEQ +19>81
F96E: A000   LDYim 00
F970: 9116   STAiy 16
F972: C8     INY
F973: C41E   CPYz 1E
F975: D0F9   BNE -7>70
F977: 98     TYA
F978: 18     CLC
F979: 6516   ADCz 16
F97B: 8516   STAz 16
F97D: 9002   BCC +2>81
F97F: E617   INCz 17
F981: 60     RTS
F982: FFFFFF 
F985: FF2233 
F988: 8514   STAz 14
F98A: 2002E0 JSR E002
F98D: C514   CMPz 14
F98F: 60     RTS
F990: 8515   STAz 15
F992: 2002E0 JSR E002
F995: AA     TAX
F996: C514   CMPz 14
F998: 08     PHP
F999: 2002E0 JSR E002
F99C: 28     PLP
F99D: E515   SBCz 15
F99F: F001   BEQ +1>A2
F9A1: 60     RTS
F9A2: E414   CPXz 14
F9A4: 38     SEC
F9A5: 60     RTS
F9A6: 8514   STAz 14
F9A8: 2002E0 JSR E002
F9AB: 38     SEC
F9AC: E514   SBCz 14
F9AE: 7004   BCS +4>B4
F9B0: 3004   BMI +4>B6
F9B2: 38     SEC
F9B3: 60     RTS
F9B4: 30FC   BMI -4>B2
F9B6: 18     CLC
F9B7: 60     RTS
F9B8: 22     
F9B9: 33     
F9BA: 8515   STAz 15
F9BC: 2002E0 JSR E002
F9BF: AA     TAX
F9C0: C514   CMPz 14
F9C2: 08     PHP
F9C3: 2002E0 JSR E002
F9C6: E515   SBCz 15
F9C8: D0E4   BNE -28>AE
F9CA: E414   CPXz 14
F9CC: 38     SEC
F9CD: 60     RTS
F9CE: FFFF22 
F9D1: 33     
F9D2: A200   LDXim 00
F9D4: 38     SEC
F9D5: 08     PHP
F9D6: 2002E0 JSR E002
F9D9: 28     PLP
F9DA: F514   SBCzx 14
F9DC: 9514   STAzx 14
F9DE: E8     INX
F9DF: E004   CPXim 04
F9E1: D0F2   BNE -14>D5
F9E3: 28     PLP
F9E4: D0C8   BNE -56>AE
F9E6: A516   LDAz 16
F9E8: 0515   ORAz 15
F9EA: 0514   ORAz 14
F9EC: 38     SEC
F9ED: 60     RTS
F9EE: FFFF22 
F9F1: 33     
F9F2: 9013   BCC +19>07
F9F4: A901   LDAim 01
F9F6: 60     RTS
F9F7: B00E   BCS +14>07
F9F9: A901   LDAim 01
F9FB: 60     RTS
F9FC: 9002   BCC +2>00
F9FE: D007   BNE +7>07
FA00: A901   LDAim 01
FA02: 60     RTS
FA03: 9002   BCC +2>07
FA05: D0F9   BNE -7>00
FA07: A900   LDAim 00
FA09: 60     RTS
FA0A: FFFFFF 
FA0D: FFFFFF 
FA10: FFFFFF 
FA13: FFFFFF 
FA16: FFFFFF 
FA19: FFFFFF 
FA1C: FFFF22 
FA1F: 33     
FA20: 18     CLC
FA21: 6901   ADCim 01
FA23: B08E   BCS -114>B3
FA25: 60     RTS
FA26: A002   LDYim 02
FA28: D002   BNE +2>2C
FA2A: A001   LDYim 01
FA2C: 18     CLC
FA2D: 7124   ADCiy 24
FA2F: B082   BCS -126>B3
FA31: 60     RTS
FA32: 22     
FA33: 33     
FA34: E614   INCz 14
FA36: D005   BNE +5>3D
FA38: 18     CLC
FA39: 6901   ADCim 01
FA3B: B076   BCS +118>B3
FA3D: 60     RTS
FA3E: A003   LDYim 03
FA40: D002   BNE +2>44
FA42: A001   LDYim 01
FA44: 48     PHA
FA45: A514   LDAz 14
FA47: 18     CLC
FA48: 7124   ADCiy 24
FA4A: 8514   STAz 14
FA4C: 68     PLA
FA4D: C8     INY
FA4E: 7124   ADCiy 24
FA50: B061   BCS +97>B3
FA52: 60     RTS
FA53: 22     
FA54: 33     
FA55: 18     CLC
FA56: 6901   ADCim 01
FA58: 7059   BCS +89>B3
FA5A: 60     RTS
FA5B: A002   LDYim 02
FA5D: D002   BNE +2>61
FA5F: A001   LDYim 01
FA61: 18     CLC
FA62: 7124   ADCiy 24
FA64: 704D   BCS +77>B3
FA66: 60     RTS
FA67: 22     
FA68: 33     
FA69: E614   INCz 14
FA6B: D005   BNE +5>72
FA6D: 18     CLC
FA6E: 6901   ADCim 01
FA70: 7041   BCS +65>B3
FA72: 60     RTS
FA73: A003   LDYim 03
FA75: D002   BNE +2>79
FA77: A001   LDYim 01
FA79: 48     PHA
FA7A: A514   LDAz 14
FA7C: 18     CLC
FA7D: 7124   ADCiy 24
FA7F: 8514   STAz 14
FA81: 68     PLA
FA82: C8     INY
FA83: 7124   ADCiy 24
FA85: B02C   BCS +44>B3
FA87: 60     RTS
FA88: 22     
FA89: 33     
FA8A: A200   LDXim 00
FA8C: F614   INCzx 14
FA8E: D007   BNE +7>97
FA90: E8     INX
FA91: E004   CPXim 04
FA93: D0F7   BNE -9>8C
FA95: F01C   BEQ +28>B3
FA97: 60     RTS
FA98: A005   LDYim 05
FA9A: D002   BNE +2>9E
FA9C: A001   LDYim 01
FA9E: A200   LDXim 00
FAA0: 18     CLC
FAA1: B514   LDAzx 14
FAA3: 7124   ADCiy 24
FAA5: 9514   STAzx 14
FAA7: C8     INY
FAA8: E8     INX
FAA9: E004   CPXim 04
FAAB: D0F4   BNE -12>A1
FAAD: 7004   BCS +4>B3
FAAF: 60     RTS
FAB0: FF2233 
FAB3: 20E1EE JSR EEE1
FAB6: 01FF   ORAix FF monitor.MODE
FAB8: FFFFFF 
FABB: FFFFFF 
FABE: 22     
FABF: 33     
FAC0: A001   LDYim 01
FAC2: 18     CLC
FAC3: F124   SBCiy 24
FAC5: 60     RTS
FAC6: AA     TAX
FAC7: A514   LDAz 14
FAC9: A001   LDYim 01
FACB: 18     CLC
FACC: F124   SBCiy 24
FACE: 8A     TXAa
FACF: C8     INY
FAD0: F124   SBCiy 24
FAD2: 60     RTS
FAD3: FF2233 
FAD6: B124   LDAiy 24
FAD8: 3007   BMI +7>E1
FADA: 28     PLP
FADB: 7007   BCS +7>E4
FADD: 3007   BMI +7>E6
FADF: 38     SEC
FAE0: 60     RTS
FAE1: 28     PLP
FAE2: 70F9   BCS -7>DD
FAE4: 30F9   BMI -7>DF
FAE6: 18     CLC
FAE7: 60     RTS
FAE8: FFFF22 
FAEB: 33     
FAEC: A001   LDYim 01
FAEE: 38     SEC
FAEF: F124   SBCiy 24
FAF1: D0E8   BNE -24>DB
FAF3: 18     CLC
FAF4: 60     RTS
FAF5: A001   LDYim 01
FAF7: 38     SEC
FAF8: F124   SBCiy 24
FAFA: D002   BNE +2>FE
FAFC: 18     CLC
FAFD: 60     RTS
FAFE: 08     PHP
FAFF: A002   LDYim 02
FB01: D0D3   BNE -45>D6
FB03: 22     
FB04: 33     
FB05: AA     TAX
FB06: A514   LDAz 14
FB08: A001   LDYim 01
FB0A: 38     SEC
FB0B: F124   SBCiy 24
FB0D: 8514   STAz 14
FB0F: 8A     TXAa
FB10: C8     INY
FB11: F124   SBCiy 24
FB13: 60     RTS
FB14: 2005FB JSR FB05
FB17: D0C2   BNE -62>DB
FB19: A514   LDAz 14
FB1B: D002   BNE +2>1F
FB1D: 18     CLC
FB1E: 60     RTS
FB1F: 38     SEC
FB20: 60     RTS
FB21: FF2233 
FB24: 2005FB JSR FB05
FB27: D00D   BNE +13>36
FB29: A514   LDAz 14
FB2B: D002   BNE +2>2F
FB2D: 18     CLC
FB2E: 60     RTS
FB2F: A901   LDAim 01
FB31: 08     PHP
FB32: A004   LDYim 04
FB34: D0A0   BNE -96>D6
FB36: 08     PHP
FB37: A004   LDYim 04
FB39: D09B   BNE -101>D6
FB3B: FFFF22 
FB3E: 33     
FB3F: A001   LDYim 01
FB41: A200   LDXim 00
FB43: 38     SEC
FB44: 08     PHP
FB45: 28     PLP
FB46: B514   LDAzx 14
FB48: F124   SBCiy 24
FB4A: 9514   STAzx 14
FB4C: 08     PHP
FB4D: C8     INY
FB4E: E8     INX
FB4F: E004   CPXim 04
FB51: D0F2   BNE -14>45
FB53: 28     PLP
FB54: 60     RTS
FB55: 203FFB JSR FB3F
FB58: D081   BNE -127>DB
FB5A: A516   LDAz 16
FB5C: 0515   ORAz 15
FB5E: 0514   ORAz 14
FB60: D002   BNE +2>64
FB62: 18     CLC
FB63: 60     RTS
FB64: 38     SEC
FB65: 60     RTS
FB66: 203FFB JSR FB3F
FB69: D011   BNE +17>7C
FB6B: A516   LDAz 16
FB6D: 0515   ORAz 15
FB6F: 0514   ORAz 14
FB71: D002   BNE +2>75
FB73: 18     CLC
FB74: 60     RTS
FB75: A901   LDAim 01
FB77: 08     PHP
FB78: A008   LDYim 08
FB7A: D003   BNE +3>7F
FB7C: 08     PHP
FB7D: A008   LDYim 08
FB7F: 4CD6FA JMP FAD6
FB82: FFFFFF 
FB85: FFFFFF 
FB88: FFFFFF 
FB8B: FFFFFF 
FB8E: FFFFFF 
FB91: FFFFFF 
FB94: FFFFFF 
FB97: FFFFFF 
FB9A: FFFFFF 
FB9D: FFFFFF 
FBA0: FFFFFF 
FBA3: FFFFFF 
FBA6: FFFFFF 
FBA9: FFFFFF 
FBAC: FFFFFF 
FBAF: FFFFFF 
FBB2: FFFFFF 
FBB5: FFFFFF 
FBB8: FFFFFF 
FBBB: FFFFFF 
FBBE: FFFFFF 
FBC1: FFFFFF 
FBC4: FFFFFF 
FBC7: FFFFFF 
FBCA: FFFFFF 
FBCD: FFFFFF 
FBD0: FFFFFF 
FBD3: FFFFFF 
FBD6: FFFFFF 
FBD9: FFFFFF 
FBDC: FFFFFF 
FBDF: FFFFFF 
FBE2: FFFFFF 
FBE5: FFFFFF 
FBE8: FFFFFF 
FBEB: FFFFFF 
FBEE: FFFFFF 
FBF1: FFFFFF 
FBF4: FFFFFF 
FBF7: FFFFFF 
FBFA: FFFFFF 
FBFD: FFFFFF 
FC00: FFFFFF 
FC03: FFFFFF 
FC06: FFFFFF 
FC09: FFFFFF 
FC0C: FFFFFF 
FC0F: FFFFFF 
FC12: FFFFFF 
FC15: FFFFFF 
FC18: FFFFFF 
FC1B: FFFFFF 
FC1E: FFFFFF 
FC21: FFFFFF 
FC24: FFFFFF 
FC27: FFFFFF 
FC2A: FFFFFF 
FC2D: FFFFFF 
FC30: FFFFFF 
FC33: FFFFFF 
FC36: FFFFFF 
FC39: FFFFFF 
FC3C: FFFFFF 
FC3F: FFFFFF 
FC42: FFFFFF 
FC45: FFFFFF 
FC48: FFFFFF 
FC4B: FFFFFF 
FC4E: FFFFFF 
FC51: FFFFFF 
FC54: FFFFFF 
FC57: FFFFFF 
FC5A: FFFFFF 
FC5D: FFFFFF 
FC60: FFFFFF 
FC63: FFFFFF 
FC66: FFFFFF 
FC69: FFFFFF 
FC6C: FFFFFF 
FC6F: FFFFFF 
FC72: FFFFFF 
FC75: FFFFFF 
FC78: FFFFFF 
FC7B: FFFFFF 
FC7E: FFFFFF 
FC81: FFFFFF 
FC84: FFFFFF 
FC87: FFFFFF 
FC8A: FFFFFF 
FC8D: FFFFFF 
FC90: FFFFFF 
FC93: FFFFFF 
FC96: FFFFFF 
FC99: FFFFFF 
FC9C: FFFFFF 
FC9F: FFFFFF 
FCA2: FFFFFF 
FCA5: FFFFFF 
FCA8: FFFFFF 
FCAB: FFFFFF 
FCAE: FFFFFF 
FCB1: FFFFFF 
FCB4: FFFFFF 
FCB7: FFFFFF 
FCBA: FFFFFF 
FCBD: FFFFFF 
FCC0: FFFFFF 
FCC3: FFFFFF 
FCC6: FFFFFF 
FCC9: FFFFFF 
FCCC: FFFFFF 
FCCF: FFFFFF 
FCD2: FFFFFF 
FCD5: FFFFFF 
FCD8: FFFFFF 
FCDB: FFFFFF 
FCDE: FFFFFF 
FCE1: FFFFFF 
FCE4: FFFFFF 
FCE7: FFFFFF 
FCEA: FFFFFF 
FCED: FFFFFF 
FCF0: FFFFFF 
FCF3: FFFFFF 
FCF6: FFFFFF 
FCF9: FFFFFF 
FCFC: FFFFFF 
FCFF: FFFFFF 
FD02: FFFFFF 
FD05: FFFFFF 
FD08: FFFFFF 
FD0B: FFFFFF 
FD0E: FFFFFF 
FD11: FFFFFF 
FD14: FFFFFF 
FD17: FFFFFF 
FD1A: FFFFFF 
FD1D: FFFFFF 
FD20: FFFFFF 
FD23: FFFFFF 
FD26: FFFFFF 
FD29: FFFFFF 
FD2C: FFFFFF 
FD2F: FFFFFF 
FD32: FFFFFF 
FD35: FFFFFF 
FD38: FFFFFF 
FD3B: FFFFFF 
FD3E: FFFFFF 
FD41: FFFFFF 
FD44: FFFFFF 
FD47: FFFFFF 
FD4A: FFFFFF 
FD4D: FFFFFF 
FD50: FFFFFF 
FD53: FFFFFF 
FD56: FFFFFF 
FD59: FFFFFF 
FD5C: FFFFFF 
FD5F: FFFFFF 
FD62: FFFFFF 
FD65: FFFFFF 
FD68: FFFFFF 
FD6B: FFFFFF 
FD6E: FFFFFF 
FD71: FFFFFF 
FD74: FFFFFF 
FD77: FFFFFF 
FD7A: FFFFFF 
FD7D: FFFFFF 
FD80: FFFFFF 
FD83: FFFFFF 
FD86: FFFFFF 
FD89: FFFFFF 
FD8C: FFFFFF 
FD8F: FFFFFF 
FD92: FFFFFF 
FD95: FFFFFF 
FD98: FFFFFF 
FD9B: FFFFFF 
FD9E: FFFFFF 
FDA1: FFFFFF 
FDA4: FFFFFF 
FDA7: FFFFFF 
FDAA: FFFFFF 
FDAD: FFFFFF 
FDB0: FFFFFF 
FDB3: FFFFFF 
FDB6: FFFFFF 
FDB9: FFFFFF 
FDBC: FFFFFF 
FDBF: FFFFFF 
FDC2: FFFFFF 
FDC5: FFFFFF 
FDC8: FFFFFF 
FDCB: FFFFFF 
FDCE: FFFFFF 
FDD1: FFFFFF 
FDD4: FFFFFF 
FDD7: FFFFFF 
FDDA: FFFFFF 
FDDD: FFFFFF 
FDE0: FFFFFF 
FDE3: FFFFFF 
FDE6: FFFFFF 
FDE9: FFFFFF 
FDEC: FFFFFF 
FDEF: FFFFFF 
FDF2: FFFFFF 
FDF5: FFFFFF 
FDF8: FFFFFF 
FDFB: FFFFFF 
FDFE: FFFFFF 
FE01: FFFFFF 
FE04: FFFFFF 
FE07: FFFFFF 
FE0A: FFFFFF 
FE0D: FFFFFF 
FE10: FFFFFF 
FE13: FFFFFF 
FE16: FFFFFF 
FE19: FFFFFF 
FE1C: FFFFFF 
FE1F: FFFFFF 
FE22: FFFFFF 
FE25: FFFFFF 
FE28: FFFFFF 
FE2B: FFFFFF 
FE2E: FFFFFF 
FE31: FFFFFF 
FE34: FFFFFF 
FE37: FFFFFF 
FE3A: FFFFFF 
FE3D: FFFFFF 
FE40: FFFFFF 
FE43: FFFFFF 
FE46: FFFFFF 
FE49: FFFFFF 
FE4C: FFFFFF 
FE4F: FFFFFF 
FE52: FFFFFF 
FE55: FFFFFF 
FE58: FFFFFF 
FE5B: FFFFFF 
FE5E: FFFFFF 
FE61: FFFFFF 
FE64: FFFFFF 
FE67: FFFFFF 
FE6A: FFFFFF 
FE6D: FFFFFF 
FE70: FFFFFF 
FE73: FFFFFF 
FE76: FFFFFF 
FE79: FFFFFF 
FE7C: FFFFFF 
FE7F: FFFFFF 
FE82: FFFFFF 
FE85: FFFFFF 
FE88: FFFFFF 
FE8B: FFFFFF 
FE8E: FFFFFF 
FE91: FFFFFF 
FE94: FFFFFF 
FE97: FFFFFF 
FE9A: FFFFFF 
FE9D: FFFFFF 
FEA0: FFFFFF 
FEA3: FFFFFF 
FEA6: FFFFFF 
FEA9: FFFFFF 
FEAC: FFFFFF 
FEAF: FFFFFF 
FEB2: FFFFFF 
FEB5: FFFFFF 
FEB8: FFFFFF 
FEBB: FFFFFF 
FEBE: FFFFFF 
FEC1: FFFFFF 
FEC4: FFFFFF 
FEC7: FFFFFF 
FECA: FFFFFF 
FECD: FFFFFF 
FED0: FFFFFF 
FED3: FFFFFF 
FED6: FFFFFF 
FED9: FFFFFF 
FEDC: FFFFFF 
FEDF: FFFFFF 
FEE2: FFFFFF 
FEE5: FFFFFF 
FEE8: FFFFFF 
FEEB: FFFFFF 
FEEE: FFFFFF 
FEF1: FFFFFF 
FEF4: FFFFFF 
FEF7: FFFFFF 
FEFA: FFFFFF 
FEFD: FFFFFF 
FF00: FFFFFF 
FF03: FFFFFF 
FF06: FFFFFF 
FF09: FFFFFF 
FF0C: FFFFFF 
FF0F: FFFFFF 
FF12: FFFFFF 
FF15: FFFFFF 
FF18: FFFFFF 
FF1B: FFFFFF 
FF1E: FFFFFF 
FF21: FFFFFF 
FF24: FFFFFF 
FF27: FFFFFF 
FF2A: FFFFFF 
FF2D: FFFFFF 
FF30: FFFFFF 
FF33: FFFFFF 
FF36: FFFFFF 
FF39: FFFFFF 
FF3C: FFFFFF 
FF3F: FFFFFF 
FF42: FFFFFF 
FF45: FFFFFF 
FF48: FFFFFF 
FF4B: FFFFFF 
FF4E: FFFFFF 
FF51: FFFFFF 
FF54: FFFFFF 
FF57: FFFFFF 
FF5A: FFFFFF 
FF5D: FFFFFF 
FF60: FFFFFF 
FF63: FFFFFF 
FF66: FFFFFF 
FF69: FFFFFF 
FF6C: FFFFFF 
FF6F: FFFFFF 
FF72: FFFFFF 
FF75: FFFFFF 
FF78: FFFFFF 
FF7B: FFFFFF 
FF7E: FFFFFF 
FF81: FFFFFF 
FF84: FFFFFF 
FF87: FFFFFF 
FF8A: FFFFFF 
FF8D: FFFFFF 
FF90: FFFFFF 
FF93: FFFFFF 
FF96: FFFFFF 
FF99: FFFFFF 
FF9C: FFFF22 
FF9F: 33     
FFA0: A9FF   LDAim FF
FFA2: 8D196C STA 6C19
FFA5: 8D1A6C STA 6C1A
FFA8: A960   LDAim 60
FFAA: 8D1B6C STA 6C1B
FFAD: A983   LDAim 83
FFAF: 8D081A STA 1A08 bs.param.ROMStatusMaster
FFB2: A200   LDXim 00
FFB4: A968   LDAim 68
FFB6: 4CCB4E JMP 4ECB
FFB9: FFFFFF 
FFBC: FFFF22 
FFBF: 33     
FFC0: CA     DEX
FFC1: FFA0FF 
FFC4: 07     
FFC5: 68     PLA
FFC6: 6972   ADCim 72
FFC8: 6E20D3 ROR D320
FFCB: FF5556 
FFCE: 83     
FFCF: 7061   BCS +97>32
FFD1: 63     
FFD2: 20DEFF JSR FFDE
FFD5: 00     BRK
FFD6: 4C8365 JMP 6583
FFD9: 7072   BCS +114>4D
FFDB: 6F     
FFDC: 6D20F0 ADC F020
FFDF: 3F     
FFE0: AA     TAX
FFE1: 2A     ROLa
FFE2: 83     
FFE3: 72     
FFE4: 6576   ADCz 76
FFE6: 6572   ADCz 72
FFE8: 73     
FFE9: 6920   ADCim 20
FFEB: FFFFFF 
FFEE: FFFFFF 
FFF1: FFFFFF 
FFF4: FFFFC0 
FFF7: FFFF60 
FFFA: ------ bios.flag EPROM hi/NMIadr
FFFA: 2F     
FFFB: 1F     
FFFC: ------ RSTadr
FFFC: 1D1C32 ORAx 321C
FFFF: ------ bios.flag EPROM Bank
FFFF: 1F     
