0000: 85F3   STAz F3
0002: 68     PLA
0003: 85F1   STAz F1
0005: 68     PLA
0006: 85EF   STAz EF
0008: 85FA   STAz FA
000A: 68     PLA
000B: 85F0   STAz F0
000D: 85FB   STAz FB
000F: 84F4   STYz F4
0011: 86F5   STXz F5
0013: BA     TSX
0014: 86F2   STXz F2
0016: A201   LDXim 01
0018: 86FF   STXz FF
001A: 4C331C JMP 1C33
001D: A91E   LDAim 1E
001F: 8D831A STA 1A83
0022: A904   LDAim 04
0024: 85F1   STAz F1
0026: A903   LDAim 03
0028: 85FF   STAz FF
002A: 85F6   STAz F6
002C: A2FF   LDXim FF
002E: 9A     TXS
002F: 4C861E JMP 1E86
0032: 33     
0033: 20881D JSR 1D88
0036: D0FB   BNE FB
0038: 20881D JSR 1D88
003B: F0FB   BEQ FB
003D: 20881D JSR 1D88
0040: F0F6   BEQ F6
0042: 20F91D JSR 1DF9
0045: C913   CMPim 13
0047: D013   BNE 13
0049: A6F2   LDXz F2
004B: 9A     TXS
004C: A5FB   LDAz FB
004E: 48     PHA
004F: A5FA   LDAz FA
0051: 48     PHA
0052: A5F1   LDAz F1
0054: 48     PHA
0055: A6F5   LDXz F5
0057: A4F4   LDYz F4
0059: A5F3   LDAz F3
005B: 40     RTI
005C: C910   CMPim 10
005E: D006   BNE 06
0060: A903   LDAim 03
0062: 85FF   STAz FF
0064: D014   BNE 14
0066: C911   CMPim 11
0068: D006   BNE 06
006A: A900   LDAim 00
006C: 85FF   STAz FF
006E: F00A   BEQ 0A
0070: C912   CMPim 12
0072: D009   BNE 09
0074: E6FA   INCz FA
0076: D002   BNE 02
0078: E6FB   INCz FB
007A: 4C331C JMP 1C33
007D: C914   CMPim 14
007F: D00B   BNE 0B
0081: A5EF   LDAz EF
0083: 85FA   STAz FA
0085: A5F0   LDAz F0
0087: 85FB   STAz FB
0089: 4C7A1C JMP 1C7A
008C: C915   CMPim 15
008E: 10EA   BPL EA
0090: 85E1   STAz E1
0092: A4FF   LDYz FF
0094: D00D   BNE 0D
0096: B1FA   LDAiy FA
0098: 0A     ASLa
0099: 0A     ASLa
009A: 0A     ASLa
009B: 0A     ASLa
009C: 05E1   ORAz E1
009E: 91FA   STAiy FA
00A0: 4C7A1C JMP 1C7A
00A3: A204   LDXim 04
00A5: 06FA   ASLz FA
00A7: 26FB   ROLz FB
00A9: CA     DEX
00AA: D0F9   BNE F9
00AC: A5FA   LDAz FA
00AE: 05E1   ORAz E1
00B0: 85FA   STAz FA
00B2: 4C7A1C JMP 1C7A
00B5: FF     
00B6: FF     
00B7: FF     
00B8: FF     
00B9: 22     
00BA: 33     
00BB: 20EE1F JSR 1FEE
00BE: A920   LDAim 20
00C0: A000   LDYim 00
00C2: 2C0016 BIT 1600
00C5: 10FB   BPL FB
00C7: F015   BEQ 15
00C9: 7013   BCS 13
00CB: B1EA   LDAiy EA
00CD: 8D0116 STA 1601
00D0: C8     INY
00D1: F00E   BEQ 0E
00D3: A920   LDAim 20
00D5: 2C0016 BIT 1600
00D8: 10FB   BPL FB
00DA: D0EF   BNE EF
00DC: 84EC   STYz EC
00DE: 4CDD1F JMP 1FDD
00E1: E6EB   INCz EB
00E3: E6ED   INCz ED
00E5: 4CD31C JMP 1CD3
00E8: FF     
00E9: FF     
00EA: FF     
00EB: FF     
00EC: 22     
00ED: 33     
00EE: 20EE1F JSR 1FEE
00F1: A920   LDAim 20
00F3: A000   LDYim 00
00F5: 2C0016 BIT 1600
00F8: 10FB   BPL FB
00FA: F017   BEQ 17
00FC: 5015   BVC 15
00FE: AD0116 LDA 1601
0101: D1EA   CMPiy EA
0103: D018   BNE 18
0105: C8     INY
0106: F00E   BEQ 0E
0108: A920   LDAim 20
010A: 2C0016 BIT 1600
010D: 10FB   BPL FB
010F: D0ED   BNE ED
0111: 84EC   STYz EC
0113: 4CDD1F JMP 1FDD
0116: E6EB   INCz EB
0118: E6ED   INCz ED
011A: 4C081D JMP 1D08
011D: A901   LDAim 01
011F: 85EE   STAz EE
0121: 4C051D JMP 1D05
0124: FF     
0125: FF     
0126: FF     
0127: FF     
0128: FF     
0129: FF     
012A: FF     
012B: FF     
012C: FF     
012D: FF     
012E: FF     
012F: FF     
0130: FF     
0131: FF     
0132: FF     
0133: FF     
0134: FF     
0135: FF     
0136: FF     
0137: FF     
0138: FF     
0139: FF     
013A: FF     
013B: FF     
013C: FF     
013D: FF     
013E: FF     
013F: FF     
0140: FF     
0141: FF     
0142: FF     
0143: FF     
0144: FF     
0145: FF     
0146: FF     
0147: FF     
0148: FF     
0149: FF     
014A: FF     
014B: 22     
014C: 33     
014D: A202   LDXim 02
014F: A000   LDYim 00
0151: B1E6   LDAiy E6
0153: 95F9   STAzx F9
0155: C8     INY
0156: CA     DEX
0157: 10F8   BPL F8
0159: 205C1E JSR 1E5C
015C: 208E1D JSR 1D8E
015F: D0FB   BNE FB
0161: 208E1D JSR 1D8E
0164: F0FB   BEQ FB
0166: 208E1D JSR 1D8E
0169: F0F6   BEQ F6
016B: 20F91D JSR 1DF9
016E: 60     RTS
016F: 205C1D JSR 1D5C
0172: C910   CMPim 10
0174: 1011   BPL 11
0176: 0A     ASLa
0177: 0A     ASLa
0178: 0A     ASLa
0179: 0A     ASLa
017A: 85FE   STAz FE
017C: 205C1D JSR 1D5C
017F: C910   CMPim 10
0181: 1004   BPL 04
0183: 05FE   ORAz FE
0185: A2FF   LDXim FF
0187: 60     RTS
0188: A000   LDYim 00
018A: B1FA   LDAiy FA
018C: 85F9   STAz F9
018E: A97F   LDAim 7F
0190: 8D811A STA 1A81
0193: A208   LDXim 08
0195: A4F6   LDYz F6
0197: A5FB   LDAz FB
0199: 20CC1D JSR 1DCC
019C: 88     DEY
019D: F00D   BEQ 0D
019F: A5FA   LDAz FA
01A1: 20CC1D JSR 1DCC
01A4: 88     DEY
01A5: F005   BEQ 05
01A7: A5F9   LDAz F9
01A9: 20CC1D JSR 1DCC
01AC: A900   LDAim 00
01AE: 8D811A STA 1A81
01B1: A003   LDYim 03
01B3: A200   LDXim 00
01B5: A9FF   LDAim FF
01B7: 8E821A STX 1A82
01BA: E8     INX
01BB: E8     INX
01BC: 2D801A AND 1A80
01BF: 88     DEY
01C0: D0F5   BNE F5
01C2: A006   LDYim 06
01C4: 8C821A STY 1A82
01C7: 0980   ORAim 80
01C9: 49FF   EORim FF
01CB: 60     RTS
01CC: 48     PHA
01CD: 84FC   STYz FC
01CF: 4A     LSRa
01D0: 4A     LSRa
01D1: 4A     LSRa
01D2: 4A     LSRa
01D3: 20DF1D JSR 1DDF
01D6: 68     PLA
01D7: 290F   ANDim 0F
01D9: 20DF1D JSR 1DDF
01DC: A4FC   LDYz FC
01DE: 60     RTS
01DF: A8     TAY
01E0: B90F1F LDAy 1F0F
01E3: 8D801A STA 1A80
01E6: 8E821A STX 1A82
01E9: A07F   LDYim 7F
01EB: 88     DEY
01EC: 10FD   BPL FD
01EE: 8C801A STY 1A80
01F1: A006   LDYim 06
01F3: 8C821A STY 1A82
01F6: E8     INX
01F7: E8     INX
01F8: 60     RTS
01F9: A221   LDXim 21
01FB: A001   LDYim 01
01FD: 20B51D JSR 1DB5
0200: D007   BNE 07
0202: E027   CPXim 27
0204: D0F5   BNE F5
0206: A915   LDAim 15
0208: 60     RTS
0209: A0FF   LDYim FF
020B: 0A     ASLa
020C: B003   BCS 03
020E: C8     INY
020F: 10FA   BPL FA
0211: 8A     TXAa
0212: 290F   ANDim 0F
0214: 4A     LSRa
0215: AA     TAX
0216: 98     TYA
0217: 1003   BPL 03
0219: 18     CLC
021A: 6907   ADCim 07
021C: CA     DEX
021D: D0FA   BNE FA
021F: 60     RTS
0220: FF     
0221: 22     
0222: 33     
0223: A920   LDAim 20
0225: A000   LDYim 00
0227: 2C0016 BIT 1600
022A: 10FB   BPL FB
022C: F015   BEQ 15
022E: 5013   BVC 13
0230: AD0116 LDA 1601
0233: 91EA   STAiy EA
0235: C8     INY
0236: F00C   BEQ 0C
0238: A920   LDAim 20
023A: 2C0016 BIT 1600
023D: 10FB   BPL FB
023F: D0EF   BNE EF
0241: 84EC   STYz EC
0243: 60     RTS
0244: E6EB   INCz EB
0246: E6ED   INCz ED
0248: 4C381E JMP 1E38
024B: FF     
024C: FF     
024D: FF     
024E: FF     
024F: FF     
0250: FF     
0251: FF     
0252: FF     
0253: FF     
0254: FF     
0255: FF     
0256: FF     
0257: FF     
0258: FF     
0259: FF     
025A: 22     
025B: 33     
025C: A000   LDYim 00
025E: B1E6   LDAiy E6
0260: A001   LDYim 01
0262: C900   CMPim 00
0264: F01A   BEQ 1A
0266: C940   CMPim 40
0268: F016   BEQ 16
026A: C960   CMPim 60
026C: F012   BEQ 12
026E: A003   LDYim 03
0270: C920   CMPim 20
0272: F00C   BEQ 0C
0274: 291F   ANDim 1F
0276: C919   CMPim 19
0278: F006   BEQ 06
027A: 290F   ANDim 0F
027C: AA     TAX
027D: BC1F1F LDYx 1F1F
0280: 84F6   STYz F6
0282: 60     RTS
0283: FF     
0284: 22     
0285: 33     
0286: 86F2   STXz F2
0288: D8     CLD
0289: 78     SEI
028A: 20881D JSR 1D88
028D: D003   BNE 03
028F: 4C331C JMP 1C33
0292: 20611D JSR 1D61
0295: C900   CMPim 00
0297: D008   BNE 08
0299: A901   LDAim 01
029B: 8DF8FF STA FFF8
029E: 4C002F JMP 2F00
02A1: C901   CMPim 01
02A3: D008   BNE 08
02A5: A901   LDAim 01
02A7: 8DF9FF STA FFF9
02AA: 4C0040 JMP 4000
02AD: C90D   CMPim 0D
02AF: D008   BNE 08
02B1: A901   LDAim 01
02B3: 8DF9FF STA FFF9
02B6: 4C304F JMP 4F30
02B9: C90F   CMPim 0F
02BB: D008   BNE 08
02BD: A901   LDAim 01
02BF: 8DF9FF STA FFF9
02C2: 4C0050 JMP 5000
02C5: 4C331C JMP 1C33
02C8: FF     
02C9: FF     
02CA: FF     
02CB: FF     
02CC: FF     
02CD: FF     
02CE: FF     
02CF: FF     
02D0: FF     
02D1: 22     
02D2: 33     
02D3: A5E2   LDAz E2
02D5: 85E6   STAz E6
02D7: A5E3   LDAz E3
02D9: 85E7   STAz E7
02DB: 60     RTS
02DC: 18     CLC
02DD: A5E8   LDAz E8
02DF: 65F6   ADCz F6
02E1: 85E8   STAz E8
02E3: A5E9   LDAz E9
02E5: 6900   ADCim 00
02E7: 85E9   STAz E9
02E9: 60     RTS
02EA: 38     SEC
02EB: A5E8   LDAz E8
02ED: E5F6   SBCz F6
02EF: 85E8   STAz E8
02F1: A5E9   LDAz E9
02F3: E900   SBCim 00
02F5: 85E9   STAz E9
02F7: 60     RTS
02F8: 18     CLC
02F9: A5E6   LDAz E6
02FB: 65F6   ADCz F6
02FD: 85E6   STAz E6
02FF: A5E7   LDAz E7
0301: 6900   ADCim 00
0303: 85E7   STAz E7
0305: 38     SEC
0306: A5E6   LDAz E6
0308: E5E8   SBCz E8
030A: A5E7   LDAz E7
030C: E5E9   SBCz E9
030E: 60     RTS
030F: 40     RTI
0310: 792430 ADCy 3024
0313: 191202 ORAy 0212
0316: 78     SEI
0317: 00     BRK
0318: 1008   BPL 08
031A: 03     
031B: 4621   LSRz 21
031D: 060E   ASLz 0E
031F: 02     
0320: 02     
0321: 02     
0322: 0102   ORAix 02
0324: 02     
0325: 02     
0326: 0101   ORAix 01
0328: 02     
0329: 0101   ORAix 01
032B: 03     
032C: 03     
032D: 03     
032E: 03     
032F: 6C7A1A JMPi 1A7A
0332: 6C7E1A JMPi 1A7E
0335: FF     
0336: FF     
0337: FF     
0338: FF     
0339: FF     
033A: FF     
033B: 22     
033C: 33     
033D: 20EE1F JSR 1FEE
0340: 88     DEY
0341: 301A   BMI 1A
0343: B19A   LDAiy 9A
0345: C920   CMPim 20
0347: F0F7   BEQ F7
0349: 844D   STYz 4D
034B: B19A   LDAiy 9A
034D: 9166   STAiy 66
034F: 88     DEY
0350: 10F9   BPL F9
0352: 38     SEC
0353: A566   LDAz 66
0355: 654D   ADCz 4D
0357: 8566   STAz 66
0359: 9002   BCC 02
035B: E667   INCz 67
035D: 4CDD1F JMP 1FDD
0360: 22     
0361: 33     
0362: 20EE1F JSR 1FEE
0365: 88     DEY
0366: 3006   BMI 06
0368: B19A   LDAiy 9A
036A: C920   CMPim 20
036C: F0F7   BEQ F7
036E: 4CDD1F JMP 1FDD
0371: 22     
0372: 33     
0373: 20EE1F JSR 1FEE
0376: C8     INY
0377: D002   BNE 02
0379: E62F   INCz 2F
037B: B12E   LDAiy 2E
037D: C91D   CMPim 1D
037F: D0F5   BNE F5
0381: 4CDD1F JMP 1FDD
0384: 22     
0385: 33     
0386: 20EE1F JSR 1FEE
0389: 209011 JSR 1190
038C: 4CDD1F JMP 1FDD
038F: 22     
0390: 33     
0391: 20EE1F JSR 1FEE
0394: B19A   LDAiy 9A
0396: AA     TAX
0397: 4CDD1F JMP 1FDD
039A: 22     
039B: 33     
039C: 20EE1F JSR 1FEE
039F: B160   LDAiy 60
03A1: AA     TAX
03A2: 4CDD1F JMP 1FDD
03A5: FF     
03A6: FF     
03A7: FF     
03A8: 22     
03A9: 33     
03AA: A5E2   LDAz E2
03AC: A6E3   LDXz E3
03AE: 85FA   STAz FA
03B0: 86FB   STXz FB
03B2: A901   LDAim 01
03B4: 8DF8FF STA FFF8
03B7: 4C002F JMP 2F00
03BA: FF     
03BB: FF     
03BC: 22     
03BD: 33     
03BE: 20D41F JSR 1FD4
03C1: B160   LDAiy 60
03C3: AA     TAX
03C4: AD081A LDA 1A08
03C7: 0A     ASLa
03C8: 2A     ROLa
03C9: 8DFFFF STA FFFF
03CC: 6A     RORa
03CD: 6A     RORa
03CE: 4CE01F JMP 1FE0
03D1: FF     
03D2: 22     
03D3: 33     
03D4: AD091A LDA 1A09
03D7: 4CC71F JMP 1FC7
03DA: FF     
03DB: 22     
03DC: 33     
03DD: AD081A LDA 1A08
03E0: 8DF8FF STA FFF8
03E3: 4A     LSRa
03E4: 8DF9FF STA FFF9
03E7: 4A     LSRa
03E8: 8DFAFF STA FFFA
03EB: 60     RTS
03EC: 22     
03ED: 33     
03EE: A900   LDAim 00
03F0: 8DF8FF STA FFF8
03F3: 8DF9FF STA FFF9
03F6: 8DFAFF STA FFFA
03F9: 60     RTS
03FA: 2F     
03FB: 1F     
03FC: 1D1C32 ORAx 321C
03FF: 1F     
